MODULE Linux arm 489FF5B0639F40A4A961DDC068B5B0770 libnative-lib.so
INFO CODE_ID B0F59F489F63A440A961DDC068B5B0770F6A5E7F
FUNC 21470 3c 0 _GLOBAL__sub_I_system_error.cc
FUNC 214ac 10 0 _GLOBAL__sub_I_eh_alloc.cc
FUNC 214bc 50 0 _GLOBAL__sub_I_eh_globals.cc
FUNC 21538 48 0 dumpCallback(google_breakpad::MinidumpDescriptor const&, void*, bool)
FUNC 21580 e 0 google_breakpad::MinidumpDescriptor::path() const
FUNC 2158e e 0 crash()
FUNC 2159c 100 0 Java_com_andr0day_ndktest_MainActivity_stringFromJNI
FUNC 2169c 90 0 google_breakpad::MinidumpDescriptor::MinidumpDescriptor(std::string const&)
FUNC 2172c 22 0 _JNIEnv::NewStringUTF(char const*)
FUNC 2174e 26 0 google_breakpad::MinidumpDescriptor::~MinidumpDescriptor()
FUNC 21774 1c 0 google_breakpad::MicrodumpExtraInfo::MicrodumpExtraInfo()
FUNC 21790 274 0 google_breakpad::ExceptionHandler::ExceptionHandler(google_breakpad::MinidumpDescriptor const&, bool (*)(void*), bool (*)(google_breakpad::MinidumpDescriptor const&, void*, bool), void*, bool, int)
FUNC 21a04 20 0 google_breakpad::scoped_ptr<google_breakpad::CrashGenerationClient>::scoped_ptr(google_breakpad::CrashGenerationClient*)
FUNC 21a24 38 0 std::list<google_breakpad::MappingEntry, std::allocator<google_breakpad::MappingEntry> >::list()
FUNC 21a5c 38 0 std::list<google_breakpad::AppMemory, std::allocator<google_breakpad::AppMemory> >::list()
FUNC 21a94 68 0 google_breakpad::scoped_ptr<google_breakpad::CrashGenerationClient>::reset(google_breakpad::CrashGenerationClient*)
FUNC 21afc 38 0 google_breakpad::ExceptionHandler::IsOutOfProcess() const
FUNC 21b34 28 0 google_breakpad::MinidumpDescriptor::IsFD() const
FUNC 21b5c 28 0 google_breakpad::MinidumpDescriptor::IsMicrodumpOnConsole() const
FUNC 21b84 38 0 std::vector<google_breakpad::ExceptionHandler*, std::allocator<google_breakpad::ExceptionHandler*> >::vector()
FUNC 21bbc 1f8 0 google_breakpad::(anonymous namespace)::InstallAlternateStackLocked()
FUNC 21db4 258 0 google_breakpad::ExceptionHandler::InstallHandlersLocked()
FUNC 2200c 44 0 std::vector<google_breakpad::ExceptionHandler*, std::allocator<google_breakpad::ExceptionHandler*> >::push_back(google_breakpad::ExceptionHandler*&&)
FUNC 22050 1d0 0 google_breakpad::ExceptionHandler::~ExceptionHandler()
FUNC 22220 9c 0 __gnu_cxx::__normal_iterator<google_breakpad::ExceptionHandler**, std::vector<google_breakpad::ExceptionHandler*, std::allocator<google_breakpad::ExceptionHandler*> > > std::find<__gnu_cxx::__normal_iterator<google_breakpad::ExceptionHandler**, std::vector<google_breakpad::ExceptionHandler*, std::allocator<google_breakpad::ExceptionHandler*> > >, google_breakpad::ExceptionHandler*>(__gnu_cxx::__normal_iterator<google_breakpad::ExceptionHandler**, std::vector<google_breakpad::ExceptionHandler*, std::allocator<google_breakpad::ExceptionHandler*> > >, __gnu_cxx::__normal_iterator<google_breakpad::ExceptionHandler**, std::vector<google_breakpad::ExceptionHandler*, std::allocator<google_breakpad::ExceptionHandler*> > >, google_breakpad::ExceptionHandler* const&)
FUNC 222bc 74 0 std::vector<google_breakpad::ExceptionHandler*, std::allocator<google_breakpad::ExceptionHandler*> >::begin()
FUNC 22330 78 0 std::vector<google_breakpad::ExceptionHandler*, std::allocator<google_breakpad::ExceptionHandler*> >::end()
FUNC 223a8 b8 0 std::vector<google_breakpad::ExceptionHandler*, std::allocator<google_breakpad::ExceptionHandler*> >::erase(__gnu_cxx::__normal_iterator<google_breakpad::ExceptionHandler* const*, std::vector<google_breakpad::ExceptionHandler*, std::allocator<google_breakpad::ExceptionHandler*> > >)
FUNC 22460 40 0 __gnu_cxx::__normal_iterator<google_breakpad::ExceptionHandler *const *, std::vector<google_breakpad::ExceptionHandler *, std::allocator<google_breakpad::ExceptionHandler *> > >::__normal_iterator<google_breakpad::ExceptionHandler **>
FUNC 224a0 88 0 std::vector<google_breakpad::ExceptionHandler*, std::allocator<google_breakpad::ExceptionHandler*> >::empty() const
FUNC 22528 68 0 std::vector<google_breakpad::ExceptionHandler*, std::allocator<google_breakpad::ExceptionHandler*> >::~vector()
FUNC 22590 128 0 google_breakpad::(anonymous namespace)::RestoreAlternateStackLocked()
FUNC 226b8 f8 0 google_breakpad::ExceptionHandler::RestoreHandlersLocked()
FUNC 227b0 38 0 std::list<google_breakpad::AppMemory, std::allocator<google_breakpad::AppMemory> >::~list()
FUNC 227e8 38 0 std::list<google_breakpad::MappingEntry, std::allocator<google_breakpad::MappingEntry> >::~list()
FUNC 22820 48 0 google_breakpad::scoped_ptr<google_breakpad::CrashGenerationClient>::~scoped_ptr()
FUNC 22868 40 0 sigemptyset(unsigned long*)
FUNC 228a8 6c 0 sigaddset(unsigned long*, int)
FUNC 22914 24c 0 google_breakpad::ExceptionHandler::SignalHandler(int, siginfo*, void*)
FUNC 22b60 ac 0 google_breakpad::(anonymous namespace)::InstallDefaultHandler(int)
FUNC 22c0c 3c 0 std::vector<google_breakpad::ExceptionHandler*, std::allocator<google_breakpad::ExceptionHandler*> >::size() const
FUNC 22c48 30 0 std::vector<google_breakpad::ExceptionHandler*, std::allocator<google_breakpad::ExceptionHandler*> >::operator[](unsigned int)
FUNC 22c78 218 0 google_breakpad::ExceptionHandler::HandleSignal(int, siginfo*, void*)
FUNC 22e90 40 0 tgkill(int, int, int)
FUNC 22ed0 64 0 google_breakpad::ExceptionHandler::ThreadEntry(void*)
FUNC 22f34 130 0 google_breakpad::ExceptionHandler::WaitForContinueSignal()
FUNC 23064 19c 0 google_breakpad::ExceptionHandler::DoDump(int, void const*, unsigned int)
FUNC 23200 c0 0 sys_prctl(int, unsigned long, unsigned long, unsigned long, unsigned long)
FUNC 232c0 470 0 google_breakpad::ExceptionHandler::GenerateDump(google_breakpad::ExceptionHandler::CrashContext*)
FUNC 23730 cc 0 google_breakpad::ExceptionHandler::SimulateSignalDelivery(int)
FUNC 237fc 68 0 google_breakpad::scoped_ptr<google_breakpad::CrashGenerationClient>::operator->() const
FUNC 23864 44 0 google_breakpad::PageAllocator::PageAllocator()
FUNC 238a8 19c 0 google_breakpad::PageAllocator::Alloc(unsigned int)
FUNC 23a44 7c 0 sys_pipe(int*)
FUNC 23ac0 118 0 sys_clone(int (*)(void*), void*, int, void*, int*, void*, int*)
FUNC 23bd8 7c 0 sys_close(int)
FUNC 23c54 104 0 google_breakpad::ExceptionHandler::SendContinueSignalToChild()
FUNC 23d58 34 0 sys_waitpid(int, int*, int)
FUNC 23d8c 28 0 google_breakpad::PageAllocator::~PageAllocator()
FUNC 23db4 9c 0 sys_write(int, void const*, unsigned int)
FUNC 23e50 9c 0 sys_read(int, void*, unsigned int)
FUNC 23eec 64 0 google_breakpad::MinidumpDescriptor::microdump_extra_info()
FUNC 23f50 18 0 google_breakpad::MinidumpDescriptor::fd() const
FUNC 23f68 18 0 google_breakpad::MinidumpDescriptor::size_limit() const
FUNC 23f80 e4 0 google_breakpad::ExceptionHandler::WriteMinidump(std::string const&, bool (*)(google_breakpad::MinidumpDescriptor const&, void*, bool), void*)
FUNC 24064 1b4 0 google_breakpad::ExceptionHandler::WriteMinidump()
FUNC 24218 10 0 void google_breakpad::ignore_result<int>(int const&)
FUNC 24228 40 0 sys_gettid()
FUNC 24268 178 0 google_breakpad::ExceptionHandler::AddMappingInfo(std::string const&, unsigned char const*, unsigned int, unsigned int, unsigned int)
FUNC 243e0 44 0 std::list<google_breakpad::MappingEntry, std::allocator<google_breakpad::MappingEntry> >::push_back(google_breakpad::MappingEntry const&)
FUNC 24424 e8 0 google_breakpad::ExceptionHandler::RegisterAppMemory(void*, unsigned int)
FUNC 2450c 9c 0 std::_List_iterator<google_breakpad::AppMemory> std::find<std::_List_iterator<google_breakpad::AppMemory>, void*>(std::_List_iterator<google_breakpad::AppMemory>, std::_List_iterator<google_breakpad::AppMemory>, void* const&)
FUNC 245a8 78 0 std::list<google_breakpad::AppMemory, std::allocator<google_breakpad::AppMemory> >::begin()
FUNC 24620 74 0 std::list<google_breakpad::AppMemory, std::allocator<google_breakpad::AppMemory> >::end()
FUNC 24694 34 0 std::_List_iterator<google_breakpad::AppMemory>::operator!=(std::_List_iterator<google_breakpad::AppMemory> const&) const
FUNC 246c8 44 0 std::list<google_breakpad::AppMemory, std::allocator<google_breakpad::AppMemory> >::push_back(google_breakpad::AppMemory const&)
FUNC 2470c f0 0 google_breakpad::ExceptionHandler::UnregisterAppMemory(void*)
FUNC 247fc 94 0 std::list<google_breakpad::AppMemory, std::allocator<google_breakpad::AppMemory> >::erase(std::_List_const_iterator<google_breakpad::AppMemory>)
FUNC 24890 24 0 std::_List_const_iterator<google_breakpad::AppMemory>::_List_const_iterator(std::_List_iterator<google_breakpad::AppMemory> const&)
FUNC 248b4 138 0 google_breakpad::ExceptionHandler::WriteMinidumpForChild(int, int, std::string const&, bool (*)(google_breakpad::MinidumpDescriptor const&, void*, bool), void*)
FUNC 249ec 18 0 google_breakpad::scoped_ptr<google_breakpad::CrashGenerationClient>::get() const
FUNC 24a04 44 0 int const& std::max<int>(int const&, int const&)
FUNC 24a48 8c 0 sys_sigaltstack(sigaltstack const*, sigaltstack const*)
FUNC 24ad4 38 0 std::_List_base<google_breakpad::AppMemory, std::allocator<google_breakpad::AppMemory> >::~_List_base()
FUNC 24b0c 6c 0 std::_List_base<google_breakpad::AppMemory, std::allocator<google_breakpad::AppMemory> >::_M_clear()
FUNC 24b78 38 0 std::_List_base<google_breakpad::AppMemory, std::allocator<google_breakpad::AppMemory> >::_List_impl::~_List_impl()
FUNC 24bb0 14 0 std::_List_base<google_breakpad::AppMemory, std::allocator<google_breakpad::AppMemory> >::_M_get_Node_allocator()
FUNC 24bc4 14 0 void __gnu_cxx::new_allocator<std::_List_node<google_breakpad::AppMemory> >::destroy<std::_List_node<google_breakpad::AppMemory> >(std::_List_node<google_breakpad::AppMemory>*)
FUNC 24bd8 2c 0 std::_List_base<google_breakpad::AppMemory, std::allocator<google_breakpad::AppMemory> >::_M_put_node(std::_List_node<google_breakpad::AppMemory>*)
FUNC 24c04 28 0 __gnu_cxx::new_allocator<std::_List_node<google_breakpad::AppMemory> >::deallocate(std::_List_node<google_breakpad::AppMemory>*, unsigned int)
FUNC 24c2c 38 0 std::allocator<std::_List_node<google_breakpad::AppMemory> >::~allocator()
FUNC 24c64 14 0 __gnu_cxx::new_allocator<std::_List_node<google_breakpad::AppMemory> >::~new_allocator()
FUNC 24c78 38 0 std::_List_base<google_breakpad::MappingEntry, std::allocator<google_breakpad::MappingEntry> >::~_List_base()
FUNC 24cb0 6c 0 std::_List_base<google_breakpad::MappingEntry, std::allocator<google_breakpad::MappingEntry> >::_M_clear()
FUNC 24d1c 38 0 std::_List_base<google_breakpad::MappingEntry, std::allocator<google_breakpad::MappingEntry> >::_List_impl::~_List_impl()
FUNC 24d54 14 0 std::_List_base<google_breakpad::MappingEntry, std::allocator<google_breakpad::MappingEntry> >::_M_get_Node_allocator()
FUNC 24d68 14 0 void __gnu_cxx::new_allocator<std::_List_node<google_breakpad::MappingEntry> >::destroy<std::_List_node<google_breakpad::MappingEntry> >(std::_List_node<google_breakpad::MappingEntry>*)
FUNC 24d7c 2c 0 std::_List_base<google_breakpad::MappingEntry, std::allocator<google_breakpad::MappingEntry> >::_M_put_node(std::_List_node<google_breakpad::MappingEntry>*)
FUNC 24da8 28 0 __gnu_cxx::new_allocator<std::_List_node<google_breakpad::MappingEntry> >::deallocate(std::_List_node<google_breakpad::MappingEntry>*, unsigned int)
FUNC 24dd0 38 0 std::allocator<std::_List_node<google_breakpad::MappingEntry> >::~allocator()
FUNC 24e08 14 0 __gnu_cxx::new_allocator<std::_List_node<google_breakpad::MappingEntry> >::~new_allocator()
FUNC 24e1c 40 0 sys_sigemptyset(kernel_sigset_t*)
FUNC 24e5c ac 0 sys_rt_sigaction(int, kernel_sigaction const*, kernel_sigaction*, unsigned int)
FUNC 24f08 8 0 getpagesize()
FUNC 24f10 e8 0 google_breakpad::PageAllocator::GetNPages(unsigned int)
FUNC 24ff8 c0 0 sys_mmap(void*, unsigned int, int, int, int, long long)
FUNC 250b8 d4 0 sys__mmap2(void*, unsigned int, int, int, int, long)
FUNC 2518c ac 0 sys_wait4(int, int*, int, kernel_rusage*)
FUNC 25238 70 0 google_breakpad::PageAllocator::FreeAll()
FUNC 252a8 8c 0 sys_munmap(void*, unsigned int)
FUNC 25334 6c 0 sys__gettid()
FUNC 253a0 6c 0 sys_getpid()
FUNC 2540c 38 0 std::_List_base<google_breakpad::MappingEntry, std::allocator<google_breakpad::MappingEntry> >::_List_base()
FUNC 25444 4c 0 std::_List_base<google_breakpad::MappingEntry, std::allocator<google_breakpad::MappingEntry> >::_List_impl::_List_impl()
FUNC 25490 1c 0 std::_List_base<google_breakpad::MappingEntry, std::allocator<google_breakpad::MappingEntry> >::_M_init()
FUNC 254ac 38 0 std::allocator<std::_List_node<google_breakpad::MappingEntry> >::allocator()
FUNC 254e4 14 0 __gnu_cxx::new_allocator<std::_List_node<google_breakpad::MappingEntry> >::new_allocator()
FUNC 254f8 38 0 std::_List_base<google_breakpad::AppMemory, std::allocator<google_breakpad::AppMemory> >::_List_base()
FUNC 25530 4c 0 std::_List_base<google_breakpad::AppMemory, std::allocator<google_breakpad::AppMemory> >::_List_impl::_List_impl()
FUNC 2557c 1c 0 std::_List_base<google_breakpad::AppMemory, std::allocator<google_breakpad::AppMemory> >::_M_init()
FUNC 25598 38 0 std::allocator<std::_List_node<google_breakpad::AppMemory> >::allocator()
FUNC 255d0 14 0 __gnu_cxx::new_allocator<std::_List_node<google_breakpad::AppMemory> >::new_allocator()
FUNC 255e4 30 0 std::_Vector_base<google_breakpad::ExceptionHandler*, std::allocator<google_breakpad::ExceptionHandler*> >::_Vector_base()
FUNC 25614 48 0 std::_Vector_base<google_breakpad::ExceptionHandler*, std::allocator<google_breakpad::ExceptionHandler*> >::_Vector_impl::_Vector_impl()
FUNC 2565c 38 0 std::allocator<google_breakpad::ExceptionHandler*>::allocator()
FUNC 25694 14 0 __gnu_cxx::new_allocator<google_breakpad::ExceptionHandler*>::new_allocator()
FUNC 256a8 9c 0 void std::vector<google_breakpad::ExceptionHandler*, std::allocator<google_breakpad::ExceptionHandler*> >::emplace_back<google_breakpad::ExceptionHandler*>(google_breakpad::ExceptionHandler*&&)
FUNC 25744 14 0 std::remove_reference<google_breakpad::ExceptionHandler*&>::type&& std::move<google_breakpad::ExceptionHandler*&>(google_breakpad::ExceptionHandler*&)
FUNC 25758 54 0 std::allocator_traits<std::allocator<google_breakpad::ExceptionHandler *> >::construct<google_breakpad::ExceptionHandler *, google_breakpad::ExceptionHandler *>
FUNC 257ac 14 0 google_breakpad::ExceptionHandler*&& std::forward<google_breakpad::ExceptionHandler*>(std::remove_reference<google_breakpad::ExceptionHandler*>::type&)
FUNC 257c0 184 0 void std::vector<google_breakpad::ExceptionHandler*, std::allocator<google_breakpad::ExceptionHandler*> >::_M_emplace_back_aux<google_breakpad::ExceptionHandler*>(google_breakpad::ExceptionHandler*&&)
FUNC 25944 54 0 std::allocator_traits<std::allocator<google_breakpad::ExceptionHandler *> >::_S_construct<google_breakpad::ExceptionHandler *, google_breakpad::ExceptionHandler *>
FUNC 25998 40 0 void __gnu_cxx::new_allocator<google_breakpad::ExceptionHandler*>::construct<google_breakpad::ExceptionHandler*, google_breakpad::ExceptionHandler*>(google_breakpad::ExceptionHandler**, google_breakpad::ExceptionHandler*&&)
FUNC 259d8 130 0 std::vector<google_breakpad::ExceptionHandler*, std::allocator<google_breakpad::ExceptionHandler*> >::_M_check_len(unsigned int, char const*) const
FUNC 25b08 54 0 std::_Vector_base<google_breakpad::ExceptionHandler*, std::allocator<google_breakpad::ExceptionHandler*> >::_M_allocate(unsigned int)
FUNC 25b5c 58 0 google_breakpad::ExceptionHandler** std::__uninitialized_move_if_noexcept_a<google_breakpad::ExceptionHandler**, google_breakpad::ExceptionHandler**, std::allocator<google_breakpad::ExceptionHandler*> >(google_breakpad::ExceptionHandler**, google_breakpad::ExceptionHandler**, google_breakpad::ExceptionHandler**, std::allocator<google_breakpad::ExceptionHandler*>&)
FUNC 25bb4 14 0 std::_Vector_base<google_breakpad::ExceptionHandler*, std::allocator<google_breakpad::ExceptionHandler*> >::_M_get_Tp_allocator()
FUNC 25bc8 2c 0 void std::_Destroy<google_breakpad::ExceptionHandler**, google_breakpad::ExceptionHandler*>(google_breakpad::ExceptionHandler**, google_breakpad::ExceptionHandler**, std::allocator<google_breakpad::ExceptionHandler*>&)
FUNC 25bf4 48 0 std::_Vector_base<google_breakpad::ExceptionHandler*, std::allocator<google_breakpad::ExceptionHandler*> >::_M_deallocate(google_breakpad::ExceptionHandler**, unsigned int)
FUNC 25c3c 24 0 std::vector<google_breakpad::ExceptionHandler*, std::allocator<google_breakpad::ExceptionHandler*> >::max_size() const
FUNC 25c60 44 0 unsigned int const& std::max<unsigned int>(unsigned int const&, unsigned int const&)
FUNC 25ca4 24 0 std::allocator_traits<std::allocator<google_breakpad::ExceptionHandler*> >::max_size(std::allocator<google_breakpad::ExceptionHandler*> const&)
FUNC 25cc8 14 0 std::_Vector_base<google_breakpad::ExceptionHandler*, std::allocator<google_breakpad::ExceptionHandler*> >::_M_get_Tp_allocator() const
FUNC 25cdc 24 0 unsigned int std::allocator_traits<std::allocator<google_breakpad::ExceptionHandler*> >::_S_max_size<std::allocator<google_breakpad::ExceptionHandler*> const, void>(std::allocator<google_breakpad::ExceptionHandler*> const&, int)
FUNC 25d00 1c 0 __gnu_cxx::new_allocator<google_breakpad::ExceptionHandler*>::max_size() const
FUNC 25d1c 2c 0 std::allocator_traits<std::allocator<google_breakpad::ExceptionHandler*> >::allocate(std::allocator<google_breakpad::ExceptionHandler*>&, unsigned int)
FUNC 25d48 58 0 __gnu_cxx::new_allocator<google_breakpad::ExceptionHandler*>::allocate(unsigned int, void const*)
FUNC 25da0 88 0 google_breakpad::ExceptionHandler** std::__uninitialized_copy_a<std::move_iterator<google_breakpad::ExceptionHandler**>, google_breakpad::ExceptionHandler**, google_breakpad::ExceptionHandler*>(std::move_iterator<google_breakpad::ExceptionHandler**>, std::move_iterator<google_breakpad::ExceptionHandler**>, google_breakpad::ExceptionHandler**, std::allocator<google_breakpad::ExceptionHandler*>&)
FUNC 25e28 74 0 std::move_iterator<google_breakpad::ExceptionHandler**> std::__make_move_if_noexcept_iterator<google_breakpad::ExceptionHandler**, std::move_iterator<google_breakpad::ExceptionHandler**> >(google_breakpad::ExceptionHandler**)
FUNC 25e9c 8c 0 google_breakpad::ExceptionHandler** std::uninitialized_copy<std::move_iterator<google_breakpad::ExceptionHandler**>, google_breakpad::ExceptionHandler**>(std::move_iterator<google_breakpad::ExceptionHandler**>, std::move_iterator<google_breakpad::ExceptionHandler**>, google_breakpad::ExceptionHandler**)
FUNC 25f28 84 0 google_breakpad::ExceptionHandler** std::__uninitialized_copy<true>::__uninit_copy<std::move_iterator<google_breakpad::ExceptionHandler**>, google_breakpad::ExceptionHandler**>(std::move_iterator<google_breakpad::ExceptionHandler**>, std::move_iterator<google_breakpad::ExceptionHandler**>, google_breakpad::ExceptionHandler**)
FUNC 25fac 94 0 google_breakpad::ExceptionHandler** std::copy<std::move_iterator<google_breakpad::ExceptionHandler**>, google_breakpad::ExceptionHandler**>(std::move_iterator<google_breakpad::ExceptionHandler**>, std::move_iterator<google_breakpad::ExceptionHandler**>, google_breakpad::ExceptionHandler**)
FUNC 26040 60 0 google_breakpad::ExceptionHandler** std::__copy_move_a2<true, google_breakpad::ExceptionHandler**, google_breakpad::ExceptionHandler**>(google_breakpad::ExceptionHandler**, google_breakpad::ExceptionHandler**, google_breakpad::ExceptionHandler**)
FUNC 260a0 5c 0 std::_Miter_base<std::move_iterator<google_breakpad::ExceptionHandler**> >::iterator_type std::__miter_base<std::move_iterator<google_breakpad::ExceptionHandler**> >(std::move_iterator<google_breakpad::ExceptionHandler**>)
FUNC 260fc 38 0 google_breakpad::ExceptionHandler** std::__copy_move_a<true, google_breakpad::ExceptionHandler**, google_breakpad::ExceptionHandler**>(google_breakpad::ExceptionHandler**, google_breakpad::ExceptionHandler**, google_breakpad::ExceptionHandler**)
FUNC 26134 20 0 std::_Niter_base<google_breakpad::ExceptionHandler**>::iterator_type std::__niter_base<google_breakpad::ExceptionHandler**>(google_breakpad::ExceptionHandler**)
FUNC 26154 90 0 google_breakpad::ExceptionHandler** std::__copy_move<true, true, std::random_access_iterator_tag>::__copy_m<google_breakpad::ExceptionHandler*>(google_breakpad::ExceptionHandler* const*, google_breakpad::ExceptionHandler* const*, google_breakpad::ExceptionHandler**)
FUNC 261e4 14 0 std::_Iter_base<google_breakpad::ExceptionHandler**, false>::_S_base(google_breakpad::ExceptionHandler**)
FUNC 261f8 60 0 std::_Iter_base<std::move_iterator<google_breakpad::ExceptionHandler**>, true>::_S_base(std::move_iterator<google_breakpad::ExceptionHandler**>)
FUNC 26258 18 0 std::move_iterator<google_breakpad::ExceptionHandler**>::base() const
FUNC 26270 20 0 std::move_iterator<google_breakpad::ExceptionHandler**>::move_iterator(google_breakpad::ExceptionHandler**)
FUNC 26290 28 0 void std::_Destroy<google_breakpad::ExceptionHandler**>(google_breakpad::ExceptionHandler**, google_breakpad::ExceptionHandler**)
FUNC 262b8 14 0 void std::_Destroy_aux<true>::__destroy<google_breakpad::ExceptionHandler**>(google_breakpad::ExceptionHandler**, google_breakpad::ExceptionHandler**)
FUNC 262cc 30 0 std::allocator_traits<std::allocator<google_breakpad::ExceptionHandler*> >::deallocate(std::allocator<google_breakpad::ExceptionHandler*>&, google_breakpad::ExceptionHandler**, unsigned int)
FUNC 262fc 28 0 __gnu_cxx::new_allocator<google_breakpad::ExceptionHandler*>::deallocate(google_breakpad::ExceptionHandler**, unsigned int)
FUNC 26324 24 0 __gnu_cxx::__normal_iterator<google_breakpad::ExceptionHandler**, std::vector<google_breakpad::ExceptionHandler*, std::allocator<google_breakpad::ExceptionHandler*> > >::__normal_iterator(google_breakpad::ExceptionHandler** const&)
FUNC 26348 94 0 __gnu_cxx::__normal_iterator<google_breakpad::ExceptionHandler**, std::vector<google_breakpad::ExceptionHandler*, std::allocator<google_breakpad::ExceptionHandler*> > > std::__find_if<__gnu_cxx::__normal_iterator<google_breakpad::ExceptionHandler**, std::vector<google_breakpad::ExceptionHandler*, std::allocator<google_breakpad::ExceptionHandler*> > >, __gnu_cxx::__ops::_Iter_equals_val<google_breakpad::ExceptionHandler* const> >(__gnu_cxx::__normal_iterator<google_breakpad::ExceptionHandler**, std::vector<google_breakpad::ExceptionHandler*, std::allocator<google_breakpad::ExceptionHandler*> > >, __gnu_cxx::__normal_iterator<google_breakpad::ExceptionHandler**, std::vector<google_breakpad::ExceptionHandler*, std::allocator<google_breakpad::ExceptionHandler*> > >, __gnu_cxx::__ops::_Iter_equals_val<google_breakpad::ExceptionHandler* const>)
FUNC 263dc 74 0 __gnu_cxx::__ops::_Iter_equals_val<google_breakpad::ExceptionHandler* const> __gnu_cxx::__ops::__iter_equals_val<google_breakpad::ExceptionHandler* const>(google_breakpad::ExceptionHandler* const&)
FUNC 26450 2a0 0 __gnu_cxx::__normal_iterator<google_breakpad::ExceptionHandler**, std::vector<google_breakpad::ExceptionHandler*, std::allocator<google_breakpad::ExceptionHandler*> > > std::__find_if<__gnu_cxx::__normal_iterator<google_breakpad::ExceptionHandler**, std::vector<google_breakpad::ExceptionHandler*, std::allocator<google_breakpad::ExceptionHandler*> > >, __gnu_cxx::__ops::_Iter_equals_val<google_breakpad::ExceptionHandler* const> >(__gnu_cxx::__normal_iterator<google_breakpad::ExceptionHandler**, std::vector<google_breakpad::ExceptionHandler*, std::allocator<google_breakpad::ExceptionHandler*> > >, __gnu_cxx::__normal_iterator<google_breakpad::ExceptionHandler**, std::vector<google_breakpad::ExceptionHandler*, std::allocator<google_breakpad::ExceptionHandler*> > >, __gnu_cxx::__ops::_Iter_equals_val<google_breakpad::ExceptionHandler* const>, std::random_access_iterator_tag)
FUNC 266f0 10 0 std::iterator_traits<__gnu_cxx::__normal_iterator<google_breakpad::ExceptionHandler**, std::vector<google_breakpad::ExceptionHandler*, std::allocator<google_breakpad::ExceptionHandler*> > > >::iterator_category std::__iterator_category<__gnu_cxx::__normal_iterator<google_breakpad::ExceptionHandler**, std::vector<google_breakpad::ExceptionHandler*, std::allocator<google_breakpad::ExceptionHandler*> > > >(__gnu_cxx::__normal_iterator<google_breakpad::ExceptionHandler**, std::vector<google_breakpad::ExceptionHandler*, std::allocator<google_breakpad::ExceptionHandler*> > > const&)
FUNC 26700 58 0 __gnu_cxx::__normal_iterator<google_breakpad::ExceptionHandler**, std::vector<google_breakpad::ExceptionHandler*, std::allocator<google_breakpad::ExceptionHandler*> > >::difference_type __gnu_cxx::operator-<google_breakpad::ExceptionHandler**, std::vector<google_breakpad::ExceptionHandler*, std::allocator<google_breakpad::ExceptionHandler*> > >(__gnu_cxx::__normal_iterator<google_breakpad::ExceptionHandler**, std::vector<google_breakpad::ExceptionHandler*, std::allocator<google_breakpad::ExceptionHandler*> > > const&, __gnu_cxx::__normal_iterator<google_breakpad::ExceptionHandler**, std::vector<google_breakpad::ExceptionHandler*, std::allocator<google_breakpad::ExceptionHandler*> > > const&)
FUNC 26758 8c 0 bool __gnu_cxx::__ops::_Iter_equals_val<google_breakpad::ExceptionHandler* const>::operator()<__gnu_cxx::__normal_iterator<google_breakpad::ExceptionHandler**, std::vector<google_breakpad::ExceptionHandler*, std::allocator<google_breakpad::ExceptionHandler*> > > >(__gnu_cxx::__normal_iterator<google_breakpad::ExceptionHandler**, std::vector<google_breakpad::ExceptionHandler*, std::allocator<google_breakpad::ExceptionHandler*> > >)
FUNC 267e4 20 0 __gnu_cxx::__normal_iterator<google_breakpad::ExceptionHandler**, std::vector<google_breakpad::ExceptionHandler*, std::allocator<google_breakpad::ExceptionHandler*> > >::operator++()
FUNC 26804 14 0 __gnu_cxx::__normal_iterator<google_breakpad::ExceptionHandler**, std::vector<google_breakpad::ExceptionHandler*, std::allocator<google_breakpad::ExceptionHandler*> > >::base() const
FUNC 26818 18 0 __gnu_cxx::__normal_iterator<google_breakpad::ExceptionHandler**, std::vector<google_breakpad::ExceptionHandler*, std::allocator<google_breakpad::ExceptionHandler*> > >::operator*() const
FUNC 26830 20 0 __gnu_cxx::__ops::_Iter_equals_val<google_breakpad::ExceptionHandler* const>::_Iter_equals_val(google_breakpad::ExceptionHandler* const&)
FUNC 26850 118 0 std::vector<google_breakpad::ExceptionHandler*, std::allocator<google_breakpad::ExceptionHandler*> >::_M_erase(__gnu_cxx::__normal_iterator<google_breakpad::ExceptionHandler**, std::vector<google_breakpad::ExceptionHandler*, std::allocator<google_breakpad::ExceptionHandler*> > >)
FUNC 26968 94 0 __gnu_cxx::__normal_iterator<google_breakpad::ExceptionHandler**, std::vector<google_breakpad::ExceptionHandler*, std::allocator<google_breakpad::ExceptionHandler*> > >::operator+(int) const
FUNC 269fc 58 0 __gnu_cxx::__normal_iterator<google_breakpad::ExceptionHandler* const*, std::vector<google_breakpad::ExceptionHandler*, std::allocator<google_breakpad::ExceptionHandler*> > >::difference_type __gnu_cxx::operator-<google_breakpad::ExceptionHandler* const*, std::vector<google_breakpad::ExceptionHandler*, std::allocator<google_breakpad::ExceptionHandler*> > >(__gnu_cxx::__normal_iterator<google_breakpad::ExceptionHandler* const*, std::vector<google_breakpad::ExceptionHandler*, std::allocator<google_breakpad::ExceptionHandler*> > > const&, __gnu_cxx::__normal_iterator<google_breakpad::ExceptionHandler* const*, std::vector<google_breakpad::ExceptionHandler*, std::allocator<google_breakpad::ExceptionHandler*> > > const&)
FUNC 26a54 7c 0 std::vector<google_breakpad::ExceptionHandler*, std::allocator<google_breakpad::ExceptionHandler*> >::cbegin() const
FUNC 26ad0 50 0 bool __gnu_cxx::operator!=<google_breakpad::ExceptionHandler**, std::vector<google_breakpad::ExceptionHandler*, std::allocator<google_breakpad::ExceptionHandler*> > >(__gnu_cxx::__normal_iterator<google_breakpad::ExceptionHandler**, std::vector<google_breakpad::ExceptionHandler*, std::allocator<google_breakpad::ExceptionHandler*> > > const&, __gnu_cxx::__normal_iterator<google_breakpad::ExceptionHandler**, std::vector<google_breakpad::ExceptionHandler*, std::allocator<google_breakpad::ExceptionHandler*> > > const&)
FUNC 26b20 a8 0 __gnu_cxx::__normal_iterator<google_breakpad::ExceptionHandler**, std::vector<google_breakpad::ExceptionHandler*, std::allocator<google_breakpad::ExceptionHandler*> > > std::move<__gnu_cxx::__normal_iterator<google_breakpad::ExceptionHandler**, std::vector<google_breakpad::ExceptionHandler*, std::allocator<google_breakpad::ExceptionHandler*> > >, __gnu_cxx::__normal_iterator<google_breakpad::ExceptionHandler**, std::vector<google_breakpad::ExceptionHandler*, std::allocator<google_breakpad::ExceptionHandler*> > > >(__gnu_cxx::__normal_iterator<google_breakpad::ExceptionHandler**, std::vector<google_breakpad::ExceptionHandler*, std::allocator<google_breakpad::ExceptionHandler*> > >, __gnu_cxx::__normal_iterator<google_breakpad::ExceptionHandler**, std::vector<google_breakpad::ExceptionHandler*, std::allocator<google_breakpad::ExceptionHandler*> > >, __gnu_cxx::__normal_iterator<google_breakpad::ExceptionHandler**, std::vector<google_breakpad::ExceptionHandler*, std::allocator<google_breakpad::ExceptionHandler*> > >)
FUNC 26bc8 28 0 void std::allocator_traits<std::allocator<google_breakpad::ExceptionHandler*> >::destroy<google_breakpad::ExceptionHandler*>(std::allocator<google_breakpad::ExceptionHandler*>&, google_breakpad::ExceptionHandler**)
FUNC 26bf0 c8 0 __gnu_cxx::__normal_iterator<google_breakpad::ExceptionHandler**, std::vector<google_breakpad::ExceptionHandler*, std::allocator<google_breakpad::ExceptionHandler*> > > std::__copy_move_a2<true, __gnu_cxx::__normal_iterator<google_breakpad::ExceptionHandler**, std::vector<google_breakpad::ExceptionHandler*, std::allocator<google_breakpad::ExceptionHandler*> > >, __gnu_cxx::__normal_iterator<google_breakpad::ExceptionHandler**, std::vector<google_breakpad::ExceptionHandler*, std::allocator<google_breakpad::ExceptionHandler*> > > >(__gnu_cxx::__normal_iterator<google_breakpad::ExceptionHandler**, std::vector<google_breakpad::ExceptionHandler*, std::allocator<google_breakpad::ExceptionHandler*> > >, __gnu_cxx::__normal_iterator<google_breakpad::ExceptionHandler**, std::vector<google_breakpad::ExceptionHandler*, std::allocator<google_breakpad::ExceptionHandler*> > >, __gnu_cxx::__normal_iterator<google_breakpad::ExceptionHandler**, std::vector<google_breakpad::ExceptionHandler*, std::allocator<google_breakpad::ExceptionHandler*> > >)
FUNC 26cb8 64 0 std::_Miter_base<__gnu_cxx::__normal_iterator<google_breakpad::ExceptionHandler**, std::vector<google_breakpad::ExceptionHandler*, std::allocator<google_breakpad::ExceptionHandler*> > > >::iterator_type std::__miter_base<__gnu_cxx::__normal_iterator<google_breakpad::ExceptionHandler**, std::vector<google_breakpad::ExceptionHandler*, std::allocator<google_breakpad::ExceptionHandler*> > > >(__gnu_cxx::__normal_iterator<google_breakpad::ExceptionHandler**, std::vector<google_breakpad::ExceptionHandler*, std::allocator<google_breakpad::ExceptionHandler*> > >)
FUNC 26d1c 5c 0 std::_Niter_base<__gnu_cxx::__normal_iterator<google_breakpad::ExceptionHandler**, std::vector<google_breakpad::ExceptionHandler*, std::allocator<google_breakpad::ExceptionHandler*> > > >::iterator_type std::__niter_base<__gnu_cxx::__normal_iterator<google_breakpad::ExceptionHandler**, std::vector<google_breakpad::ExceptionHandler*, std::allocator<google_breakpad::ExceptionHandler*> > > >(__gnu_cxx::__normal_iterator<google_breakpad::ExceptionHandler**, std::vector<google_breakpad::ExceptionHandler*, std::allocator<google_breakpad::ExceptionHandler*> > >)
FUNC 26d78 64 0 std::_Iter_base<__gnu_cxx::__normal_iterator<google_breakpad::ExceptionHandler**, std::vector<google_breakpad::ExceptionHandler*, std::allocator<google_breakpad::ExceptionHandler*> > >, true>::_S_base(__gnu_cxx::__normal_iterator<google_breakpad::ExceptionHandler**, std::vector<google_breakpad::ExceptionHandler*, std::allocator<google_breakpad::ExceptionHandler*> > >)
FUNC 26ddc 60 0 std::_Iter_base<__gnu_cxx::__normal_iterator<google_breakpad::ExceptionHandler**, std::vector<google_breakpad::ExceptionHandler*, std::allocator<google_breakpad::ExceptionHandler*> > >, false>::_S_base(__gnu_cxx::__normal_iterator<google_breakpad::ExceptionHandler**, std::vector<google_breakpad::ExceptionHandler*, std::allocator<google_breakpad::ExceptionHandler*> > >)
FUNC 26e3c 28 0 std::allocator_traits<std::allocator<google_breakpad::ExceptionHandler *> >::_S_destroy<google_breakpad::ExceptionHandler *>
FUNC 26e64 14 0 void __gnu_cxx::new_allocator<google_breakpad::ExceptionHandler*>::destroy<google_breakpad::ExceptionHandler*>(google_breakpad::ExceptionHandler**)
FUNC 26e78 14 0 __gnu_cxx::__normal_iterator<google_breakpad::ExceptionHandler* const*, std::vector<google_breakpad::ExceptionHandler*, std::allocator<google_breakpad::ExceptionHandler*> > >::base() const
FUNC 26e8c 24 0 __gnu_cxx::__normal_iterator<google_breakpad::ExceptionHandler* const*, std::vector<google_breakpad::ExceptionHandler*, std::allocator<google_breakpad::ExceptionHandler*> > >::__normal_iterator(google_breakpad::ExceptionHandler* const* const&)
FUNC 26eb0 50 0 bool __gnu_cxx::operator==<google_breakpad::ExceptionHandler* const*, std::vector<google_breakpad::ExceptionHandler*, std::allocator<google_breakpad::ExceptionHandler*> > >(__gnu_cxx::__normal_iterator<google_breakpad::ExceptionHandler* const*, std::vector<google_breakpad::ExceptionHandler*, std::allocator<google_breakpad::ExceptionHandler*> > > const&, __gnu_cxx::__normal_iterator<google_breakpad::ExceptionHandler* const*, std::vector<google_breakpad::ExceptionHandler*, std::allocator<google_breakpad::ExceptionHandler*> > > const&)
FUNC 26f00 7c 0 std::vector<google_breakpad::ExceptionHandler*, std::allocator<google_breakpad::ExceptionHandler*> >::begin() const
FUNC 26f7c 7c 0 std::vector<google_breakpad::ExceptionHandler*, std::allocator<google_breakpad::ExceptionHandler*> >::end() const
FUNC 26ff8 78 0 std::_Vector_base<google_breakpad::ExceptionHandler*, std::allocator<google_breakpad::ExceptionHandler*> >::~_Vector_base()
FUNC 27070 38 0 std::_Vector_base<google_breakpad::ExceptionHandler*, std::allocator<google_breakpad::ExceptionHandler*> >::_Vector_impl::~_Vector_impl()
FUNC 270a8 38 0 std::allocator<google_breakpad::ExceptionHandler*>::~allocator()
FUNC 270e0 14 0 __gnu_cxx::new_allocator<google_breakpad::ExceptionHandler*>::~new_allocator()
FUNC 270f4 58 0 void std::list<google_breakpad::MappingEntry, std::allocator<google_breakpad::MappingEntry> >::_M_insert<google_breakpad::MappingEntry const&>(std::_List_iterator<google_breakpad::MappingEntry>, google_breakpad::MappingEntry const&)
FUNC 2714c 74 0 std::list<google_breakpad::MappingEntry, std::allocator<google_breakpad::MappingEntry> >::end()
FUNC 271c0 70 0 std::_List_node<google_breakpad::MappingEntry>* std::list<google_breakpad::MappingEntry, std::allocator<google_breakpad::MappingEntry> >::_M_create_node<google_breakpad::MappingEntry const&>(google_breakpad::MappingEntry const&)
FUNC 27230 14 0 google_breakpad::MappingEntry const& std::forward<google_breakpad::MappingEntry const&>(std::remove_reference<google_breakpad::MappingEntry const&>::type&)
FUNC 27244 28 0 std::_List_base<google_breakpad::MappingEntry, std::allocator<google_breakpad::MappingEntry> >::_M_get_node()
FUNC 2726c 4c 0 void __gnu_cxx::new_allocator<std::_List_node<google_breakpad::MappingEntry> >::construct<std::_List_node<google_breakpad::MappingEntry>, google_breakpad::MappingEntry const&>(std::_List_node<google_breakpad::MappingEntry>*, google_breakpad::MappingEntry const&)
FUNC 272b8 50 0 __gnu_cxx::new_allocator<std::_List_node<google_breakpad::MappingEntry> >::allocate(unsigned int, void const*)
FUNC 27308 1c 0 __gnu_cxx::new_allocator<std::_List_node<google_breakpad::MappingEntry> >::max_size() const
FUNC 27324 70 0 std::_List_node<google_breakpad::MappingEntry>::_List_node<google_breakpad::MappingEntry const&>(google_breakpad::MappingEntry const&)
FUNC 27394 20 0 std::_List_iterator<google_breakpad::MappingEntry>::_List_iterator(std::__detail::_List_node_base*)
FUNC 273b4 20 0 std::_List_iterator<google_breakpad::AppMemory>::_List_iterator(std::__detail::_List_node_base*)
FUNC 273d4 94 0 std::_List_iterator<google_breakpad::AppMemory> std::__find_if<std::_List_iterator<google_breakpad::AppMemory>, __gnu_cxx::__ops::_Iter_equals_val<void* const> >(std::_List_iterator<google_breakpad::AppMemory>, std::_List_iterator<google_breakpad::AppMemory>, __gnu_cxx::__ops::_Iter_equals_val<void* const>)
FUNC 27468 74 0 __gnu_cxx::__ops::_Iter_equals_val<void* const> __gnu_cxx::__ops::__iter_equals_val<void* const>(void* const&)
FUNC 274dc c8 0 std::_List_iterator<google_breakpad::AppMemory> std::__find_if<std::_List_iterator<google_breakpad::AppMemory>, __gnu_cxx::__ops::_Iter_equals_val<void* const> >(std::_List_iterator<google_breakpad::AppMemory>, std::_List_iterator<google_breakpad::AppMemory>, __gnu_cxx::__ops::_Iter_equals_val<void* const>, std::input_iterator_tag)
FUNC 275a4 10 0 std::iterator_traits<std::_List_iterator<google_breakpad::AppMemory> >::iterator_category std::__iterator_category<std::_List_iterator<google_breakpad::AppMemory> >(std::_List_iterator<google_breakpad::AppMemory> const&)
FUNC 275b4 80 0 bool __gnu_cxx::__ops::_Iter_equals_val<void* const>::operator()<std::_List_iterator<google_breakpad::AppMemory> >(std::_List_iterator<google_breakpad::AppMemory>)
FUNC 27634 20 0 std::_List_iterator<google_breakpad::AppMemory>::operator++()
FUNC 27654 1c 0 std::_List_iterator<google_breakpad::AppMemory>::operator*() const
FUNC 27670 30 0 google_breakpad::AppMemory::operator==(void const*) const
FUNC 276a0 20 0 __gnu_cxx::__ops::_Iter_equals_val<void* const>::_Iter_equals_val(void* const&)
FUNC 276c0 58 0 void std::list<google_breakpad::AppMemory, std::allocator<google_breakpad::AppMemory> >::_M_insert<google_breakpad::AppMemory const&>(std::_List_iterator<google_breakpad::AppMemory>, google_breakpad::AppMemory const&)
FUNC 27718 70 0 std::_List_node<google_breakpad::AppMemory>* std::list<google_breakpad::AppMemory, std::allocator<google_breakpad::AppMemory> >::_M_create_node<google_breakpad::AppMemory const&>(google_breakpad::AppMemory const&)
FUNC 27788 14 0 google_breakpad::AppMemory const& std::forward<google_breakpad::AppMemory const&>(std::remove_reference<google_breakpad::AppMemory const&>::type&)
FUNC 2779c 28 0 std::_List_base<google_breakpad::AppMemory, std::allocator<google_breakpad::AppMemory> >::_M_get_node()
FUNC 277c4 4c 0 void __gnu_cxx::new_allocator<std::_List_node<google_breakpad::AppMemory> >::construct<std::_List_node<google_breakpad::AppMemory>, google_breakpad::AppMemory const&>(std::_List_node<google_breakpad::AppMemory>*, google_breakpad::AppMemory const&)
FUNC 27810 58 0 __gnu_cxx::new_allocator<std::_List_node<google_breakpad::AppMemory> >::allocate(unsigned int, void const*)
FUNC 27868 1c 0 __gnu_cxx::new_allocator<std::_List_node<google_breakpad::AppMemory> >::max_size() const
FUNC 27884 60 0 std::_List_node<google_breakpad::AppMemory>::_List_node<google_breakpad::AppMemory const&>(google_breakpad::AppMemory const&)
FUNC 278e4 54 0 std::list<google_breakpad::AppMemory, std::allocator<google_breakpad::AppMemory> >::_M_erase(std::_List_iterator<google_breakpad::AppMemory>)
FUNC 27938 78 0 std::_List_const_iterator<google_breakpad::AppMemory>::_M_const_cast() const
FUNC 279b0 ec 0 google_breakpad::MinidumpDescriptor::MinidumpDescriptor(google_breakpad::MinidumpDescriptor const&)
FUNC 27a9c 100 0 google_breakpad::MinidumpDescriptor::operator=(google_breakpad::MinidumpDescriptor const&)
FUNC 27b9c 1b0 0 google_breakpad::MinidumpDescriptor::UpdatePath()
FUNC 27d4c 50 0 std::basic_string<char, std::char_traits<char>, std::allocator<char> > std::operator+<char, std::char_traits<char>, std::allocator<char> >(std::basic_string<char, std::char_traits<char>, std::allocator<char> >&&, char const*)
FUNC 27d9c 70 0 std::basic_string<char, std::char_traits<char>, std::allocator<char> > std::operator+<char, std::char_traits<char>, std::allocator<char> >(std::basic_string<char, std::char_traits<char>, std::allocator<char> > const&, char const*)
FUNC 27e0c 14 0 std::remove_reference<std::string&>::type&& std::move<std::string&>(std::string&)
FUNC 27e20 60 0 logger::initializeCrashLogWriter()
FUNC 27e80 94 0 logger::writeToCrashLog(char const*)
FUNC 27f14 44 0 logger::write(char const*, unsigned int)
FUNC 27f58 188 0 google_breakpad::WriteMicrodump(int, void const*, unsigned int, std::list<google_breakpad::MappingEntry, std::allocator<google_breakpad::MappingEntry> > const&, google_breakpad::MicrodumpExtraInfo const&)
FUNC 280e0 20 0 google_breakpad::LinuxDumper::set_crash_address(unsigned int)
FUNC 28100 20 0 google_breakpad::LinuxDumper::set_crash_signal(int)
FUNC 28120 20 0 google_breakpad::LinuxDumper::set_crash_thread(int)
FUNC 28140 fc 0 (anonymous namespace)::MicrodumpWriter::MicrodumpWriter(google_breakpad::ExceptionHandler::CrashContext const*, std::list<google_breakpad::MappingEntry, std::allocator<google_breakpad::MappingEntry> > const&, google_breakpad::MicrodumpExtraInfo const&, google_breakpad::LinuxDumper*)
FUNC 2823c b8 0 (anonymous namespace)::MicrodumpWriter::Init()
FUNC 282f4 c4 0 (anonymous namespace)::MicrodumpWriter::Dump()
FUNC 283b8 40 0 (anonymous namespace)::MicrodumpWriter::~MicrodumpWriter()
FUNC 283f8 38 0 google_breakpad::LinuxPtraceDumper::~LinuxPtraceDumper()
FUNC 28430 30 0 (anonymous namespace)::MicrodumpWriter::Alloc(unsigned int)
FUNC 28460 18 0 google_breakpad::LinuxDumper::allocator()
FUNC 28478 c0 0 sys_mmap(void*, unsigned int, int, int, int, long long)
FUNC 28538 d4 0 sys__mmap2(void*, unsigned int, int, int, int, long)
FUNC 2860c 278 0 (anonymous namespace)::MicrodumpWriter::CaptureCrashingThreadStack(int)
FUNC 28884 28 0 (anonymous namespace)::MicrodumpWriter::LogLine(char const*)
FUNC 288ac 70 0 (anonymous namespace)::MicrodumpWriter::DumpProductInformation()
FUNC 2891c 1e4 0 (anonymous namespace)::MicrodumpWriter::DumpOSInformation()
FUNC 28b00 70 0 (anonymous namespace)::MicrodumpWriter::DumpProcessType()
FUNC 28b70 70 0 (anonymous namespace)::MicrodumpWriter::DumpGPUInformation()
FUNC 28be0 4c4 0 (anonymous namespace)::MicrodumpWriter::DumpFreeSpace()
FUNC 290a4 170 0 (anonymous namespace)::MicrodumpWriter::DumpThreadStack()
FUNC 29214 b4 0 (anonymous namespace)::MicrodumpWriter::DumpCPUState()
FUNC 292c8 1cc 0 (anonymous namespace)::MicrodumpWriter::DumpMappings()
FUNC 29494 18 0 google_breakpad::LinuxDumper::crash_thread() const
FUNC 294ac 34 0 (anonymous namespace)::MicrodumpWriter::LogAppend(char const*)
FUNC 294e0 38 0 (anonymous namespace)::MicrodumpWriter::LogCommitLine()
FUNC 29518 d4 0 void (anonymous namespace)::MicrodumpWriter::LogAppend<unsigned char>(unsigned char)
FUNC 295ec 28 0 (anonymous namespace)::MicrodumpWriter::LogAppend(char*)
FUNC 29614 18 0 google_breakpad::LinuxDumper::mappings()
FUNC 2962c 3c 0 std::vector<google_breakpad::MappingInfo*, google_breakpad::PageStdAllocator<google_breakpad::MappingInfo*> >::size() const
FUNC 29668 30 0 std::vector<google_breakpad::MappingInfo*, google_breakpad::PageStdAllocator<google_breakpad::MappingInfo*> >::operator[](unsigned int) const
FUNC 29698 68 0 (anonymous namespace)::MappingsAreAdjacent(google_breakpad::MappingInfo const&, google_breakpad::MappingInfo const&)
FUNC 29700 f8 0 (anonymous namespace)::NextOrderedMapping(google_breakpad::wasteful_vector<google_breakpad::MappingInfo*> const&, unsigned int)
FUNC 297f8 8 0 std::numeric_limits<unsigned int>::max()
FUNC 29800 148 0 (anonymous namespace)::Log2Floor(unsigned long long)
FUNC 29948 d8 0 void (anonymous namespace)::MicrodumpWriter::LogAppend<unsigned int>(unsigned int)
FUNC 29a20 d8 0 void (anonymous namespace)::MicrodumpWriter::LogAppend<unsigned short>(unsigned short)
FUNC 29af8 74 0 unsigned short (anonymous namespace)::saturated_cast<unsigned short, unsigned int>(unsigned int)
FUNC 29b6c 74 0 unsigned char (anonymous namespace)::saturated_cast<unsigned char, unsigned int>(unsigned int)
FUNC 29be0 4c 0 (anonymous namespace)::MappingLessThan(google_breakpad::MappingInfo const*, google_breakpad::MappingInfo const*)
FUNC 29c2c c 0 std::numeric_limits<unsigned short>::max()
FUNC 29c38 c 0 std::numeric_limits<unsigned short>::min()
FUNC 29c44 c 0 std::numeric_limits<unsigned char>::max()
FUNC 29c50 c 0 std::numeric_limits<unsigned char>::min()
FUNC 29c5c 80 0 (anonymous namespace)::MicrodumpWriter::LogAppend(void const*, unsigned int)
FUNC 29cdc 44 0 unsigned int const& std::min<unsigned int>(unsigned int const&, unsigned int const&)
FUNC 29d20 144 0 (anonymous namespace)::MicrodumpWriter::HaveMappingInfo(google_breakpad::MappingInfo const&)
FUNC 29e64 340 0 (anonymous namespace)::MicrodumpWriter::DumpModule(google_breakpad::MappingInfo const&, bool, unsigned int, unsigned char const*)
FUNC 2a1a4 78 0 std::list<google_breakpad::MappingEntry, std::allocator<google_breakpad::MappingEntry> >::begin() const
FUNC 2a21c 34 0 std::_List_const_iterator<google_breakpad::MappingEntry>::operator!=(std::_List_const_iterator<google_breakpad::MappingEntry> const&) const
FUNC 2a250 74 0 std::list<google_breakpad::MappingEntry, std::allocator<google_breakpad::MappingEntry> >::end() const
FUNC 2a2c4 28 0 std::_List_const_iterator<google_breakpad::MappingEntry>::operator->() const
FUNC 2a2ec 20 0 std::_List_const_iterator<google_breakpad::MappingEntry>::operator++()
FUNC 2a30c bc 0 google_breakpad::auto_wasteful_vector<unsigned char, 20u>::auto_wasteful_vector(google_breakpad::PageAllocator*)
FUNC 2a3c8 e4 0 __gnu_cxx::__normal_iterator<unsigned char*, std::vector<unsigned char, google_breakpad::PageStdAllocator<unsigned char> > > std::vector<unsigned char, google_breakpad::PageStdAllocator<unsigned char> >::insert<unsigned char const*, void>(__gnu_cxx::__normal_iterator<unsigned char const*, std::vector<unsigned char, google_breakpad::PageStdAllocator<unsigned char> > >, unsigned char const*, unsigned char const*)
FUNC 2a4ac 78 0 std::vector<unsigned char, google_breakpad::PageStdAllocator<unsigned char> >::end()
FUNC 2a524 40 0 __gnu_cxx::__normal_iterator<const unsigned char *, std::vector<unsigned char, google_breakpad::PageStdAllocator<unsigned char> > >::__normal_iterator<unsigned char *>
FUNC 2a564 24 0 std::vector<unsigned char, google_breakpad::PageStdAllocator<unsigned char> >::operator[](unsigned int)
FUNC 2a588 20 0 std::vector<unsigned char, google_breakpad::PageStdAllocator<unsigned char> >::size() const
FUNC 2a5a8 38 0 google_breakpad::auto_wasteful_vector<unsigned char, 20u>::~auto_wasteful_vector()
FUNC 2a5e0 5c 0 google_breakpad::PageStdAllocator<unsigned char>::PageStdAllocator(google_breakpad::PageAllocator&, unsigned char*, unsigned int)
FUNC 2a63c 38 0 google_breakpad::wasteful_vector<unsigned char>::wasteful_vector(google_breakpad::PageStdAllocator<unsigned char>)
FUNC 2a674 38 0 google_breakpad::PageStdAllocator<unsigned char>::~PageStdAllocator()
FUNC 2a6ac 13c 0 std::vector<unsigned char, google_breakpad::PageStdAllocator<unsigned char> >::reserve(unsigned int)
FUNC 2a7e8 38 0 std::allocator<unsigned char>::allocator()
FUNC 2a820 14 0 __gnu_cxx::new_allocator<unsigned char>::new_allocator()
FUNC 2a834 44 0 std::vector<unsigned char, google_breakpad::PageStdAllocator<unsigned char> >::vector(google_breakpad::PageStdAllocator<unsigned char> const&)
FUNC 2a878 38 0 std::_Vector_base<unsigned char, google_breakpad::PageStdAllocator<unsigned char> >::_Vector_base(google_breakpad::PageStdAllocator<unsigned char> const&)
FUNC 2a8b0 54 0 std::_Vector_base<unsigned char, google_breakpad::PageStdAllocator<unsigned char> >::_Vector_impl::_Vector_impl(google_breakpad::PageStdAllocator<unsigned char> const&)
FUNC 2a904 60 0 google_breakpad::PageStdAllocator<unsigned char>::PageStdAllocator(google_breakpad::PageStdAllocator<unsigned char> const&)
FUNC 2a964 44 0 std::allocator<unsigned char>::allocator(std::allocator<unsigned char> const&)
FUNC 2a9a8 18 0 __gnu_cxx::new_allocator<unsigned char>::new_allocator(__gnu_cxx::new_allocator<unsigned char> const&)
FUNC 2a9c0 38 0 std::allocator<unsigned char>::~allocator()
FUNC 2a9f8 14 0 __gnu_cxx::new_allocator<unsigned char>::~new_allocator()
FUNC 2aa0c 24 0 std::vector<unsigned char, google_breakpad::PageStdAllocator<unsigned char> >::max_size() const
FUNC 2aa30 20 0 std::vector<unsigned char, google_breakpad::PageStdAllocator<unsigned char> >::capacity() const
FUNC 2aa50 b8 0 unsigned char* std::vector<unsigned char, google_breakpad::PageStdAllocator<unsigned char> >::_M_allocate_and_copy<std::move_iterator<unsigned char*> >(unsigned int, std::move_iterator<unsigned char*>, std::move_iterator<unsigned char*>)
FUNC 2ab08 74 0 std::move_iterator<unsigned char*> std::__make_move_if_noexcept_iterator<unsigned char*, std::move_iterator<unsigned char*> >(unsigned char*)
FUNC 2ab7c 68 0 void std::_Destroy<unsigned char*, google_breakpad::PageStdAllocator<unsigned char> >(unsigned char*, unsigned char*, google_breakpad::PageStdAllocator<unsigned char>&)
FUNC 2abe4 14 0 std::_Vector_base<unsigned char, google_breakpad::PageStdAllocator<unsigned char> >::_M_get_Tp_allocator()
FUNC 2abf8 48 0 std::_Vector_base<unsigned char, google_breakpad::PageStdAllocator<unsigned char> >::_M_deallocate(unsigned char*, unsigned int)
FUNC 2ac40 24 0 std::allocator_traits<google_breakpad::PageStdAllocator<unsigned char> >::max_size(google_breakpad::PageStdAllocator<unsigned char> const&)
FUNC 2ac64 14 0 std::_Vector_base<unsigned char, google_breakpad::PageStdAllocator<unsigned char> >::_M_get_Tp_allocator() const
FUNC 2ac78 24 0 unsigned int std::allocator_traits<google_breakpad::PageStdAllocator<unsigned char> >::_S_max_size<google_breakpad::PageStdAllocator<unsigned char> const, void>(google_breakpad::PageStdAllocator<unsigned char> const&, int)
FUNC 2ac9c 18 0 __gnu_cxx::new_allocator<unsigned char>::max_size() const
FUNC 2acb4 54 0 std::_Vector_base<unsigned char, google_breakpad::PageStdAllocator<unsigned char> >::_M_allocate(unsigned int)
FUNC 2ad08 d8 0 unsigned char* std::__uninitialized_copy_a<std::move_iterator<unsigned char*>, unsigned char*, google_breakpad::PageStdAllocator<unsigned char> >(std::move_iterator<unsigned char*>, std::move_iterator<unsigned char*>, unsigned char*, google_breakpad::PageStdAllocator<unsigned char>&)
FUNC 2ade0 2c 0 std::allocator_traits<google_breakpad::PageStdAllocator<unsigned char> >::allocate(google_breakpad::PageStdAllocator<unsigned char>&, unsigned int)
FUNC 2ae0c 78 0 google_breakpad::PageStdAllocator<unsigned char>::allocate(unsigned int, void const*)
FUNC 2ae84 34 0 bool std::operator!=<unsigned char*>(std::move_iterator<unsigned char*> const&, std::move_iterator<unsigned char*> const&)
FUNC 2aeb8 54 0 std::allocator_traits<google_breakpad::PageStdAllocator<unsigned char> >::construct<unsigned char, unsigned char>
FUNC 2af0c 14 0 unsigned char* std::__addressof<unsigned char>(unsigned char&)
FUNC 2af20 24 0 std::move_iterator<unsigned char*>::operator*() const
FUNC 2af44 20 0 std::move_iterator<unsigned char*>::operator++()
FUNC 2af64 48 0 bool std::operator==<unsigned char*>(std::move_iterator<unsigned char*> const&, std::move_iterator<unsigned char*> const&)
FUNC 2afac 18 0 std::move_iterator<unsigned char*>::base() const
FUNC 2afc4 54 0 std::allocator_traits<google_breakpad::PageStdAllocator<unsigned char> >::_S_construct<unsigned char, unsigned char>
FUNC 2b018 14 0 unsigned char&& std::forward<unsigned char>(std::remove_reference<unsigned char>::type&)
FUNC 2b02c 40 0 void __gnu_cxx::new_allocator<unsigned char>::construct<unsigned char, unsigned char>(unsigned char*, unsigned char&&)
FUNC 2b06c 14 0 std::remove_reference<unsigned char&>::type&& std::move<unsigned char&>(unsigned char&)
FUNC 2b080 20 0 std::move_iterator<unsigned char*>::move_iterator(unsigned char*)
FUNC 2b0a0 28 0 void std::allocator_traits<google_breakpad::PageStdAllocator<unsigned char> >::destroy<unsigned char>(google_breakpad::PageStdAllocator<unsigned char>&, unsigned char*)
FUNC 2b0c8 28 0 std::allocator_traits<google_breakpad::PageStdAllocator<unsigned char> >::_S_destroy<unsigned char>
FUNC 2b0f0 14 0 void __gnu_cxx::new_allocator<unsigned char>::destroy<unsigned char>(unsigned char*)
FUNC 2b104 30 0 std::allocator_traits<google_breakpad::PageStdAllocator<unsigned char> >::deallocate(google_breakpad::PageStdAllocator<unsigned char>&, unsigned char*, unsigned int)
FUNC 2b134 18 0 google_breakpad::PageStdAllocator<unsigned char>::deallocate(unsigned char*, unsigned int)
FUNC 2b14c 44 0 __gnu_cxx::__normal_iterator<unsigned char const*, std::vector<unsigned char, google_breakpad::PageStdAllocator<unsigned char> > >::difference_type __gnu_cxx::operator-<unsigned char const*, std::vector<unsigned char, google_breakpad::PageStdAllocator<unsigned char> > >(__gnu_cxx::__normal_iterator<unsigned char const*, std::vector<unsigned char, google_breakpad::PageStdAllocator<unsigned char> > > const&, __gnu_cxx::__normal_iterator<unsigned char const*, std::vector<unsigned char, google_breakpad::PageStdAllocator<unsigned char> > > const&)
FUNC 2b190 7c 0 std::vector<unsigned char, google_breakpad::PageStdAllocator<unsigned char> >::cbegin() const
FUNC 2b20c 70 0 void std::vector<unsigned char, google_breakpad::PageStdAllocator<unsigned char> >::_M_insert_dispatch<unsigned char const*>(__gnu_cxx::__normal_iterator<unsigned char*, std::vector<unsigned char, google_breakpad::PageStdAllocator<unsigned char> > >, unsigned char const*, unsigned char const*, std::__false_type)
FUNC 2b27c 78 0 std::vector<unsigned char, google_breakpad::PageStdAllocator<unsigned char> >::begin()
FUNC 2b2f4 88 0 __gnu_cxx::__normal_iterator<unsigned char*, std::vector<unsigned char, google_breakpad::PageStdAllocator<unsigned char> > >::operator+(int) const
FUNC 2b37c 14 0 __gnu_cxx::__normal_iterator<unsigned char const*, std::vector<unsigned char, google_breakpad::PageStdAllocator<unsigned char> > >::base() const
FUNC 2b390 24 0 __gnu_cxx::__normal_iterator<unsigned char const*, std::vector<unsigned char, google_breakpad::PageStdAllocator<unsigned char> > >::__normal_iterator(unsigned char const* const&)
FUNC 2b3b4 434 0 void std::vector<unsigned char, google_breakpad::PageStdAllocator<unsigned char> >::_M_range_insert<unsigned char const*>(__gnu_cxx::__normal_iterator<unsigned char*, std::vector<unsigned char, google_breakpad::PageStdAllocator<unsigned char> > >, unsigned char const*, unsigned char const*, std::forward_iterator_tag)
FUNC 2b7e8 80 0 std::iterator_traits<unsigned char const*>::difference_type std::distance<unsigned char const*>(unsigned char const*, unsigned char const*)
FUNC 2b868 44 0 __gnu_cxx::__normal_iterator<unsigned char*, std::vector<unsigned char, google_breakpad::PageStdAllocator<unsigned char> > >::difference_type __gnu_cxx::operator-<unsigned char*, std::vector<unsigned char, google_breakpad::PageStdAllocator<unsigned char> > >(__gnu_cxx::__normal_iterator<unsigned char*, std::vector<unsigned char, google_breakpad::PageStdAllocator<unsigned char> > > const&, __gnu_cxx::__normal_iterator<unsigned char*, std::vector<unsigned char, google_breakpad::PageStdAllocator<unsigned char> > > const&)
FUNC 2b8ac 58 0 unsigned char* std::__uninitialized_move_a<unsigned char*, unsigned char*, google_breakpad::PageStdAllocator<unsigned char> >(unsigned char*, unsigned char*, unsigned char*, google_breakpad::PageStdAllocator<unsigned char>&)
FUNC 2b904 50 0 unsigned char* std::move_backward<unsigned char*, unsigned char*>(unsigned char*, unsigned char*, unsigned char*)
FUNC 2b954 14 0 __gnu_cxx::__normal_iterator<unsigned char*, std::vector<unsigned char, google_breakpad::PageStdAllocator<unsigned char> > >::base() const
FUNC 2b968 a4 0 __gnu_cxx::__normal_iterator<unsigned char*, std::vector<unsigned char, google_breakpad::PageStdAllocator<unsigned char> > > std::copy<unsigned char const*, __gnu_cxx::__normal_iterator<unsigned char*, std::vector<unsigned char, google_breakpad::PageStdAllocator<unsigned char> > > >(unsigned char const*, unsigned char const*, __gnu_cxx::__normal_iterator<unsigned char*, std::vector<unsigned char, google_breakpad::PageStdAllocator<unsigned char> > >)
FUNC 2ba0c 4c 0 void std::advance<unsigned char const*, unsigned int>(unsigned char const*&, unsigned int)
FUNC 2ba58 88 0 unsigned char* std::__uninitialized_copy_a<unsigned char const*, unsigned char*, google_breakpad::PageStdAllocator<unsigned char> >(unsigned char const*, unsigned char const*, unsigned char*, google_breakpad::PageStdAllocator<unsigned char>&)
FUNC 2bae0 130 0 std::vector<unsigned char, google_breakpad::PageStdAllocator<unsigned char> >::_M_check_len(unsigned int, char const*) const
FUNC 2bc10 58 0 unsigned char* std::__uninitialized_move_if_noexcept_a<unsigned char*, unsigned char*, google_breakpad::PageStdAllocator<unsigned char> >(unsigned char*, unsigned char*, unsigned char*, google_breakpad::PageStdAllocator<unsigned char>&)
FUNC 2bc68 20 0 std::iterator_traits<unsigned char const*>::difference_type std::__distance<unsigned char const*>(unsigned char const*, unsigned char const*, std::random_access_iterator_tag)
FUNC 2bc88 10 0 std::iterator_traits<unsigned char const*>::iterator_category std::__iterator_category<unsigned char const*>(unsigned char const* const&)
FUNC 2bc98 74 0 std::move_iterator<unsigned char*> std::make_move_iterator<unsigned char*>(unsigned char*)
FUNC 2bd0c 60 0 unsigned char* std::__copy_move_backward_a2<true, unsigned char*, unsigned char*>(unsigned char*, unsigned char*, unsigned char*)
FUNC 2bd6c 20 0 std::_Miter_base<unsigned char*>::iterator_type std::__miter_base<unsigned char*>(unsigned char*)
FUNC 2bd8c 38 0 unsigned char* std::__copy_move_backward_a<true, unsigned char*, unsigned char*>(unsigned char*, unsigned char*, unsigned char*)
FUNC 2bdc4 20 0 std::_Niter_base<unsigned char*>::iterator_type std::__niter_base<unsigned char*>(unsigned char*)
FUNC 2bde4 7c 0 unsigned char* std::__copy_move_backward<true, true, std::random_access_iterator_tag>::__copy_move_b<unsigned char>(unsigned char const*, unsigned char const*, unsigned char*)
FUNC 2be60 14 0 std::_Iter_base<unsigned char*, false>::_S_base(unsigned char*)
FUNC 2be74 c0 0 __gnu_cxx::__normal_iterator<unsigned char*, std::vector<unsigned char, google_breakpad::PageStdAllocator<unsigned char> > > std::__copy_move_a2<false, unsigned char const*, __gnu_cxx::__normal_iterator<unsigned char*, std::vector<unsigned char, google_breakpad::PageStdAllocator<unsigned char> > > >(unsigned char const*, unsigned char const*, __gnu_cxx::__normal_iterator<unsigned char*, std::vector<unsigned char, google_breakpad::PageStdAllocator<unsigned char> > >)
FUNC 2bf34 20 0 std::_Miter_base<unsigned char const*>::iterator_type std::__miter_base<unsigned char const*>(unsigned char const*)
FUNC 2bf54 38 0 unsigned char* std::__copy_move_a<false, unsigned char const*, unsigned char*>(unsigned char const*, unsigned char const*, unsigned char*)
FUNC 2bf8c 20 0 std::_Niter_base<unsigned char const*>::iterator_type std::__niter_base<unsigned char const*>(unsigned char const*)
FUNC 2bfac 5c 0 std::_Niter_base<__gnu_cxx::__normal_iterator<unsigned char*, std::vector<unsigned char, google_breakpad::PageStdAllocator<unsigned char> > > >::iterator_type std::__niter_base<__gnu_cxx::__normal_iterator<unsigned char*, std::vector<unsigned char, google_breakpad::PageStdAllocator<unsigned char> > > >(__gnu_cxx::__normal_iterator<unsigned char*, std::vector<unsigned char, google_breakpad::PageStdAllocator<unsigned char> > >)
FUNC 2c008 24 0 __gnu_cxx::__normal_iterator<unsigned char*, std::vector<unsigned char, google_breakpad::PageStdAllocator<unsigned char> > >::__normal_iterator(unsigned char* const&)
FUNC 2c02c 74 0 unsigned char* std::__copy_move<false, true, std::random_access_iterator_tag>::__copy_m<unsigned char>(unsigned char const*, unsigned char const*, unsigned char*)
FUNC 2c0a0 14 0 std::_Iter_base<unsigned char const*, false>::_S_base(unsigned char const*)
FUNC 2c0b4 64 0 std::_Iter_base<__gnu_cxx::__normal_iterator<unsigned char*, std::vector<unsigned char, google_breakpad::PageStdAllocator<unsigned char> > >, true>::_S_base(__gnu_cxx::__normal_iterator<unsigned char*, std::vector<unsigned char, google_breakpad::PageStdAllocator<unsigned char> > >)
FUNC 2c118 28 0 void std::__advance<unsigned char const*, int>(unsigned char const*&, int, std::random_access_iterator_tag)
FUNC 2c140 54 0 std::allocator_traits<google_breakpad::PageStdAllocator<unsigned char> >::construct<unsigned char, const unsigned char &>
FUNC 2c194 54 0 std::allocator_traits<google_breakpad::PageStdAllocator<unsigned char> >::_S_construct<unsigned char, const unsigned char &>
FUNC 2c1e8 14 0 unsigned char const& std::forward<unsigned char const&>(std::remove_reference<unsigned char const&>::type&)
FUNC 2c1fc 40 0 void __gnu_cxx::new_allocator<unsigned char>::construct<unsigned char, unsigned char const&>(unsigned char*, unsigned char const&)
FUNC 2c23c 38 0 google_breakpad::wasteful_vector<unsigned char>::~wasteful_vector()
FUNC 2c274 68 0 std::vector<unsigned char, google_breakpad::PageStdAllocator<unsigned char> >::~vector()
FUNC 2c2dc 48 0 std::_Vector_base<unsigned char, google_breakpad::PageStdAllocator<unsigned char> >::~_Vector_base()
FUNC 2c324 38 0 std::_Vector_base<unsigned char, google_breakpad::PageStdAllocator<unsigned char> >::_Vector_impl::~_Vector_impl()
FUNC 2c35c 20 0 std::_List_const_iterator<google_breakpad::MappingEntry>::_List_const_iterator(std::__detail::_List_node_base const*)
FUNC 2c37c 14 0 google_breakpad::MappingEntry const* std::__addressof<google_breakpad::MappingEntry const>(google_breakpad::MappingEntry const&)
FUNC 2c390 138 0 google_breakpad::LinuxDumper::LinuxDumper(int, char const*)
FUNC 2c4c8 b8 0 google_breakpad::wasteful_vector<int>::wasteful_vector(google_breakpad::PageAllocator*, unsigned int)
FUNC 2c580 b8 0 google_breakpad::wasteful_vector<google_breakpad::MappingInfo*>::wasteful_vector(google_breakpad::PageAllocator*, unsigned int)
FUNC 2c638 b8 0 google_breakpad::wasteful_vector<unsigned int>::wasteful_vector(google_breakpad::PageAllocator*, unsigned int)
FUNC 2c6f0 ac 0 std::vector<unsigned int, google_breakpad::PageStdAllocator<unsigned int> >::resize(unsigned int)
FUNC 2c79c 88 0 google_breakpad::LinuxDumper::~LinuxDumper()
FUNC 2c824 38 0 google_breakpad::wasteful_vector<unsigned int>::~wasteful_vector()
FUNC 2c85c 38 0 google_breakpad::wasteful_vector<google_breakpad::MappingInfo*>::~wasteful_vector()
FUNC 2c894 38 0 google_breakpad::wasteful_vector<int>::~wasteful_vector()
FUNC 2c8cc 34 0 google_breakpad::LinuxDumper::~LinuxDumper()
FUNC 2c900 70 0 google_breakpad::LinuxDumper::Init()
FUNC 2c970 18c 0 google_breakpad::LinuxDumper::ReadAuxv()
FUNC 2cafc 28 0 google_breakpad::LinuxDumper::LateInit()
FUNC 2cb24 148 0 google_breakpad::LinuxDumper::LatePostprocessMappings()
FUNC 2cc6c 30c 0 google_breakpad::LinuxDumper::ElfFileIdentifierForMapping(google_breakpad::MappingInfo const&, bool, unsigned int, google_breakpad::wasteful_vector<unsigned char>&)
FUNC 2cf78 44 0 IsMappedFileOpenUnsafe(google_breakpad::MappingInfo const&)
FUNC 2cfbc 6c 0 sys_getpid()
FUNC 2d028 80 0 google_breakpad::LinuxDumper::GetMappingAbsolutePath(google_breakpad::MappingInfo const&, char*) const
FUNC 2d0a8 254 0 google_breakpad::LinuxDumper::HandleDeletedFileInMapping(char*) const
FUNC 2d2fc 20 0 google_breakpad::MemoryMappedFile::data() const
FUNC 2d31c 20 0 google_breakpad::MemoryMappedFile::size() const
FUNC 2d33c 30 0 std::vector<google_breakpad::MappingInfo*, google_breakpad::PageStdAllocator<google_breakpad::MappingInfo*> >::operator[](unsigned int)
FUNC 2d36c 184 0 google_breakpad::LinuxDumper::GetMappingEffectiveNameAndPath(google_breakpad::MappingInfo const&, char*, unsigned int, char*, unsigned int)
FUNC 2d4f0 13c 0 google_breakpad::(anonymous namespace)::ElfFileSoName(google_breakpad::LinuxDumper const&, google_breakpad::MappingInfo const&, char*, unsigned int)
FUNC 2d62c 9c 0 sys_open(char const*, int, int)
FUNC 2d6c8 9c 0 sys_read(int, void*, unsigned int)
FUNC 2d764 30 0 std::vector<unsigned int, google_breakpad::PageStdAllocator<unsigned int> >::operator[](unsigned int)
FUNC 2d794 7c 0 sys_close(int)
FUNC 2d810 578 0 google_breakpad::LinuxDumper::EnumerateMappings()
FUNC 2dd88 28 0 operator new(unsigned int, google_breakpad::PageAllocator&)
FUNC 2ddb0 30 0 google_breakpad::LineReader::LineReader(int)
FUNC 2dde0 250 0 google_breakpad::LineReader::GetNextLine(char const**, unsigned int*)
FUNC 2e030 88 0 std::vector<google_breakpad::MappingInfo*, google_breakpad::PageStdAllocator<google_breakpad::MappingInfo*> >::empty() const
FUNC 2e0b8 84 0 std::vector<google_breakpad::MappingInfo*, google_breakpad::PageStdAllocator<google_breakpad::MappingInfo*> >::back()
FUNC 2e13c a0 0 google_breakpad::LineReader::PopLine(unsigned int)
FUNC 2e1dc ac 0 std::vector<google_breakpad::MappingInfo*, google_breakpad::PageStdAllocator<google_breakpad::MappingInfo*> >::resize(unsigned int)
FUNC 2e288 68 0 std::vector<google_breakpad::MappingInfo*, google_breakpad::PageStdAllocator<google_breakpad::MappingInfo*> >::push_back(google_breakpad::MappingInfo* const&)
FUNC 2e2f0 94 0 google_breakpad::LinuxDumper::GetLoadedElfHeader(unsigned int, elfhdr*)
FUNC 2e384 18c 0 google_breakpad::LinuxDumper::ParseLoadedElfProgramHeaders(elfhdr*, unsigned int, unsigned int*, unsigned int*, unsigned int*)
FUNC 2e510 134 0 google_breakpad::LinuxDumper::HasAndroidPackedRelocations(unsigned int, unsigned int, unsigned int)
FUNC 2e644 e8 0 google_breakpad::LinuxDumper::GetEffectiveLoadBias(elfhdr*, unsigned int)
FUNC 2e72c f4 0 google_breakpad::LinuxDumper::GetStackInfo(void const**, unsigned int*, unsigned int)
FUNC 2e820 8 0 getpagesize()
FUNC 2e828 108 0 google_breakpad::LinuxDumper::FindMapping(void const*) const
FUNC 2e930 30 0 bool google_breakpad::SafeReadLink<255u>(char const*, char (&) [255u])
FUNC 2e960 8c 0 sys_stat(char const*, kernel_stat*)
FUNC 2e9ec 68 0 std::vector<unsigned int, google_breakpad::PageStdAllocator<unsigned int> >::~vector()
FUNC 2ea54 68 0 void std::_Destroy<unsigned int*, google_breakpad::PageStdAllocator<unsigned int> >(unsigned int*, unsigned int*, google_breakpad::PageStdAllocator<unsigned int>&)
FUNC 2eabc 14 0 std::_Vector_base<unsigned int, google_breakpad::PageStdAllocator<unsigned int> >::_M_get_Tp_allocator()
FUNC 2ead0 78 0 std::_Vector_base<unsigned int, google_breakpad::PageStdAllocator<unsigned int> >::~_Vector_base()
FUNC 2eb48 28 0 void std::allocator_traits<google_breakpad::PageStdAllocator<unsigned int> >::destroy<unsigned int>(google_breakpad::PageStdAllocator<unsigned int>&, unsigned int*)
FUNC 2eb70 14 0 unsigned int* std::__addressof<unsigned int>(unsigned int&)
FUNC 2eb84 28 0 std::allocator_traits<google_breakpad::PageStdAllocator<unsigned int> >::_S_destroy<unsigned int>
FUNC 2ebac 14 0 void __gnu_cxx::new_allocator<unsigned int>::destroy<unsigned int>(unsigned int*)
FUNC 2ebc0 48 0 std::_Vector_base<unsigned int, google_breakpad::PageStdAllocator<unsigned int> >::_M_deallocate(unsigned int*, unsigned int)
FUNC 2ec08 38 0 std::_Vector_base<unsigned int, google_breakpad::PageStdAllocator<unsigned int> >::_Vector_impl::~_Vector_impl()
FUNC 2ec40 30 0 std::allocator_traits<google_breakpad::PageStdAllocator<unsigned int> >::deallocate(google_breakpad::PageStdAllocator<unsigned int>&, unsigned int*, unsigned int)
FUNC 2ec70 18 0 google_breakpad::PageStdAllocator<unsigned int>::deallocate(unsigned int*, unsigned int)
FUNC 2ec88 38 0 std::allocator<unsigned int>::~allocator()
FUNC 2ecc0 14 0 __gnu_cxx::new_allocator<unsigned int>::~new_allocator()
FUNC 2ecd4 68 0 std::vector<google_breakpad::MappingInfo*, google_breakpad::PageStdAllocator<google_breakpad::MappingInfo*> >::~vector()
FUNC 2ed3c 68 0 void std::_Destroy<google_breakpad::MappingInfo**, google_breakpad::PageStdAllocator<google_breakpad::MappingInfo*> >(google_breakpad::MappingInfo**, google_breakpad::MappingInfo**, google_breakpad::PageStdAllocator<google_breakpad::MappingInfo*>&)
FUNC 2eda4 14 0 std::_Vector_base<google_breakpad::MappingInfo*, google_breakpad::PageStdAllocator<google_breakpad::MappingInfo*> >::_M_get_Tp_allocator()
FUNC 2edb8 78 0 std::_Vector_base<google_breakpad::MappingInfo*, google_breakpad::PageStdAllocator<google_breakpad::MappingInfo*> >::~_Vector_base()
FUNC 2ee30 28 0 void std::allocator_traits<google_breakpad::PageStdAllocator<google_breakpad::MappingInfo*> >::destroy<google_breakpad::MappingInfo*>(google_breakpad::PageStdAllocator<google_breakpad::MappingInfo*>&, google_breakpad::MappingInfo**)
FUNC 2ee58 14 0 google_breakpad::MappingInfo** std::__addressof<google_breakpad::MappingInfo*>(google_breakpad::MappingInfo*&)
FUNC 2ee6c 28 0 std::allocator_traits<google_breakpad::PageStdAllocator<google_breakpad::MappingInfo *> >::_S_destroy<google_breakpad::MappingInfo *>
FUNC 2ee94 14 0 void __gnu_cxx::new_allocator<google_breakpad::MappingInfo*>::destroy<google_breakpad::MappingInfo*>(google_breakpad::MappingInfo**)
FUNC 2eea8 48 0 std::_Vector_base<google_breakpad::MappingInfo*, google_breakpad::PageStdAllocator<google_breakpad::MappingInfo*> >::_M_deallocate(google_breakpad::MappingInfo**, unsigned int)
FUNC 2eef0 38 0 std::_Vector_base<google_breakpad::MappingInfo*, google_breakpad::PageStdAllocator<google_breakpad::MappingInfo*> >::_Vector_impl::~_Vector_impl()
FUNC 2ef28 30 0 std::allocator_traits<google_breakpad::PageStdAllocator<google_breakpad::MappingInfo*> >::deallocate(google_breakpad::PageStdAllocator<google_breakpad::MappingInfo*>&, google_breakpad::MappingInfo**, unsigned int)
FUNC 2ef58 18 0 google_breakpad::PageStdAllocator<google_breakpad::MappingInfo*>::deallocate(google_breakpad::MappingInfo**, unsigned int)
FUNC 2ef70 38 0 std::allocator<google_breakpad::MappingInfo*>::~allocator()
FUNC 2efa8 14 0 __gnu_cxx::new_allocator<google_breakpad::MappingInfo*>::~new_allocator()
FUNC 2efbc 68 0 std::vector<int, google_breakpad::PageStdAllocator<int> >::~vector()
FUNC 2f024 68 0 void std::_Destroy<int*, google_breakpad::PageStdAllocator<int> >(int*, int*, google_breakpad::PageStdAllocator<int>&)
FUNC 2f08c 14 0 std::_Vector_base<int, google_breakpad::PageStdAllocator<int> >::_M_get_Tp_allocator()
FUNC 2f0a0 78 0 std::_Vector_base<int, google_breakpad::PageStdAllocator<int> >::~_Vector_base()
FUNC 2f118 28 0 void std::allocator_traits<google_breakpad::PageStdAllocator<int> >::destroy<int>(google_breakpad::PageStdAllocator<int>&, int*)
FUNC 2f140 14 0 int* std::__addressof<int>(int&)
FUNC 2f154 28 0 std::allocator_traits<google_breakpad::PageStdAllocator<int> >::_S_destroy<int>
FUNC 2f17c 14 0 void __gnu_cxx::new_allocator<int>::destroy<int>(int*)
FUNC 2f190 48 0 std::_Vector_base<int, google_breakpad::PageStdAllocator<int> >::_M_deallocate(int*, unsigned int)
FUNC 2f1d8 38 0 std::_Vector_base<int, google_breakpad::PageStdAllocator<int> >::_Vector_impl::~_Vector_impl()
FUNC 2f210 30 0 std::allocator_traits<google_breakpad::PageStdAllocator<int> >::deallocate(google_breakpad::PageStdAllocator<int>&, int*, unsigned int)
FUNC 2f240 18 0 google_breakpad::PageStdAllocator<int>::deallocate(int*, unsigned int)
FUNC 2f258 38 0 std::allocator<int>::~allocator()
FUNC 2f290 14 0 __gnu_cxx::new_allocator<int>::~new_allocator()
FUNC 2f2a4 8c 0 sys_munmap(void*, unsigned int)
FUNC 2f330 c0 0 sys_mmap(void*, unsigned int, int, int, int, long long)
FUNC 2f3f0 d4 0 sys__mmap2(void*, unsigned int, int, int, int, long)
FUNC 2f4c4 18 0 google_breakpad::MemoryRange::data() const
FUNC 2f4dc 18 0 google_breakpad::MemoryRange::length() const
FUNC 2f4f4 258 0 google_breakpad::(anonymous namespace)::ElfFileSoNameFromMappedFile(void const*, char*, unsigned int)
FUNC 2f74c 50 0 google_breakpad::PageStdAllocator<int>::PageStdAllocator(google_breakpad::PageAllocator&)
FUNC 2f79c 44 0 std::vector<int, google_breakpad::PageStdAllocator<int> >::vector(google_breakpad::PageStdAllocator<int> const&)
FUNC 2f7e0 38 0 google_breakpad::PageStdAllocator<int>::~PageStdAllocator()
FUNC 2f818 140 0 std::vector<int, google_breakpad::PageStdAllocator<int> >::reserve(unsigned int)
FUNC 2f958 38 0 std::allocator<int>::allocator()
FUNC 2f990 14 0 __gnu_cxx::new_allocator<int>::new_allocator()
FUNC 2f9a4 38 0 std::_Vector_base<int, google_breakpad::PageStdAllocator<int> >::_Vector_base(google_breakpad::PageStdAllocator<int> const&)
FUNC 2f9dc 54 0 std::_Vector_base<int, google_breakpad::PageStdAllocator<int> >::_Vector_impl::_Vector_impl(google_breakpad::PageStdAllocator<int> const&)
FUNC 2fa30 60 0 google_breakpad::PageStdAllocator<int>::PageStdAllocator(google_breakpad::PageStdAllocator<int> const&)
FUNC 2fa90 44 0 std::allocator<int>::allocator(std::allocator<int> const&)
FUNC 2fad4 18 0 __gnu_cxx::new_allocator<int>::new_allocator(__gnu_cxx::new_allocator<int> const&)
FUNC 2faec 24 0 std::vector<int, google_breakpad::PageStdAllocator<int> >::max_size() const
FUNC 2fb10 3c 0 std::vector<int, google_breakpad::PageStdAllocator<int> >::capacity() const
FUNC 2fb4c 3c 0 std::vector<int, google_breakpad::PageStdAllocator<int> >::size() const
FUNC 2fb88 b8 0 int* std::vector<int, google_breakpad::PageStdAllocator<int> >::_M_allocate_and_copy<std::move_iterator<int*> >(unsigned int, std::move_iterator<int*>, std::move_iterator<int*>)
FUNC 2fc40 74 0 std::move_iterator<int*> std::__make_move_if_noexcept_iterator<int*, std::move_iterator<int*> >(int*)
FUNC 2fcb4 24 0 std::allocator_traits<google_breakpad::PageStdAllocator<int> >::max_size(google_breakpad::PageStdAllocator<int> const&)
FUNC 2fcd8 14 0 std::_Vector_base<int, google_breakpad::PageStdAllocator<int> >::_M_get_Tp_allocator() const
FUNC 2fcec 24 0 unsigned int std::allocator_traits<google_breakpad::PageStdAllocator<int> >::_S_max_size<google_breakpad::PageStdAllocator<int> const, void>(google_breakpad::PageStdAllocator<int> const&, int)
FUNC 2fd10 1c 0 __gnu_cxx::new_allocator<int>::max_size() const
FUNC 2fd2c 54 0 std::_Vector_base<int, google_breakpad::PageStdAllocator<int> >::_M_allocate(unsigned int)
FUNC 2fd80 d8 0 int* std::__uninitialized_copy_a<std::move_iterator<int*>, int*, google_breakpad::PageStdAllocator<int> >(std::move_iterator<int*>, std::move_iterator<int*>, int*, google_breakpad::PageStdAllocator<int>&)
FUNC 2fe58 2c 0 std::allocator_traits<google_breakpad::PageStdAllocator<int> >::allocate(google_breakpad::PageStdAllocator<int>&, unsigned int)
FUNC 2fe84 74 0 google_breakpad::PageStdAllocator<int>::allocate(unsigned int, void const*)
FUNC 2fef8 34 0 bool std::operator!=<int*>(std::move_iterator<int*> const&, std::move_iterator<int*> const&)
FUNC 2ff2c 54 0 std::allocator_traits<google_breakpad::PageStdAllocator<int> >::construct<int, int>
FUNC 2ff80 24 0 std::move_iterator<int*>::operator*() const
FUNC 2ffa4 20 0 std::move_iterator<int*>::operator++()
FUNC 2ffc4 48 0 bool std::operator==<int*>(std::move_iterator<int*> const&, std::move_iterator<int*> const&)
FUNC 3000c 18 0 std::move_iterator<int*>::base() const
FUNC 30024 54 0 std::allocator_traits<google_breakpad::PageStdAllocator<int> >::_S_construct<int, int>
FUNC 30078 14 0 int&& std::forward<int>(std::remove_reference<int>::type&)
FUNC 3008c 40 0 void __gnu_cxx::new_allocator<int>::construct<int, int>(int*, int&&)
FUNC 300cc 14 0 std::remove_reference<int&>::type&& std::move<int&>(int&)
FUNC 300e0 20 0 std::move_iterator<int*>::move_iterator(int*)
FUNC 30100 50 0 google_breakpad::PageStdAllocator<google_breakpad::MappingInfo*>::PageStdAllocator(google_breakpad::PageAllocator&)
FUNC 30150 44 0 std::vector<google_breakpad::MappingInfo*, google_breakpad::PageStdAllocator<google_breakpad::MappingInfo*> >::vector(google_breakpad::PageStdAllocator<google_breakpad::MappingInfo*> const&)
FUNC 30194 38 0 google_breakpad::PageStdAllocator<google_breakpad::MappingInfo*>::~PageStdAllocator()
FUNC 301cc 140 0 std::vector<google_breakpad::MappingInfo*, google_breakpad::PageStdAllocator<google_breakpad::MappingInfo*> >::reserve(unsigned int)
FUNC 3030c 38 0 std::allocator<google_breakpad::MappingInfo*>::allocator()
FUNC 30344 14 0 __gnu_cxx::new_allocator<google_breakpad::MappingInfo*>::new_allocator()
FUNC 30358 38 0 std::_Vector_base<google_breakpad::MappingInfo*, google_breakpad::PageStdAllocator<google_breakpad::MappingInfo*> >::_Vector_base(google_breakpad::PageStdAllocator<google_breakpad::MappingInfo*> const&)
FUNC 30390 54 0 std::_Vector_base<google_breakpad::MappingInfo*, google_breakpad::PageStdAllocator<google_breakpad::MappingInfo*> >::_Vector_impl::_Vector_impl(google_breakpad::PageStdAllocator<google_breakpad::MappingInfo*> const&)
FUNC 303e4 60 0 google_breakpad::PageStdAllocator<google_breakpad::MappingInfo*>::PageStdAllocator(google_breakpad::PageStdAllocator<google_breakpad::MappingInfo*> const&)
FUNC 30444 44 0 std::allocator<google_breakpad::MappingInfo*>::allocator(std::allocator<google_breakpad::MappingInfo*> const&)
FUNC 30488 18 0 __gnu_cxx::new_allocator<google_breakpad::MappingInfo*>::new_allocator(__gnu_cxx::new_allocator<google_breakpad::MappingInfo*> const&)
FUNC 304a0 24 0 std::vector<google_breakpad::MappingInfo*, google_breakpad::PageStdAllocator<google_breakpad::MappingInfo*> >::max_size() const
FUNC 304c4 3c 0 std::vector<google_breakpad::MappingInfo*, google_breakpad::PageStdAllocator<google_breakpad::MappingInfo*> >::capacity() const
FUNC 30500 b8 0 google_breakpad::MappingInfo** std::vector<google_breakpad::MappingInfo*, google_breakpad::PageStdAllocator<google_breakpad::MappingInfo*> >::_M_allocate_and_copy<std::move_iterator<google_breakpad::MappingInfo**> >(unsigned int, std::move_iterator<google_breakpad::MappingInfo**>, std::move_iterator<google_breakpad::MappingInfo**>)
FUNC 305b8 74 0 std::move_iterator<google_breakpad::MappingInfo**> std::__make_move_if_noexcept_iterator<google_breakpad::MappingInfo**, std::move_iterator<google_breakpad::MappingInfo**> >(google_breakpad::MappingInfo**)
FUNC 3062c 24 0 std::allocator_traits<google_breakpad::PageStdAllocator<google_breakpad::MappingInfo*> >::max_size(google_breakpad::PageStdAllocator<google_breakpad::MappingInfo*> const&)
FUNC 30650 14 0 std::_Vector_base<google_breakpad::MappingInfo*, google_breakpad::PageStdAllocator<google_breakpad::MappingInfo*> >::_M_get_Tp_allocator() const
FUNC 30664 24 0 unsigned int std::allocator_traits<google_breakpad::PageStdAllocator<google_breakpad::MappingInfo*> >::_S_max_size<google_breakpad::PageStdAllocator<google_breakpad::MappingInfo*> const, void>(google_breakpad::PageStdAllocator<google_breakpad::MappingInfo*> const&, int)
FUNC 30688 1c 0 __gnu_cxx::new_allocator<google_breakpad::MappingInfo*>::max_size() const
FUNC 306a4 54 0 std::_Vector_base<google_breakpad::MappingInfo*, google_breakpad::PageStdAllocator<google_breakpad::MappingInfo*> >::_M_allocate(unsigned int)
FUNC 306f8 d8 0 google_breakpad::MappingInfo** std::__uninitialized_copy_a<std::move_iterator<google_breakpad::MappingInfo**>, google_breakpad::MappingInfo**, google_breakpad::PageStdAllocator<google_breakpad::MappingInfo*> >(std::move_iterator<google_breakpad::MappingInfo**>, std::move_iterator<google_breakpad::MappingInfo**>, google_breakpad::MappingInfo**, google_breakpad::PageStdAllocator<google_breakpad::MappingInfo*>&)
FUNC 307d0 2c 0 std::allocator_traits<google_breakpad::PageStdAllocator<google_breakpad::MappingInfo*> >::allocate(google_breakpad::PageStdAllocator<google_breakpad::MappingInfo*>&, unsigned int)
FUNC 307fc 74 0 google_breakpad::PageStdAllocator<google_breakpad::MappingInfo*>::allocate(unsigned int, void const*)
FUNC 30870 34 0 bool std::operator!=<google_breakpad::MappingInfo**>(std::move_iterator<google_breakpad::MappingInfo**> const&, std::move_iterator<google_breakpad::MappingInfo**> const&)
FUNC 308a4 54 0 std::allocator_traits<google_breakpad::PageStdAllocator<google_breakpad::MappingInfo *> >::construct<google_breakpad::MappingInfo *, google_breakpad::MappingInfo *>
FUNC 308f8 24 0 std::move_iterator<google_breakpad::MappingInfo**>::operator*() const
FUNC 3091c 20 0 std::move_iterator<google_breakpad::MappingInfo**>::operator++()
FUNC 3093c 48 0 bool std::operator==<google_breakpad::MappingInfo**>(std::move_iterator<google_breakpad::MappingInfo**> const&, std::move_iterator<google_breakpad::MappingInfo**> const&)
FUNC 30984 18 0 std::move_iterator<google_breakpad::MappingInfo**>::base() const
FUNC 3099c 54 0 std::allocator_traits<google_breakpad::PageStdAllocator<google_breakpad::MappingInfo *> >::_S_construct<google_breakpad::MappingInfo *, google_breakpad::MappingInfo *>
FUNC 309f0 14 0 google_breakpad::MappingInfo*&& std::forward<google_breakpad::MappingInfo*>(std::remove_reference<google_breakpad::MappingInfo*>::type&)
FUNC 30a04 40 0 void __gnu_cxx::new_allocator<google_breakpad::MappingInfo*>::construct<google_breakpad::MappingInfo*, google_breakpad::MappingInfo*>(google_breakpad::MappingInfo**, google_breakpad::MappingInfo*&&)
FUNC 30a44 14 0 std::remove_reference<google_breakpad::MappingInfo*&>::type&& std::move<google_breakpad::MappingInfo*&>(google_breakpad::MappingInfo*&)
FUNC 30a58 20 0 std::move_iterator<google_breakpad::MappingInfo**>::move_iterator(google_breakpad::MappingInfo**)
FUNC 30a78 50 0 google_breakpad::PageStdAllocator<unsigned int>::PageStdAllocator(google_breakpad::PageAllocator&)
FUNC 30ac8 44 0 std::vector<unsigned int, google_breakpad::PageStdAllocator<unsigned int> >::vector(google_breakpad::PageStdAllocator<unsigned int> const&)
FUNC 30b0c 38 0 google_breakpad::PageStdAllocator<unsigned int>::~PageStdAllocator()
FUNC 30b44 140 0 std::vector<unsigned int, google_breakpad::PageStdAllocator<unsigned int> >::reserve(unsigned int)
FUNC 30c84 38 0 std::allocator<unsigned int>::allocator()
FUNC 30cbc 14 0 __gnu_cxx::new_allocator<unsigned int>::new_allocator()
FUNC 30cd0 38 0 std::_Vector_base<unsigned int, google_breakpad::PageStdAllocator<unsigned int> >::_Vector_base(google_breakpad::PageStdAllocator<unsigned int> const&)
FUNC 30d08 54 0 std::_Vector_base<unsigned int, google_breakpad::PageStdAllocator<unsigned int> >::_Vector_impl::_Vector_impl(google_breakpad::PageStdAllocator<unsigned int> const&)
FUNC 30d5c 60 0 google_breakpad::PageStdAllocator<unsigned int>::PageStdAllocator(google_breakpad::PageStdAllocator<unsigned int> const&)
FUNC 30dbc 44 0 std::allocator<unsigned int>::allocator(std::allocator<unsigned int> const&)
FUNC 30e00 18 0 __gnu_cxx::new_allocator<unsigned int>::new_allocator(__gnu_cxx::new_allocator<unsigned int> const&)
FUNC 30e18 24 0 std::vector<unsigned int, google_breakpad::PageStdAllocator<unsigned int> >::max_size() const
FUNC 30e3c 3c 0 std::vector<unsigned int, google_breakpad::PageStdAllocator<unsigned int> >::capacity() const
FUNC 30e78 3c 0 std::vector<unsigned int, google_breakpad::PageStdAllocator<unsigned int> >::size() const
FUNC 30eb4 b8 0 unsigned int* std::vector<unsigned int, google_breakpad::PageStdAllocator<unsigned int> >::_M_allocate_and_copy<std::move_iterator<unsigned int*> >(unsigned int, std::move_iterator<unsigned int*>, std::move_iterator<unsigned int*>)
FUNC 30f6c 74 0 std::move_iterator<unsigned int*> std::__make_move_if_noexcept_iterator<unsigned int*, std::move_iterator<unsigned int*> >(unsigned int*)
FUNC 30fe0 24 0 std::allocator_traits<google_breakpad::PageStdAllocator<unsigned int> >::max_size(google_breakpad::PageStdAllocator<unsigned int> const&)
FUNC 31004 14 0 std::_Vector_base<unsigned int, google_breakpad::PageStdAllocator<unsigned int> >::_M_get_Tp_allocator() const
FUNC 31018 24 0 unsigned int std::allocator_traits<google_breakpad::PageStdAllocator<unsigned int> >::_S_max_size<google_breakpad::PageStdAllocator<unsigned int> const, void>(google_breakpad::PageStdAllocator<unsigned int> const&, int)
FUNC 3103c 1c 0 __gnu_cxx::new_allocator<unsigned int>::max_size() const
FUNC 31058 54 0 std::_Vector_base<unsigned int, google_breakpad::PageStdAllocator<unsigned int> >::_M_allocate(unsigned int)
FUNC 310ac d8 0 unsigned int* std::__uninitialized_copy_a<std::move_iterator<unsigned int*>, unsigned int*, google_breakpad::PageStdAllocator<unsigned int> >(std::move_iterator<unsigned int*>, std::move_iterator<unsigned int*>, unsigned int*, google_breakpad::PageStdAllocator<unsigned int>&)
FUNC 31184 2c 0 std::allocator_traits<google_breakpad::PageStdAllocator<unsigned int> >::allocate(google_breakpad::PageStdAllocator<unsigned int>&, unsigned int)
FUNC 311b0 74 0 google_breakpad::PageStdAllocator<unsigned int>::allocate(unsigned int, void const*)
FUNC 31224 34 0 bool std::operator!=<unsigned int*>(std::move_iterator<unsigned int*> const&, std::move_iterator<unsigned int*> const&)
FUNC 31258 54 0 std::allocator_traits<google_breakpad::PageStdAllocator<unsigned int> >::construct<unsigned int, unsigned int>
FUNC 312ac 24 0 std::move_iterator<unsigned int*>::operator*() const
FUNC 312d0 20 0 std::move_iterator<unsigned int*>::operator++()
FUNC 312f0 48 0 bool std::operator==<unsigned int*>(std::move_iterator<unsigned int*> const&, std::move_iterator<unsigned int*> const&)
FUNC 31338 18 0 std::move_iterator<unsigned int*>::base() const
FUNC 31350 54 0 std::allocator_traits<google_breakpad::PageStdAllocator<unsigned int> >::_S_construct<unsigned int, unsigned int>
FUNC 313a4 14 0 unsigned int&& std::forward<unsigned int>(std::remove_reference<unsigned int>::type&)
FUNC 313b8 40 0 void __gnu_cxx::new_allocator<unsigned int>::construct<unsigned int, unsigned int>(unsigned int*, unsigned int&&)
FUNC 313f8 14 0 std::remove_reference<unsigned int&>::type&& std::move<unsigned int&>(unsigned int&)
FUNC 3140c 20 0 std::move_iterator<unsigned int*>::move_iterator(unsigned int*)
FUNC 3142c 208 0 std::vector<unsigned int, google_breakpad::PageStdAllocator<unsigned int> >::_M_default_append(unsigned int)
FUNC 31634 70 0 std::vector<unsigned int, google_breakpad::PageStdAllocator<unsigned int> >::_M_erase_at_end(unsigned int*)
FUNC 316a4 7c 0 void std::__uninitialized_default_n_a<unsigned int*, unsigned int, google_breakpad::PageStdAllocator<unsigned int> >(unsigned int*, unsigned int, google_breakpad::PageStdAllocator<unsigned int>&)
FUNC 31720 130 0 std::vector<unsigned int, google_breakpad::PageStdAllocator<unsigned int> >::_M_check_len(unsigned int, char const*) const
FUNC 31850 58 0 unsigned int* std::__uninitialized_move_if_noexcept_a<unsigned int*, unsigned int*, google_breakpad::PageStdAllocator<unsigned int> >(unsigned int*, unsigned int*, unsigned int*, google_breakpad::PageStdAllocator<unsigned int>&)
FUNC 318a8 28 0 std::allocator_traits<google_breakpad::PageStdAllocator<unsigned int> >::construct<unsigned int>
FUNC 318d0 28 0 std::allocator_traits<google_breakpad::PageStdAllocator<unsigned int> >::_S_construct<unsigned int>
FUNC 318f8 20 0 void __gnu_cxx::new_allocator<unsigned int>::construct<unsigned int>(unsigned int*)
FUNC 31918 50 0 bool __gnu_cxx::operator==<google_breakpad::MappingInfo* const*, std::vector<google_breakpad::MappingInfo*, google_breakpad::PageStdAllocator<google_breakpad::MappingInfo*> > >(__gnu_cxx::__normal_iterator<google_breakpad::MappingInfo* const*, std::vector<google_breakpad::MappingInfo*, google_breakpad::PageStdAllocator<google_breakpad::MappingInfo*> > > const&, __gnu_cxx::__normal_iterator<google_breakpad::MappingInfo* const*, std::vector<google_breakpad::MappingInfo*, google_breakpad::PageStdAllocator<google_breakpad::MappingInfo*> > > const&)
FUNC 31968 7c 0 std::vector<google_breakpad::MappingInfo*, google_breakpad::PageStdAllocator<google_breakpad::MappingInfo*> >::begin() const
FUNC 319e4 7c 0 std::vector<google_breakpad::MappingInfo*, google_breakpad::PageStdAllocator<google_breakpad::MappingInfo*> >::end() const
FUNC 31a60 14 0 __gnu_cxx::__normal_iterator<google_breakpad::MappingInfo* const*, std::vector<google_breakpad::MappingInfo*, google_breakpad::PageStdAllocator<google_breakpad::MappingInfo*> > >::base() const
FUNC 31a74 24 0 __gnu_cxx::__normal_iterator<google_breakpad::MappingInfo* const*, std::vector<google_breakpad::MappingInfo*, google_breakpad::PageStdAllocator<google_breakpad::MappingInfo*> > >::__normal_iterator(google_breakpad::MappingInfo* const* const&)
FUNC 31a98 78 0 std::vector<google_breakpad::MappingInfo*, google_breakpad::PageStdAllocator<google_breakpad::MappingInfo*> >::end()
FUNC 31b10 94 0 __gnu_cxx::__normal_iterator<google_breakpad::MappingInfo**, std::vector<google_breakpad::MappingInfo*, google_breakpad::PageStdAllocator<google_breakpad::MappingInfo*> > >::operator-(int) const
FUNC 31ba4 18 0 __gnu_cxx::__normal_iterator<google_breakpad::MappingInfo**, std::vector<google_breakpad::MappingInfo*, google_breakpad::PageStdAllocator<google_breakpad::MappingInfo*> > >::operator*() const
FUNC 31bbc 24 0 __gnu_cxx::__normal_iterator<google_breakpad::MappingInfo**, std::vector<google_breakpad::MappingInfo*, google_breakpad::PageStdAllocator<google_breakpad::MappingInfo*> > >::__normal_iterator(google_breakpad::MappingInfo** const&)
FUNC 31be0 208 0 std::vector<google_breakpad::MappingInfo*, google_breakpad::PageStdAllocator<google_breakpad::MappingInfo*> >::_M_default_append(unsigned int)
FUNC 31de8 70 0 std::vector<google_breakpad::MappingInfo*, google_breakpad::PageStdAllocator<google_breakpad::MappingInfo*> >::_M_erase_at_end(google_breakpad::MappingInfo**)
FUNC 31e58 7c 0 void std::__uninitialized_default_n_a<google_breakpad::MappingInfo**, unsigned int, google_breakpad::PageStdAllocator<google_breakpad::MappingInfo*> >(google_breakpad::MappingInfo**, unsigned int, google_breakpad::PageStdAllocator<google_breakpad::MappingInfo*>&)
FUNC 31ed4 130 0 std::vector<google_breakpad::MappingInfo*, google_breakpad::PageStdAllocator<google_breakpad::MappingInfo*> >::_M_check_len(unsigned int, char const*) const
FUNC 32004 58 0 google_breakpad::MappingInfo** std::__uninitialized_move_if_noexcept_a<google_breakpad::MappingInfo**, google_breakpad::MappingInfo**, google_breakpad::PageStdAllocator<google_breakpad::MappingInfo*> >(google_breakpad::MappingInfo**, google_breakpad::MappingInfo**, google_breakpad::MappingInfo**, google_breakpad::PageStdAllocator<google_breakpad::MappingInfo*>&)
FUNC 3205c 28 0 std::allocator_traits<google_breakpad::PageStdAllocator<google_breakpad::MappingInfo *> >::construct<google_breakpad::MappingInfo *>
FUNC 32084 28 0 std::allocator_traits<google_breakpad::PageStdAllocator<google_breakpad::MappingInfo *> >::_S_construct<google_breakpad::MappingInfo *>
FUNC 320ac 20 0 void __gnu_cxx::new_allocator<google_breakpad::MappingInfo*>::construct<google_breakpad::MappingInfo*>(google_breakpad::MappingInfo**)
FUNC 320cc 54 0 std::allocator_traits<google_breakpad::PageStdAllocator<google_breakpad::MappingInfo *> >::construct<google_breakpad::MappingInfo *, google_breakpad::MappingInfo *const &>
FUNC 32120 184 0 void std::vector<google_breakpad::MappingInfo*, google_breakpad::PageStdAllocator<google_breakpad::MappingInfo*> >::_M_emplace_back_aux<google_breakpad::MappingInfo* const&>(google_breakpad::MappingInfo* const&)
FUNC 322a4 54 0 std::allocator_traits<google_breakpad::PageStdAllocator<google_breakpad::MappingInfo *> >::_S_construct<google_breakpad::MappingInfo *, google_breakpad::MappingInfo *const &>
FUNC 322f8 14 0 google_breakpad::MappingInfo* const& std::forward<google_breakpad::MappingInfo* const&>(std::remove_reference<google_breakpad::MappingInfo* const&>::type&)
FUNC 3230c 40 0 void __gnu_cxx::new_allocator<google_breakpad::MappingInfo*>::construct<google_breakpad::MappingInfo*, google_breakpad::MappingInfo* const&>(google_breakpad::MappingInfo**, google_breakpad::MappingInfo* const&)
FUNC 3234c 6c 0 google_breakpad::LinuxPtraceDumper::LinuxPtraceDumper(int)
FUNC 323b8 198 0 google_breakpad::LinuxPtraceDumper::BuildProcPath(char*, int, char const*) const
FUNC 32550 14c 0 google_breakpad::LinuxPtraceDumper::CopyFromProcess(void*, int, void const*, unsigned int)
FUNC 3269c ac 0 sys_ptrace(int, int, void*, void*)
FUNC 32748 2f0 0 google_breakpad::LinuxPtraceDumper::GetThreadInfoByIndex(unsigned int, google_breakpad::ThreadInfo*)
FUNC 32a38 30 0 std::vector<int, google_breakpad::PageStdAllocator<int> >::operator[](unsigned int)
FUNC 32a68 9c 0 sys_open(char const*, int, int)
FUNC 32b04 7c 0 sys_close(int)
FUNC 32b80 18 0 google_breakpad::LinuxPtraceDumper::IsPostMortem() const
FUNC 32b98 190 0 google_breakpad::LinuxPtraceDumper::ThreadsSuspend()
FUNC 32d28 e8 0 SuspendThread(int)
FUNC 32e10 ac 0 std::vector<int, google_breakpad::PageStdAllocator<int> >::resize(unsigned int)
FUNC 32ebc dc 0 google_breakpad::LinuxPtraceDumper::ThreadsResume()
FUNC 32f98 4c 0 ResumeThread(int)
FUNC 32fe4 1c0 0 google_breakpad::LinuxPtraceDumper::EnumerateThreads()
FUNC 331a4 28 0 google_breakpad::DirectoryReader::DirectoryReader(int)
FUNC 331cc 138 0 google_breakpad::DirectoryReader::GetNextEntry(char const**)
FUNC 33304 68 0 std::vector<int, google_breakpad::PageStdAllocator<int> >::push_back(int const&)
FUNC 3336c 74 0 google_breakpad::DirectoryReader::PopEntry()
FUNC 333e0 34 0 google_breakpad::LinuxPtraceDumper::~LinuxPtraceDumper()
FUNC 33414 c0 0 sys_mmap(void*, unsigned int, int, int, int, long long)
FUNC 334d4 d4 0 sys__mmap2(void*, unsigned int, int, int, int, long)
FUNC 335a8 9c 0 sys_read(int, void*, unsigned int)
FUNC 33644 34 0 sys_waitpid(int, int*, int)
FUNC 33678 ac 0 sys_wait4(int, int*, int, kernel_rusage*)
FUNC 33724 9c 0 sys_getdents(int, kernel_dirent*, int)
FUNC 337c0 208 0 std::vector<int, google_breakpad::PageStdAllocator<int> >::_M_default_append(unsigned int)
FUNC 339c8 70 0 std::vector<int, google_breakpad::PageStdAllocator<int> >::_M_erase_at_end(int*)
FUNC 33a38 7c 0 void std::__uninitialized_default_n_a<int*, unsigned int, google_breakpad::PageStdAllocator<int> >(int*, unsigned int, google_breakpad::PageStdAllocator<int>&)
FUNC 33ab4 130 0 std::vector<int, google_breakpad::PageStdAllocator<int> >::_M_check_len(unsigned int, char const*) const
FUNC 33be4 58 0 int* std::__uninitialized_move_if_noexcept_a<int*, int*, google_breakpad::PageStdAllocator<int> >(int*, int*, int*, google_breakpad::PageStdAllocator<int>&)
FUNC 33c3c 28 0 std::allocator_traits<google_breakpad::PageStdAllocator<int> >::construct<int>
FUNC 33c64 28 0 std::allocator_traits<google_breakpad::PageStdAllocator<int> >::_S_construct<int>
FUNC 33c8c 20 0 void __gnu_cxx::new_allocator<int>::construct<int>(int*)
FUNC 33cac 54 0 std::allocator_traits<google_breakpad::PageStdAllocator<int> >::construct<int, const int &>
FUNC 33d00 184 0 void std::vector<int, google_breakpad::PageStdAllocator<int> >::_M_emplace_back_aux<int const&>(int const&)
FUNC 33e84 54 0 std::allocator_traits<google_breakpad::PageStdAllocator<int> >::_S_construct<int, const int &>
FUNC 33ed8 14 0 int const& std::forward<int const&>(std::remove_reference<int const&>::type&)
FUNC 33eec 40 0 void __gnu_cxx::new_allocator<int>::construct<int, int const&>(int*, int const&)
FUNC 33f2c 118 0 google_breakpad::WriteMinidump(char const*, int, void const*, unsigned int)
FUNC 34044 1bc 0 (anonymous namespace)::WriteMinidumpImpl(char const*, int, long, int, void const*, unsigned int, std::list<google_breakpad::MappingEntry, std::allocator<google_breakpad::MappingEntry> > const&, std::list<google_breakpad::AppMemory, std::allocator<google_breakpad::AppMemory> > const&)
FUNC 34200 108 0 google_breakpad::WriteMinidump(int, int, void const*, unsigned int)
FUNC 34308 16c 0 google_breakpad::WriteMinidump(char const*, int, int)
FUNC 34474 1a0 0 (anonymous namespace)::MinidumpWriter::MinidumpWriter(char const*, int, google_breakpad::ExceptionHandler::CrashContext const*, std::list<google_breakpad::MappingEntry, std::allocator<google_breakpad::MappingEntry> > const&, std::list<google_breakpad::AppMemory, std::allocator<google_breakpad::AppMemory> > const&, google_breakpad::LinuxDumper*)
FUNC 34614 fc 0 (anonymous namespace)::MinidumpWriter::Init()
FUNC 34710 6fc 0 (anonymous namespace)::MinidumpWriter::Dump()
FUNC 34e0c 8c 0 (anonymous namespace)::MinidumpWriter::~MinidumpWriter()
FUNC 34e98 80 0 google_breakpad::WriteMinidump(char const*, int, void const*, unsigned int, std::list<google_breakpad::MappingEntry, std::allocator<google_breakpad::MappingEntry> > const&, std::list<google_breakpad::AppMemory, std::allocator<google_breakpad::AppMemory> > const&)
FUNC 34f18 84 0 google_breakpad::WriteMinidump(int, int, void const*, unsigned int, std::list<google_breakpad::MappingEntry, std::allocator<google_breakpad::MappingEntry> > const&, std::list<google_breakpad::AppMemory, std::allocator<google_breakpad::AppMemory> > const&)
FUNC 34f9c 80 0 google_breakpad::WriteMinidump(char const*, long, int, void const*, unsigned int, std::list<google_breakpad::MappingEntry, std::allocator<google_breakpad::MappingEntry> > const&, std::list<google_breakpad::AppMemory, std::allocator<google_breakpad::AppMemory> > const&)
FUNC 3501c 80 0 google_breakpad::WriteMinidump(int, long, int, void const*, unsigned int, std::list<google_breakpad::MappingEntry, std::allocator<google_breakpad::MappingEntry> > const&, std::list<google_breakpad::AppMemory, std::allocator<google_breakpad::AppMemory> > const&)
FUNC 3509c 10c 0 google_breakpad::WriteMinidump(char const*, std::list<google_breakpad::MappingEntry, std::allocator<google_breakpad::MappingEntry> > const&, std::list<google_breakpad::AppMemory, std::allocator<google_breakpad::AppMemory> > const&, google_breakpad::LinuxDumper*)
FUNC 351a8 20 0 (anonymous namespace)::MinidumpWriter::set_minidump_size_limit(long)
FUNC 351c8 b8 0 google_breakpad::wasteful_vector<MDMemoryDescriptor>::wasteful_vector(google_breakpad::PageAllocator*, unsigned int)
FUNC 35280 50 0 google_breakpad::PageStdAllocator<MDMemoryDescriptor>::PageStdAllocator(google_breakpad::PageAllocator&)
FUNC 352d0 44 0 std::vector<MDMemoryDescriptor, google_breakpad::PageStdAllocator<MDMemoryDescriptor> >::vector(google_breakpad::PageStdAllocator<MDMemoryDescriptor> const&)
FUNC 35314 38 0 google_breakpad::PageStdAllocator<MDMemoryDescriptor>::~PageStdAllocator()
FUNC 3534c 140 0 std::vector<MDMemoryDescriptor, google_breakpad::PageStdAllocator<MDMemoryDescriptor> >::reserve(unsigned int)
FUNC 3548c 38 0 std::allocator<MDMemoryDescriptor>::allocator()
FUNC 354c4 14 0 __gnu_cxx::new_allocator<MDMemoryDescriptor>::new_allocator()
FUNC 354d8 38 0 std::_Vector_base<MDMemoryDescriptor, google_breakpad::PageStdAllocator<MDMemoryDescriptor> >::_Vector_base(google_breakpad::PageStdAllocator<MDMemoryDescriptor> const&)
FUNC 35510 54 0 std::_Vector_base<MDMemoryDescriptor, google_breakpad::PageStdAllocator<MDMemoryDescriptor> >::_Vector_impl::_Vector_impl(google_breakpad::PageStdAllocator<MDMemoryDescriptor> const&)
FUNC 35564 60 0 google_breakpad::PageStdAllocator<MDMemoryDescriptor>::PageStdAllocator(google_breakpad::PageStdAllocator<MDMemoryDescriptor> const&)
FUNC 355c4 44 0 std::allocator<MDMemoryDescriptor>::allocator(std::allocator<MDMemoryDescriptor> const&)
FUNC 35608 18 0 __gnu_cxx::new_allocator<MDMemoryDescriptor>::new_allocator(__gnu_cxx::new_allocator<MDMemoryDescriptor> const&)
FUNC 35620 38 0 std::allocator<MDMemoryDescriptor>::~allocator()
FUNC 35658 14 0 __gnu_cxx::new_allocator<MDMemoryDescriptor>::~new_allocator()
FUNC 3566c 24 0 std::vector<MDMemoryDescriptor, google_breakpad::PageStdAllocator<MDMemoryDescriptor> >::max_size() const
FUNC 35690 3c 0 std::vector<MDMemoryDescriptor, google_breakpad::PageStdAllocator<MDMemoryDescriptor> >::capacity() const
FUNC 356cc 3c 0 std::vector<MDMemoryDescriptor, google_breakpad::PageStdAllocator<MDMemoryDescriptor> >::size() const
FUNC 35708 b8 0 MDMemoryDescriptor* std::vector<MDMemoryDescriptor, google_breakpad::PageStdAllocator<MDMemoryDescriptor> >::_M_allocate_and_copy<std::move_iterator<MDMemoryDescriptor*> >(unsigned int, std::move_iterator<MDMemoryDescriptor*>, std::move_iterator<MDMemoryDescriptor*>)
FUNC 357c0 74 0 std::move_iterator<MDMemoryDescriptor*> std::__make_move_if_noexcept_iterator<MDMemoryDescriptor*, std::move_iterator<MDMemoryDescriptor*> >(MDMemoryDescriptor*)
FUNC 35834 68 0 void std::_Destroy<MDMemoryDescriptor*, google_breakpad::PageStdAllocator<MDMemoryDescriptor> >(MDMemoryDescriptor*, MDMemoryDescriptor*, google_breakpad::PageStdAllocator<MDMemoryDescriptor>&)
FUNC 3589c 14 0 std::_Vector_base<MDMemoryDescriptor, google_breakpad::PageStdAllocator<MDMemoryDescriptor> >::_M_get_Tp_allocator()
FUNC 358b0 48 0 std::_Vector_base<MDMemoryDescriptor, google_breakpad::PageStdAllocator<MDMemoryDescriptor> >::_M_deallocate(MDMemoryDescriptor*, unsigned int)
FUNC 358f8 24 0 std::allocator_traits<google_breakpad::PageStdAllocator<MDMemoryDescriptor> >::max_size(google_breakpad::PageStdAllocator<MDMemoryDescriptor> const&)
FUNC 3591c 14 0 std::_Vector_base<MDMemoryDescriptor, google_breakpad::PageStdAllocator<MDMemoryDescriptor> >::_M_get_Tp_allocator() const
FUNC 35930 24 0 unsigned int std::allocator_traits<google_breakpad::PageStdAllocator<MDMemoryDescriptor> >::_S_max_size<google_breakpad::PageStdAllocator<MDMemoryDescriptor> const, void>(google_breakpad::PageStdAllocator<MDMemoryDescriptor> const&, int)
FUNC 35954 1c 0 __gnu_cxx::new_allocator<MDMemoryDescriptor>::max_size() const
FUNC 35970 54 0 std::_Vector_base<MDMemoryDescriptor, google_breakpad::PageStdAllocator<MDMemoryDescriptor> >::_M_allocate(unsigned int)
FUNC 359c4 d8 0 MDMemoryDescriptor* std::__uninitialized_copy_a<std::move_iterator<MDMemoryDescriptor*>, MDMemoryDescriptor*, google_breakpad::PageStdAllocator<MDMemoryDescriptor> >(std::move_iterator<MDMemoryDescriptor*>, std::move_iterator<MDMemoryDescriptor*>, MDMemoryDescriptor*, google_breakpad::PageStdAllocator<MDMemoryDescriptor>&)
FUNC 35a9c 2c 0 std::allocator_traits<google_breakpad::PageStdAllocator<MDMemoryDescriptor> >::allocate(google_breakpad::PageStdAllocator<MDMemoryDescriptor>&, unsigned int)
FUNC 35ac8 74 0 google_breakpad::PageStdAllocator<MDMemoryDescriptor>::allocate(unsigned int, void const*)
FUNC 35b3c c0 0 sys_mmap(void*, unsigned int, int, int, int, long long)
FUNC 35bfc d4 0 sys__mmap2(void*, unsigned int, int, int, int, long)
FUNC 35cd0 34 0 bool std::operator!=<MDMemoryDescriptor*>(std::move_iterator<MDMemoryDescriptor*> const&, std::move_iterator<MDMemoryDescriptor*> const&)
FUNC 35d04 54 0 std::allocator_traits<google_breakpad::PageStdAllocator<MDMemoryDescriptor> >::construct<MDMemoryDescriptor, MDMemoryDescriptor>
FUNC 35d58 14 0 MDMemoryDescriptor* std::__addressof<MDMemoryDescriptor>(MDMemoryDescriptor&)
FUNC 35d6c 24 0 std::move_iterator<MDMemoryDescriptor*>::operator*() const
FUNC 35d90 20 0 std::move_iterator<MDMemoryDescriptor*>::operator++()
FUNC 35db0 48 0 bool std::operator==<MDMemoryDescriptor*>(std::move_iterator<MDMemoryDescriptor*> const&, std::move_iterator<MDMemoryDescriptor*> const&)
FUNC 35df8 18 0 std::move_iterator<MDMemoryDescriptor*>::base() const
FUNC 35e10 54 0 std::allocator_traits<google_breakpad::PageStdAllocator<MDMemoryDescriptor> >::_S_construct<MDMemoryDescriptor, MDMemoryDescriptor>
FUNC 35e64 14 0 MDMemoryDescriptor&& std::forward<MDMemoryDescriptor>(std::remove_reference<MDMemoryDescriptor>::type&)
FUNC 35e78 58 0 void __gnu_cxx::new_allocator<MDMemoryDescriptor>::construct<MDMemoryDescriptor, MDMemoryDescriptor>(MDMemoryDescriptor*, MDMemoryDescriptor&&)
FUNC 35ed0 14 0 std::remove_reference<MDMemoryDescriptor&>::type&& std::move<MDMemoryDescriptor&>(MDMemoryDescriptor&)
FUNC 35ee4 20 0 std::move_iterator<MDMemoryDescriptor*>::move_iterator(MDMemoryDescriptor*)
FUNC 35f04 28 0 void std::allocator_traits<google_breakpad::PageStdAllocator<MDMemoryDescriptor> >::destroy<MDMemoryDescriptor>(google_breakpad::PageStdAllocator<MDMemoryDescriptor>&, MDMemoryDescriptor*)
FUNC 35f2c 28 0 std::allocator_traits<google_breakpad::PageStdAllocator<MDMemoryDescriptor> >::_S_destroy<MDMemoryDescriptor>
FUNC 35f54 14 0 void __gnu_cxx::new_allocator<MDMemoryDescriptor>::destroy<MDMemoryDescriptor>(MDMemoryDescriptor*)
FUNC 35f68 30 0 std::allocator_traits<google_breakpad::PageStdAllocator<MDMemoryDescriptor> >::deallocate(google_breakpad::PageStdAllocator<MDMemoryDescriptor>&, MDMemoryDescriptor*, unsigned int)
FUNC 35f98 18 0 google_breakpad::PageStdAllocator<MDMemoryDescriptor>::deallocate(MDMemoryDescriptor*, unsigned int)
FUNC 35fb0 78 0 google_breakpad::TypedMDRVA<MDRawDirectory>::TypedMDRVA(google_breakpad::MinidumpFileWriter*)
FUNC 36028 78 0 google_breakpad::TypedMDRVA<MDRawHeader>::TypedMDRVA(google_breakpad::MinidumpFileWriter*)
FUNC 360a0 44 0 google_breakpad::TypedMDRVA<MDRawHeader>::Allocate()
FUNC 360e4 88 0 google_breakpad::TypedMDRVA<MDRawDirectory>::AllocateArray(unsigned int)
FUNC 3616c 18 0 google_breakpad::TypedMDRVA<MDRawHeader>::get()
FUNC 36184 18 0 google_breakpad::UntypedMDRVA::position() const
FUNC 3619c 40 0 google_breakpad::TypedMDRVA<MDRawHeader>::~TypedMDRVA()
FUNC 361dc 874 0 (anonymous namespace)::MinidumpWriter::WriteThreadListStream(MDRawDirectory*)
FUNC 36a50 c8 0 google_breakpad::TypedMDRVA<MDRawDirectory>::CopyIndex(unsigned int, MDRawDirectory*)
FUNC 36b18 420 0 (anonymous namespace)::MinidumpWriter::WriteMappings(MDRawDirectory*)
FUNC 36f38 22c 0 (anonymous namespace)::MinidumpWriter::WriteAppMemory()
FUNC 37164 214 0 (anonymous namespace)::MinidumpWriter::WriteMemoryListStream(MDRawDirectory*)
FUNC 37378 1b4 0 (anonymous namespace)::MinidumpWriter::WriteExceptionStream(MDRawDirectory*)
FUNC 3752c 168 0 (anonymous namespace)::MinidumpWriter::WriteSystemInfoStream(MDRawDirectory*)
FUNC 37694 324 0 (anonymous namespace)::MinidumpWriter::WriteFile(MDLocationDescriptor*, char const*)
FUNC 379b8 30 0 (anonymous namespace)::MinidumpWriter::NullifyDirectoryEntry(MDRawDirectory*)
FUNC 379e8 d4 0 (anonymous namespace)::MinidumpWriter::WriteProcFile(MDLocationDescriptor*, int, char const*)
FUNC 37abc 24 0 (anonymous namespace)::MinidumpWriter::GetCrashThread() const
FUNC 37ae0 914 0 (anonymous namespace)::MinidumpWriter::WriteDSODebugStream(MDRawDirectory*)
FUNC 383f4 40 0 google_breakpad::TypedMDRVA<MDRawDirectory>::~TypedMDRVA()
FUNC 38434 18 0 google_breakpad::MinidumpFileWriter::position() const
FUNC 3844c 8 0 google_breakpad::minidump_size<MDRawHeader>::size()
FUNC 38454 8 0 google_breakpad::minidump_size<MDRawDirectory>::size()
FUNC 3845c 58 0 google_breakpad::TypedMDRVA<MDRawHeader>::Flush()
FUNC 384b4 18 0 google_breakpad::LinuxDumper::threads()
FUNC 384cc 50 0 google_breakpad::TypedMDRVA<unsigned int>::TypedMDRVA(google_breakpad::MinidumpFileWriter*)
FUNC 3851c a0 0 google_breakpad::TypedMDRVA<unsigned int>::AllocateObjectAndArray(unsigned int, unsigned int)
FUNC 385bc 24 0 google_breakpad::UntypedMDRVA::location() const
FUNC 385e0 18 0 google_breakpad::TypedMDRVA<unsigned int>::get()
FUNC 385f8 30 0 std::vector<int, google_breakpad::PageStdAllocator<int> >::operator[](unsigned int) const
FUNC 38628 278 0 (anonymous namespace)::MinidumpWriter::FillThreadStack(MDRawThread*, unsigned int, int, unsigned char**)
FUNC 388a0 4c 0 google_breakpad::UntypedMDRVA::UntypedMDRVA(google_breakpad::MinidumpFileWriter*)
FUNC 388ec 30 0 (anonymous namespace)::MinidumpWriter::Alloc(unsigned int)
FUNC 3891c 38 0 google_breakpad::UntypedMDRVA::Copy(void const*, unsigned int)
FUNC 38954 68 0 std::vector<MDMemoryDescriptor, google_breakpad::PageStdAllocator<MDMemoryDescriptor> >::push_back(MDMemoryDescriptor const&)
FUNC 389bc 78 0 google_breakpad::TypedMDRVA<MDRawContextARM>::TypedMDRVA(google_breakpad::MinidumpFileWriter*)
FUNC 38a34 44 0 google_breakpad::TypedMDRVA<MDRawContextARM>::Allocate()
FUNC 38a78 18 0 google_breakpad::TypedMDRVA<MDRawContextARM>::get()
FUNC 38a90 40 0 google_breakpad::TypedMDRVA<MDRawContextARM>::~TypedMDRVA()
FUNC 38ad0 b0 0 google_breakpad::TypedMDRVA<unsigned int>::CopyIndexAfterObject(unsigned int, void const*, unsigned int)
FUNC 38b80 40 0 google_breakpad::TypedMDRVA<unsigned int>::~TypedMDRVA()
FUNC 38bc0 8 0 google_breakpad::minidump_size<unsigned int>::size()
FUNC 38bc8 54 0 std::allocator_traits<google_breakpad::PageStdAllocator<MDMemoryDescriptor> >::construct<MDMemoryDescriptor, const MDMemoryDescriptor &>
FUNC 38c1c 184 0 void std::vector<MDMemoryDescriptor, google_breakpad::PageStdAllocator<MDMemoryDescriptor> >::_M_emplace_back_aux<MDMemoryDescriptor const&>(MDMemoryDescriptor const&)
FUNC 38da0 54 0 std::allocator_traits<google_breakpad::PageStdAllocator<MDMemoryDescriptor> >::_S_construct<MDMemoryDescriptor, const MDMemoryDescriptor &>
FUNC 38df4 14 0 MDMemoryDescriptor const& std::forward<MDMemoryDescriptor const&>(std::remove_reference<MDMemoryDescriptor const&>::type&)
FUNC 38e08 58 0 void __gnu_cxx::new_allocator<MDMemoryDescriptor>::construct<MDMemoryDescriptor, MDMemoryDescriptor const&>(MDMemoryDescriptor*, MDMemoryDescriptor const&)
FUNC 38e60 130 0 std::vector<MDMemoryDescriptor, google_breakpad::PageStdAllocator<MDMemoryDescriptor> >::_M_check_len(unsigned int, char const*) const
FUNC 38f90 58 0 MDMemoryDescriptor* std::__uninitialized_move_if_noexcept_a<MDMemoryDescriptor*, MDMemoryDescriptor*, google_breakpad::PageStdAllocator<MDMemoryDescriptor> >(MDMemoryDescriptor*, MDMemoryDescriptor*, MDMemoryDescriptor*, google_breakpad::PageStdAllocator<MDMemoryDescriptor>&)
FUNC 38fe8 8 0 google_breakpad::minidump_size<MDRawContextARM>::size()
FUNC 38ff0 58 0 google_breakpad::TypedMDRVA<MDRawContextARM>::Flush()
FUNC 39048 58 0 google_breakpad::TypedMDRVA<unsigned int>::Flush()
FUNC 390a0 44 0 std::list<google_breakpad::MappingEntry, std::allocator<google_breakpad::MappingEntry> >::size() const
FUNC 390e4 74 0 (anonymous namespace)::MinidumpWriter::ShouldIncludeMapping(google_breakpad::MappingInfo const&)
FUNC 39158 144 0 (anonymous namespace)::MinidumpWriter::HaveMappingInfo(google_breakpad::MappingInfo const&)
FUNC 3929c 44 0 google_breakpad::TypedMDRVA<unsigned int>::Allocate()
FUNC 392e0 34c 0 (anonymous namespace)::MinidumpWriter::FillRawModule(google_breakpad::MappingInfo const&, bool, unsigned int, MDRawModule*, unsigned char const*)
FUNC 3962c 7c 0 std::iterator_traits<std::_List_const_iterator<google_breakpad::MappingEntry> >::difference_type std::distance<std::_List_const_iterator<google_breakpad::MappingEntry> >(std::_List_const_iterator<google_breakpad::MappingEntry>, std::_List_const_iterator<google_breakpad::MappingEntry>)
FUNC 396a8 94 0 std::iterator_traits<std::_List_const_iterator<google_breakpad::MappingEntry> >::difference_type std::__distance<std::_List_const_iterator<google_breakpad::MappingEntry> >(std::_List_const_iterator<google_breakpad::MappingEntry>, std::_List_const_iterator<google_breakpad::MappingEntry>, std::input_iterator_tag)
FUNC 3973c 10 0 std::iterator_traits<std::_List_const_iterator<google_breakpad::MappingEntry> >::iterator_category std::__iterator_category<std::_List_const_iterator<google_breakpad::MappingEntry> >(std::_List_const_iterator<google_breakpad::MappingEntry> const&)
FUNC 3974c 88 0 std::vector<unsigned char, google_breakpad::PageStdAllocator<unsigned char> >::empty() const
FUNC 397d4 50 0 bool __gnu_cxx::operator==<unsigned char const*, std::vector<unsigned char, google_breakpad::PageStdAllocator<unsigned char> > >(__gnu_cxx::__normal_iterator<unsigned char const*, std::vector<unsigned char, google_breakpad::PageStdAllocator<unsigned char> > > const&, __gnu_cxx::__normal_iterator<unsigned char const*, std::vector<unsigned char, google_breakpad::PageStdAllocator<unsigned char> > > const&)
FUNC 39824 7c 0 std::vector<unsigned char, google_breakpad::PageStdAllocator<unsigned char> >::begin() const
FUNC 398a0 7c 0 std::vector<unsigned char, google_breakpad::PageStdAllocator<unsigned char> >::end() const
FUNC 3991c 78 0 std::list<google_breakpad::AppMemory, std::allocator<google_breakpad::AppMemory> >::begin() const
FUNC 39994 34 0 std::_List_const_iterator<google_breakpad::AppMemory>::operator!=(std::_List_const_iterator<google_breakpad::AppMemory> const&) const
FUNC 399c8 74 0 std::list<google_breakpad::AppMemory, std::allocator<google_breakpad::AppMemory> >::end() const
FUNC 39a3c 28 0 std::_List_const_iterator<google_breakpad::AppMemory>::operator->() const
FUNC 39a64 20 0 std::_List_const_iterator<google_breakpad::AppMemory>::operator++()
FUNC 39a84 20 0 std::_List_const_iterator<google_breakpad::AppMemory>::_List_const_iterator(std::__detail::_List_node_base const*)
FUNC 39aa4 14 0 google_breakpad::AppMemory const* std::__addressof<google_breakpad::AppMemory const>(google_breakpad::AppMemory const&)
FUNC 39ab8 30 0 std::vector<MDMemoryDescriptor, google_breakpad::PageStdAllocator<MDMemoryDescriptor> >::operator[](unsigned int)
FUNC 39ae8 78 0 google_breakpad::TypedMDRVA<MDRawExceptionStream>::TypedMDRVA(google_breakpad::MinidumpFileWriter*)
FUNC 39b60 44 0 google_breakpad::TypedMDRVA<MDRawExceptionStream>::Allocate()
FUNC 39ba4 18 0 google_breakpad::TypedMDRVA<MDRawExceptionStream>::get()
FUNC 39bbc 18 0 google_breakpad::LinuxDumper::crash_signal() const
FUNC 39bd4 18 0 google_breakpad::LinuxDumper::crash_address() const
FUNC 39bec 40 0 google_breakpad::TypedMDRVA<MDRawExceptionStream>::~TypedMDRVA()
FUNC 39c2c 8 0 google_breakpad::minidump_size<MDRawExceptionStream>::size()
FUNC 39c34 58 0 google_breakpad::TypedMDRVA<MDRawExceptionStream>::Flush()
FUNC 39c8c 78 0 google_breakpad::TypedMDRVA<MDRawSystemInfo>::TypedMDRVA(google_breakpad::MinidumpFileWriter*)
FUNC 39d04 44 0 google_breakpad::TypedMDRVA<MDRawSystemInfo>::Allocate()
FUNC 39d48 18 0 google_breakpad::TypedMDRVA<MDRawSystemInfo>::get()
FUNC 39d60 66c 0 (anonymous namespace)::MinidumpWriter::WriteCPUInformation(MDRawSystemInfo*)
FUNC 3a3cc 268 0 (anonymous namespace)::MinidumpWriter::WriteOSInformation(MDRawSystemInfo*)
FUNC 3a634 40 0 google_breakpad::TypedMDRVA<MDRawSystemInfo>::~TypedMDRVA()
FUNC 3a674 8 0 google_breakpad::minidump_size<MDRawSystemInfo>::size()
FUNC 3a67c 3c 0 google_breakpad::CpuSet::CpuSet()
FUNC 3a6b8 9c 0 sys_open(char const*, int, int)
FUNC 3a754 298 0 google_breakpad::CpuSet::ParseSysFile(int)
FUNC 3a9ec 7c 0 sys_close(int)
FUNC 3aa68 74 0 google_breakpad::CpuSet::IntersectWith(google_breakpad::CpuSet const&)
FUNC 3aadc b8 0 google_breakpad::CpuSet::GetCount()
FUNC 3ab94 40 0 google_breakpad::ProcCpuInfoReader::ProcCpuInfoReader(int)
FUNC 3abd4 208 0 google_breakpad::ProcCpuInfoReader::GetNextField(char const**)
FUNC 3addc 68 0 google_breakpad::ProcCpuInfoReader::GetValue()
FUNC 3ae44 78 0 google_breakpad::ProcCpuInfoReader::GetValueAndLen(unsigned int*)
FUNC 3aebc 9c 0 sys_read(int, void*, unsigned int)
FUNC 3af58 6c 0 google_breakpad::CpuSet::SetBit(unsigned int)
FUNC 3afc4 8 0 getpagesize()
FUNC 3afcc 8c 0 sys_munmap(void*, unsigned int)
FUNC 3b058 58 0 google_breakpad::TypedMDRVA<MDRawSystemInfo>::Flush()
FUNC 3b0b0 18 0 google_breakpad::LinuxDumper::auxv()
FUNC 3b0c8 30 0 std::vector<unsigned int, google_breakpad::PageStdAllocator<unsigned int> >::operator[](unsigned int) const
FUNC 3b0f8 78 0 google_breakpad::TypedMDRVA<MDRawLinkMap32>::TypedMDRVA(google_breakpad::MinidumpFileWriter*)
FUNC 3b170 88 0 google_breakpad::TypedMDRVA<MDRawLinkMap32>::AllocateArray(unsigned int)
FUNC 3b1f8 c8 0 google_breakpad::TypedMDRVA<MDRawLinkMap32>::CopyIndex(unsigned int, MDRawLinkMap32*)
FUNC 3b2c0 40 0 google_breakpad::TypedMDRVA<MDRawLinkMap32>::~TypedMDRVA()
FUNC 3b300 78 0 google_breakpad::TypedMDRVA<MDRawDebug32>::TypedMDRVA(google_breakpad::MinidumpFileWriter*)
FUNC 3b378 a0 0 google_breakpad::TypedMDRVA<MDRawDebug32>::AllocateObjectAndArray(unsigned int, unsigned int)
FUNC 3b418 18 0 google_breakpad::TypedMDRVA<MDRawDebug32>::get()
FUNC 3b430 b8 0 google_breakpad::wasteful_vector<char>::wasteful_vector(google_breakpad::PageAllocator*, unsigned int)
FUNC 3b4e8 9c 0 std::vector<char, google_breakpad::PageStdAllocator<char> >::resize(unsigned int)
FUNC 3b584 24 0 std::vector<char, google_breakpad::PageStdAllocator<char> >::operator[](unsigned int)
FUNC 3b5a8 b0 0 google_breakpad::TypedMDRVA<MDRawDebug32>::CopyIndexAfterObject(unsigned int, void const*, unsigned int)
FUNC 3b658 38 0 google_breakpad::wasteful_vector<char>::~wasteful_vector()
FUNC 3b690 40 0 google_breakpad::TypedMDRVA<MDRawDebug32>::~TypedMDRVA()
FUNC 3b6d0 8 0 google_breakpad::minidump_size<MDRawLinkMap32>::size()
FUNC 3b6d8 58 0 google_breakpad::TypedMDRVA<MDRawLinkMap32>::Flush()
FUNC 3b730 8 0 google_breakpad::minidump_size<MDRawDebug32>::size()
FUNC 3b738 50 0 google_breakpad::PageStdAllocator<char>::PageStdAllocator(google_breakpad::PageAllocator&)
FUNC 3b788 44 0 std::vector<char, google_breakpad::PageStdAllocator<char> >::vector(google_breakpad::PageStdAllocator<char> const&)
FUNC 3b7cc 38 0 google_breakpad::PageStdAllocator<char>::~PageStdAllocator()
FUNC 3b804 13c 0 std::vector<char, google_breakpad::PageStdAllocator<char> >::reserve(unsigned int)
FUNC 3b940 38 0 std::_Vector_base<char, google_breakpad::PageStdAllocator<char> >::_Vector_base(google_breakpad::PageStdAllocator<char> const&)
FUNC 3b978 54 0 std::_Vector_base<char, google_breakpad::PageStdAllocator<char> >::_Vector_impl::_Vector_impl(google_breakpad::PageStdAllocator<char> const&)
FUNC 3b9cc 60 0 google_breakpad::PageStdAllocator<char>::PageStdAllocator(google_breakpad::PageStdAllocator<char> const&)
FUNC 3ba2c 24 0 std::vector<char, google_breakpad::PageStdAllocator<char> >::max_size() const
FUNC 3ba50 20 0 std::vector<char, google_breakpad::PageStdAllocator<char> >::capacity() const
FUNC 3ba70 20 0 std::vector<char, google_breakpad::PageStdAllocator<char> >::size() const
FUNC 3ba90 b8 0 char* std::vector<char, google_breakpad::PageStdAllocator<char> >::_M_allocate_and_copy<std::move_iterator<char*> >(unsigned int, std::move_iterator<char*>, std::move_iterator<char*>)
FUNC 3bb48 74 0 std::move_iterator<char*> std::__make_move_if_noexcept_iterator<char*, std::move_iterator<char*> >(char*)
FUNC 3bbbc 68 0 void std::_Destroy<char*, google_breakpad::PageStdAllocator<char> >(char*, char*, google_breakpad::PageStdAllocator<char>&)
FUNC 3bc24 14 0 std::_Vector_base<char, google_breakpad::PageStdAllocator<char> >::_M_get_Tp_allocator()
FUNC 3bc38 48 0 std::_Vector_base<char, google_breakpad::PageStdAllocator<char> >::_M_deallocate(char*, unsigned int)
FUNC 3bc80 24 0 std::allocator_traits<google_breakpad::PageStdAllocator<char> >::max_size(google_breakpad::PageStdAllocator<char> const&)
FUNC 3bca4 14 0 std::_Vector_base<char, google_breakpad::PageStdAllocator<char> >::_M_get_Tp_allocator() const
FUNC 3bcb8 24 0 unsigned int std::allocator_traits<google_breakpad::PageStdAllocator<char> >::_S_max_size<google_breakpad::PageStdAllocator<char> const, void>(google_breakpad::PageStdAllocator<char> const&, int)
FUNC 3bcdc 18 0 __gnu_cxx::new_allocator<char>::max_size() const
FUNC 3bcf4 54 0 std::_Vector_base<char, google_breakpad::PageStdAllocator<char> >::_M_allocate(unsigned int)
FUNC 3bd48 d8 0 char* std::__uninitialized_copy_a<std::move_iterator<char*>, char*, google_breakpad::PageStdAllocator<char> >(std::move_iterator<char*>, std::move_iterator<char*>, char*, google_breakpad::PageStdAllocator<char>&)
FUNC 3be20 2c 0 std::allocator_traits<google_breakpad::PageStdAllocator<char> >::allocate(google_breakpad::PageStdAllocator<char>&, unsigned int)
FUNC 3be4c 78 0 google_breakpad::PageStdAllocator<char>::allocate(unsigned int, void const*)
FUNC 3bec4 34 0 bool std::operator!=<char*>(std::move_iterator<char*> const&, std::move_iterator<char*> const&)
FUNC 3bef8 54 0 std::allocator_traits<google_breakpad::PageStdAllocator<char> >::construct<char, char>
FUNC 3bf4c 14 0 char* std::__addressof<char>(char&)
FUNC 3bf60 24 0 std::move_iterator<char*>::operator*() const
FUNC 3bf84 20 0 std::move_iterator<char*>::operator++()
FUNC 3bfa4 48 0 bool std::operator==<char*>(std::move_iterator<char*> const&, std::move_iterator<char*> const&)
FUNC 3bfec 18 0 std::move_iterator<char*>::base() const
FUNC 3c004 54 0 std::allocator_traits<google_breakpad::PageStdAllocator<char> >::_S_construct<char, char>
FUNC 3c058 14 0 char&& std::forward<char>(std::remove_reference<char>::type&)
FUNC 3c06c 40 0 void __gnu_cxx::new_allocator<char>::construct<char, char>(char*, char&&)
FUNC 3c0ac 14 0 std::remove_reference<char&>::type&& std::move<char&>(char&)
FUNC 3c0c0 20 0 std::move_iterator<char*>::move_iterator(char*)
FUNC 3c0e0 28 0 void std::allocator_traits<google_breakpad::PageStdAllocator<char> >::destroy<char>(google_breakpad::PageStdAllocator<char>&, char*)
FUNC 3c108 28 0 std::allocator_traits<google_breakpad::PageStdAllocator<char> >::_S_destroy<char>
FUNC 3c130 14 0 void __gnu_cxx::new_allocator<char>::destroy<char>(char*)
FUNC 3c144 30 0 std::allocator_traits<google_breakpad::PageStdAllocator<char> >::deallocate(google_breakpad::PageStdAllocator<char>&, char*, unsigned int)
FUNC 3c174 18 0 google_breakpad::PageStdAllocator<char>::deallocate(char*, unsigned int)
FUNC 3c18c 1f0 0 std::vector<char, google_breakpad::PageStdAllocator<char> >::_M_default_append(unsigned int)
FUNC 3c37c 70 0 std::vector<char, google_breakpad::PageStdAllocator<char> >::_M_erase_at_end(char*)
FUNC 3c3ec 7c 0 void std::__uninitialized_default_n_a<char*, unsigned int, google_breakpad::PageStdAllocator<char> >(char*, unsigned int, google_breakpad::PageStdAllocator<char>&)
FUNC 3c468 130 0 std::vector<char, google_breakpad::PageStdAllocator<char> >::_M_check_len(unsigned int, char const*) const
FUNC 3c598 58 0 char* std::__uninitialized_move_if_noexcept_a<char*, char*, google_breakpad::PageStdAllocator<char> >(char*, char*, char*, google_breakpad::PageStdAllocator<char>&)
FUNC 3c5f0 28 0 std::allocator_traits<google_breakpad::PageStdAllocator<char> >::construct<char>
FUNC 3c618 28 0 std::allocator_traits<google_breakpad::PageStdAllocator<char> >::_S_construct<char>
FUNC 3c640 20 0 void __gnu_cxx::new_allocator<char>::construct<char>(char*)
FUNC 3c660 68 0 std::vector<char, google_breakpad::PageStdAllocator<char> >::~vector()
FUNC 3c6c8 48 0 std::_Vector_base<char, google_breakpad::PageStdAllocator<char> >::~_Vector_base()
FUNC 3c710 38 0 std::_Vector_base<char, google_breakpad::PageStdAllocator<char> >::_Vector_impl::~_Vector_impl()
FUNC 3c748 58 0 google_breakpad::TypedMDRVA<MDRawDebug32>::Flush()
FUNC 3c7a0 58 0 google_breakpad::TypedMDRVA<MDRawDirectory>::Flush()
FUNC 3c7f8 38 0 google_breakpad::wasteful_vector<MDMemoryDescriptor>::~wasteful_vector()
FUNC 3c830 68 0 std::vector<MDMemoryDescriptor, google_breakpad::PageStdAllocator<MDMemoryDescriptor> >::~vector()
FUNC 3c898 78 0 std::_Vector_base<MDMemoryDescriptor, google_breakpad::PageStdAllocator<MDMemoryDescriptor> >::~_Vector_base()
FUNC 3c910 38 0 std::_Vector_base<MDMemoryDescriptor, google_breakpad::PageStdAllocator<MDMemoryDescriptor> >::_Vector_impl::~_Vector_impl()
FUNC 3c948 30 0 google_breakpad::MinidumpFileWriter::MinidumpFileWriter()
FUNC 3c978 40 0 google_breakpad::MinidumpFileWriter::~MinidumpFileWriter()
FUNC 3c9b8 ac 0 google_breakpad::MinidumpFileWriter::Close()
FUNC 3ca64 8c 0 google_breakpad::MinidumpFileWriter::Open(char const*)
FUNC 3caf0 9c 0 sys_open(char const*, int, int)
FUNC 3cb8c 7c 0 google_breakpad::MinidumpFileWriter::SetFile(int)
FUNC 3cc08 ac 0 (anonymous namespace)::CheckNeedsFTruncateWorkAround(int)
FUNC 3ccb4 18 0 (anonymous namespace)::NeedsFTruncateWorkAround()
FUNC 3cccc 7c 0 sys_close(int)
FUNC 3cd48 158 0 google_breakpad::MinidumpFileWriter::CopyStringToMDString(wchar_t const*, unsigned int, google_breakpad::TypedMDRVA<MDString>*)
FUNC 3cea0 b0 0 google_breakpad::TypedMDRVA<MDString>::CopyIndexAfterObject(unsigned int, void const*, unsigned int)
FUNC 3cf50 164 0 google_breakpad::MinidumpFileWriter::CopyStringToMDString(char const*, unsigned int, google_breakpad::TypedMDRVA<MDString>*)
FUNC 3d0b4 3c 0 google_breakpad::MinidumpFileWriter::WriteString(wchar_t const*, unsigned int, MDLocationDescriptor*)
FUNC 3d0f0 2a4 0 bool google_breakpad::MinidumpFileWriter::WriteStringCore<wchar_t>(wchar_t const*, unsigned int, MDLocationDescriptor*)
FUNC 3d394 3c 0 google_breakpad::MinidumpFileWriter::WriteString(char const*, unsigned int, MDLocationDescriptor*)
FUNC 3d3d0 29c 0 bool google_breakpad::MinidumpFileWriter::WriteStringCore<char>(char const*, unsigned int, MDLocationDescriptor*)
FUNC 3d66c 1bc 0 google_breakpad::MinidumpFileWriter::WriteMemory(void const*, unsigned int, MDMemoryDescriptor*)
FUNC 3d828 94 0 google_breakpad::UntypedMDRVA::Allocate(unsigned int)
FUNC 3d8bc 18 0 google_breakpad::UntypedMDRVA::size() const
FUNC 3d8d4 1a4 0 google_breakpad::MinidumpFileWriter::Allocate(unsigned int)
FUNC 3da78 8 0 getpagesize()
FUNC 3da80 17c 0 google_breakpad::MinidumpFileWriter::Copy(unsigned int, void const*, int)
FUNC 3dbfc 9c 0 sys_lseek(int, long, int)
FUNC 3dc98 9c 0 sys_write(int, void const*, unsigned int)
FUNC 3dd34 118 0 google_breakpad::UntypedMDRVA::Copy(unsigned int, void const*, unsigned int)
FUNC 3de4c 8 0 google_breakpad::minidump_size<MDString>::size()
FUNC 3de54 78 0 google_breakpad::TypedMDRVA<MDString>::TypedMDRVA(google_breakpad::MinidumpFileWriter*)
FUNC 3decc a0 0 google_breakpad::TypedMDRVA<MDString>::AllocateObjectAndArray(unsigned int, unsigned int)
FUNC 3df6c 18 0 google_breakpad::TypedMDRVA<MDString>::get()
FUNC 3df84 40 0 google_breakpad::TypedMDRVA<MDString>::~TypedMDRVA()
FUNC 3dfc4 58 0 google_breakpad::TypedMDRVA<MDString>::Flush()
FUNC 3e058 1c0 0 google_breakpad::UTF8ToUTF16(char const*, std::vector<unsigned short, std::allocator<unsigned short> >*)
FUNC 3e218 24 0 std::vector<unsigned short, std::allocator<unsigned short> >::clear()
FUNC 3e23c e4 0 std::vector<unsigned short, std::allocator<unsigned short> >::insert(__gnu_cxx::__normal_iterator<unsigned short const*, std::vector<unsigned short, std::allocator<unsigned short> > >, unsigned int, unsigned short const&)
FUNC 3e320 74 0 std::vector<unsigned short, std::allocator<unsigned short> >::begin()
FUNC 3e394 40 0 __gnu_cxx::__normal_iterator<const unsigned short *, std::vector<unsigned short, std::allocator<unsigned short> > >::__normal_iterator<unsigned short *>
FUNC 3e3d4 30 0 std::vector<unsigned short, std::allocator<unsigned short> >::operator[](unsigned int)
FUNC 3e404 3c 0 std::vector<unsigned short, std::allocator<unsigned short> >::capacity() const
FUNC 3e440 ac 0 std::vector<unsigned short, std::allocator<unsigned short> >::resize(unsigned int)
FUNC 3e4ec 128 0 google_breakpad::UTF8ToUTF16Char(char const*, int, unsigned short*)
FUNC 3e614 1c0 0 google_breakpad::UTF32ToUTF16(wchar_t const*, std::vector<unsigned short, std::allocator<unsigned short> >*)
FUNC 3e7d4 dc 0 google_breakpad::UTF32ToUTF16Char(wchar_t, unsigned short*)
FUNC 3e8b0 2ec 0 google_breakpad::UTF16ToUTF8(std::vector<unsigned short, std::allocator<unsigned short> > const&, bool)
FUNC 3eb9c 30 0 std::vector<unsigned short, std::allocator<unsigned short> >::operator[](unsigned int) const
FUNC 3ebcc 20 0 google_breakpad::scoped_array<unsigned short>::scoped_array(unsigned short*)
FUNC 3ebec 60 0 google_breakpad::scoped_array<unsigned short>::reset(unsigned short*)
FUNC 3ec4c 3c 0 std::vector<unsigned short, std::allocator<unsigned short> >::size() const
FUNC 3ec88 18 0 google_breakpad::scoped_array<unsigned short>::get() const
FUNC 3eca0 7c 0 std::vector<unsigned short, std::allocator<unsigned short> >::begin() const
FUNC 3ed1c 50 0 bool __gnu_cxx::operator!=<unsigned short const*, std::vector<unsigned short, std::allocator<unsigned short> > >(__gnu_cxx::__normal_iterator<unsigned short const*, std::vector<unsigned short, std::allocator<unsigned short> > > const&, __gnu_cxx::__normal_iterator<unsigned short const*, std::vector<unsigned short, std::allocator<unsigned short> > > const&)
FUNC 3ed6c 7c 0 std::vector<unsigned short, std::allocator<unsigned short> >::end() const
FUNC 3ede8 34 0 google_breakpad::Swap(unsigned short)
FUNC 3ee1c 18 0 __gnu_cxx::__normal_iterator<unsigned short const*, std::vector<unsigned short, std::allocator<unsigned short> > >::operator*() const
FUNC 3ee34 20 0 __gnu_cxx::__normal_iterator<unsigned short const*, std::vector<unsigned short, std::allocator<unsigned short> > >::operator++()
FUNC 3ee54 20 0 google_breakpad::scoped_array<unsigned char>::scoped_array(unsigned char*)
FUNC 3ee74 18 0 google_breakpad::scoped_array<unsigned char>::get() const
FUNC 3ee8c 40 0 google_breakpad::scoped_array<unsigned char>::~scoped_array()
FUNC 3eecc 40 0 google_breakpad::scoped_array<unsigned short>::~scoped_array()
FUNC 3ef0c 70 0 std::vector<unsigned short, std::allocator<unsigned short> >::_M_erase_at_end(unsigned short*)
FUNC 3ef7c 2c 0 void std::_Destroy<unsigned short*, unsigned short>(unsigned short*, unsigned short*, std::allocator<unsigned short>&)
FUNC 3efa8 14 0 std::_Vector_base<unsigned short, std::allocator<unsigned short> >::_M_get_Tp_allocator()
FUNC 3efbc 28 0 void std::_Destroy<unsigned short*>(unsigned short*, unsigned short*)
FUNC 3efe4 14 0 void std::_Destroy_aux<true>::__destroy<unsigned short*>(unsigned short*, unsigned short*)
FUNC 3eff8 24 0 __gnu_cxx::__normal_iterator<unsigned short*, std::vector<unsigned short, std::allocator<unsigned short> > >::__normal_iterator(unsigned short* const&)
FUNC 3f01c 58 0 __gnu_cxx::__normal_iterator<unsigned short const*, std::vector<unsigned short, std::allocator<unsigned short> > >::difference_type __gnu_cxx::operator-<unsigned short const*, std::vector<unsigned short, std::allocator<unsigned short> > >(__gnu_cxx::__normal_iterator<unsigned short const*, std::vector<unsigned short, std::allocator<unsigned short> > > const&, __gnu_cxx::__normal_iterator<unsigned short const*, std::vector<unsigned short, std::allocator<unsigned short> > > const&)
FUNC 3f074 7c 0 std::vector<unsigned short, std::allocator<unsigned short> >::cbegin() const
FUNC 3f0f0 480 0 std::vector<unsigned short, std::allocator<unsigned short> >::_M_fill_insert(__gnu_cxx::__normal_iterator<unsigned short*, std::vector<unsigned short, std::allocator<unsigned short> > >, unsigned int, unsigned short const&)
FUNC 3f570 94 0 __gnu_cxx::__normal_iterator<unsigned short*, std::vector<unsigned short, std::allocator<unsigned short> > >::operator+(int) const
FUNC 3f604 14 0 __gnu_cxx::__normal_iterator<unsigned short const*, std::vector<unsigned short, std::allocator<unsigned short> > >::base() const
FUNC 3f618 24 0 __gnu_cxx::__normal_iterator<unsigned short const*, std::vector<unsigned short, std::allocator<unsigned short> > >::__normal_iterator(unsigned short const* const&)
FUNC 3f63c 58 0 __gnu_cxx::__normal_iterator<unsigned short*, std::vector<unsigned short, std::allocator<unsigned short> > >::difference_type __gnu_cxx::operator-<unsigned short*, std::vector<unsigned short, std::allocator<unsigned short> > >(__gnu_cxx::__normal_iterator<unsigned short*, std::vector<unsigned short, std::allocator<unsigned short> > > const&, __gnu_cxx::__normal_iterator<unsigned short*, std::vector<unsigned short, std::allocator<unsigned short> > > const&)
FUNC 3f694 78 0 std::vector<unsigned short, std::allocator<unsigned short> >::end()
FUNC 3f70c 58 0 unsigned short* std::__uninitialized_move_a<unsigned short*, unsigned short*, std::allocator<unsigned short> >(unsigned short*, unsigned short*, unsigned short*, std::allocator<unsigned short>&)
FUNC 3f764 50 0 unsigned short* std::move_backward<unsigned short*, unsigned short*>(unsigned short*, unsigned short*, unsigned short*)
FUNC 3f7b4 14 0 __gnu_cxx::__normal_iterator<unsigned short*, std::vector<unsigned short, std::allocator<unsigned short> > >::base() const
FUNC 3f7c8 50 0 void std::fill<unsigned short*, unsigned short>(unsigned short*, unsigned short*, unsigned short const&)
FUNC 3f818 34 0 void std::__uninitialized_fill_n_a<unsigned short*, unsigned int, unsigned short, unsigned short>(unsigned short*, unsigned int, unsigned short const&, std::allocator<unsigned short>&)
FUNC 3f84c 130 0 std::vector<unsigned short, std::allocator<unsigned short> >::_M_check_len(unsigned int, char const*) const
FUNC 3f97c 54 0 std::_Vector_base<unsigned short, std::allocator<unsigned short> >::_M_allocate(unsigned int)
FUNC 3f9d0 58 0 unsigned short* std::__uninitialized_move_if_noexcept_a<unsigned short*, unsigned short*, std::allocator<unsigned short> >(unsigned short*, unsigned short*, unsigned short*, std::allocator<unsigned short>&)
FUNC 3fa28 48 0 std::_Vector_base<unsigned short, std::allocator<unsigned short> >::_M_deallocate(unsigned short*, unsigned int)
FUNC 3fa70 88 0 unsigned short* std::__uninitialized_copy_a<std::move_iterator<unsigned short*>, unsigned short*, unsigned short>(std::move_iterator<unsigned short*>, std::move_iterator<unsigned short*>, unsigned short*, std::allocator<unsigned short>&)
FUNC 3faf8 74 0 std::move_iterator<unsigned short*> std::make_move_iterator<unsigned short*>(unsigned short*)
FUNC 3fb6c 8c 0 unsigned short* std::uninitialized_copy<std::move_iterator<unsigned short*>, unsigned short*>(std::move_iterator<unsigned short*>, std::move_iterator<unsigned short*>, unsigned short*)
FUNC 3fbf8 84 0 unsigned short* std::__uninitialized_copy<true>::__uninit_copy<std::move_iterator<unsigned short*>, unsigned short*>(std::move_iterator<unsigned short*>, std::move_iterator<unsigned short*>, unsigned short*)
FUNC 3fc7c 94 0 unsigned short* std::copy<std::move_iterator<unsigned short*>, unsigned short*>(std::move_iterator<unsigned short*>, std::move_iterator<unsigned short*>, unsigned short*)
FUNC 3fd10 60 0 unsigned short* std::__copy_move_a2<true, unsigned short*, unsigned short*>(unsigned short*, unsigned short*, unsigned short*)
FUNC 3fd70 5c 0 std::_Miter_base<std::move_iterator<unsigned short*> >::iterator_type std::__miter_base<std::move_iterator<unsigned short*> >(std::move_iterator<unsigned short*>)
FUNC 3fdcc 38 0 unsigned short* std::__copy_move_a<true, unsigned short*, unsigned short*>(unsigned short*, unsigned short*, unsigned short*)
FUNC 3fe04 20 0 std::_Niter_base<unsigned short*>::iterator_type std::__niter_base<unsigned short*>(unsigned short*)
FUNC 3fe24 90 0 unsigned short* std::__copy_move<true, true, std::random_access_iterator_tag>::__copy_m<unsigned short>(unsigned short const*, unsigned short const*, unsigned short*)
FUNC 3feb4 14 0 std::_Iter_base<unsigned short*, false>::_S_base(unsigned short*)
FUNC 3fec8 60 0 std::_Iter_base<std::move_iterator<unsigned short*>, true>::_S_base(std::move_iterator<unsigned short*>)
FUNC 3ff28 18 0 std::move_iterator<unsigned short*>::base() const
FUNC 3ff40 20 0 std::move_iterator<unsigned short*>::move_iterator(unsigned short*)
FUNC 3ff60 60 0 unsigned short* std::__copy_move_backward_a2<true, unsigned short*, unsigned short*>(unsigned short*, unsigned short*, unsigned short*)
FUNC 3ffc0 20 0 std::_Miter_base<unsigned short*>::iterator_type std::__miter_base<unsigned short*>(unsigned short*)
FUNC 3ffe0 38 0 unsigned short* std::__copy_move_backward_a<true, unsigned short*, unsigned short*>(unsigned short*, unsigned short*, unsigned short*)
FUNC 40018 98 0 unsigned short* std::__copy_move_backward<true, true, std::random_access_iterator_tag>::__copy_move_b<unsigned short>(unsigned short const*, unsigned short const*, unsigned short*)
FUNC 400b0 50 0 std::__fill_a<unsigned short *, unsigned short>
FUNC 40100 38 0 void std::uninitialized_fill_n<unsigned short*, unsigned int, unsigned short>(unsigned short*, unsigned int, unsigned short const&)
FUNC 40138 34 0 void std::__uninitialized_fill_n<true>::__uninit_fill_n<unsigned short*, unsigned int, unsigned short>(unsigned short*, unsigned int, unsigned short const&)
FUNC 4016c 34 0 unsigned short* std::fill_n<unsigned short*, unsigned int, unsigned short>(unsigned short*, unsigned int, unsigned short const&)
FUNC 401a0 68 0 std::__fill_n_a<unsigned short *, unsigned int, unsigned short>
FUNC 40208 24 0 std::vector<unsigned short, std::allocator<unsigned short> >::max_size() const
FUNC 4022c 24 0 std::allocator_traits<std::allocator<unsigned short> >::max_size(std::allocator<unsigned short> const&)
FUNC 40250 14 0 std::_Vector_base<unsigned short, std::allocator<unsigned short> >::_M_get_Tp_allocator() const
FUNC 40264 24 0 unsigned int std::allocator_traits<std::allocator<unsigned short> >::_S_max_size<std::allocator<unsigned short> const, void>(std::allocator<unsigned short> const&, int)
FUNC 40288 1c 0 __gnu_cxx::new_allocator<unsigned short>::max_size() const
FUNC 402a4 2c 0 std::allocator_traits<std::allocator<unsigned short> >::allocate(std::allocator<unsigned short>&, unsigned int)
FUNC 402d0 58 0 __gnu_cxx::new_allocator<unsigned short>::allocate(unsigned int, void const*)
FUNC 40328 74 0 std::move_iterator<unsigned short*> std::__make_move_if_noexcept_iterator<unsigned short*, std::move_iterator<unsigned short*> >(unsigned short*)
FUNC 4039c 30 0 std::allocator_traits<std::allocator<unsigned short> >::deallocate(std::allocator<unsigned short>&, unsigned short*, unsigned int)
FUNC 403cc 28 0 __gnu_cxx::new_allocator<unsigned short>::deallocate(unsigned short*, unsigned int)
FUNC 403f4 208 0 std::vector<unsigned short, std::allocator<unsigned short> >::_M_default_append(unsigned int)
FUNC 405fc 2c 0 void std::__uninitialized_default_n_a<unsigned short*, unsigned int, unsigned short>(unsigned short*, unsigned int, std::allocator<unsigned short>&)
FUNC 40628 30 0 void std::__uninitialized_default_n<unsigned short*, unsigned int>(unsigned short*, unsigned int)
FUNC 40658 6c 0 void std::__uninitialized_default_n_1<true>::__uninit_default_n<unsigned short*, unsigned int>(unsigned short*, unsigned int)
FUNC 406c4 40 0 google_breakpad::IsValidElf(void const*)
FUNC 40704 20 0 google_breakpad::ElfClass(void const*)
FUNC 40724 208 0 google_breakpad::FindElfSection(void const*, char const*, unsigned int, void const**, unsigned int*, int*)
FUNC 4092c 250 0 void google_breakpad::(anonymous namespace)::FindElfClassSection<google_breakpad::ElfClass32>(char const*, char const*, google_breakpad::ElfClass32::Word, void const**, unsigned int*)
FUNC 40b7c 25c 0 void google_breakpad::(anonymous namespace)::FindElfClassSection<google_breakpad::ElfClass64>(char const*, char const*, google_breakpad::ElfClass64::Word, void const**, unsigned int*)
FUNC 40dd8 1f0 0 google_breakpad::FindElfSegment(void const*, unsigned int, void const**, unsigned int*, int*)
FUNC 40fc8 228 0 void google_breakpad::(anonymous namespace)::FindElfClassSegment<google_breakpad::ElfClass32>(char const*, google_breakpad::ElfClass32::Word, void const**, unsigned int*)
FUNC 411f0 228 0 void google_breakpad::(anonymous namespace)::FindElfClassSegment<google_breakpad::ElfClass64>(char const*, google_breakpad::ElfClass64::Word, void const**, unsigned int*)
FUNC 41418 20 0 Elf32_Shdr const* google_breakpad::GetOffset<google_breakpad::ElfClass32, Elf32_Shdr>(google_breakpad::ElfClass32::Ehdr const*, google_breakpad::ElfClass32::Off)
FUNC 41438 20 0 char const* google_breakpad::GetOffset<google_breakpad::ElfClass32, char>(google_breakpad::ElfClass32::Ehdr const*, google_breakpad::ElfClass32::Off)
FUNC 41458 1dc 0 google_breakpad::ElfClass32::Shdr const* google_breakpad::FindElfSectionByName<google_breakpad::ElfClass32>(char const*, google_breakpad::ElfClass32::Word, google_breakpad::ElfClass32::Shdr const*, char const*, char const*, int)
FUNC 41634 20 0 Elf64_Shdr const* google_breakpad::GetOffset<google_breakpad::ElfClass64, Elf64_Shdr>(google_breakpad::ElfClass64::Ehdr const*, google_breakpad::ElfClass64::Off)
FUNC 41654 20 0 char const* google_breakpad::GetOffset<google_breakpad::ElfClass64, char>(google_breakpad::ElfClass64::Ehdr const*, google_breakpad::ElfClass64::Off)
FUNC 41674 1d4 0 google_breakpad::ElfClass64::Shdr const* google_breakpad::FindElfSectionByName<google_breakpad::ElfClass64>(char const*, google_breakpad::ElfClass64::Word, google_breakpad::ElfClass64::Shdr const*, char const*, char const*, int)
FUNC 41848 20 0 Elf32_Phdr const* google_breakpad::GetOffset<google_breakpad::ElfClass32, Elf32_Phdr>(google_breakpad::ElfClass32::Ehdr const*, google_breakpad::ElfClass32::Off)
FUNC 41868 20 0 Elf64_Phdr const* google_breakpad::GetOffset<google_breakpad::ElfClass64, Elf64_Phdr>(google_breakpad::ElfClass64::Ehdr const*, google_breakpad::ElfClass64::Off)
FUNC 41888 9c 0 google_breakpad::FileID::FileID(char const*)
FUNC 41924 5c 0 google_breakpad::FileID::ElfFileIdentifierFromMappedFile(void const*, google_breakpad::wasteful_vector<unsigned char>&)
FUNC 41980 158 0 google_breakpad::FindElfBuildIDNote(void const*, google_breakpad::wasteful_vector<unsigned char>&)
FUNC 41ad8 1a4 0 google_breakpad::HashElfTextSection(void const*, google_breakpad::wasteful_vector<unsigned char>&)
FUNC 41c7c e0 0 google_breakpad::FileID::ElfFileIdentifier(google_breakpad::wasteful_vector<unsigned char>&)
FUNC 41d5c 144 0 google_breakpad::FileID::ConvertIdentifierToUUIDString(google_breakpad::wasteful_vector<unsigned char> const&)
FUNC 41ea0 24 0 std::vector<unsigned char, google_breakpad::PageStdAllocator<unsigned char> >::operator[](unsigned int) const
FUNC 41ec4 f4 0 google_breakpad::bytes_to_hex_string(unsigned char const*, unsigned int)
FUNC 41fb8 58 0 google_breakpad::FileID::ConvertIdentifierToString(google_breakpad::wasteful_vector<unsigned char> const&)
FUNC 42010 17c 0 bool google_breakpad::ElfClassBuildIDNoteIdentifier<google_breakpad::ElfClass32>(void const*, unsigned int, google_breakpad::wasteful_vector<unsigned char>&)
FUNC 4218c 17c 0 bool google_breakpad::ElfClassBuildIDNoteIdentifier<google_breakpad::ElfClass64>(void const*, unsigned int, google_breakpad::wasteful_vector<unsigned char>&)
FUNC 42308 c0 0 sys_mmap(void*, unsigned int, int, int, int, long long)
FUNC 423c8 d4 0 sys__mmap2(void*, unsigned int, int, int, int, long)
FUNC 4249c 9c 0 std::vector<unsigned char, google_breakpad::PageStdAllocator<unsigned char> >::resize(unsigned int)
FUNC 42538 1f0 0 std::vector<unsigned char, google_breakpad::PageStdAllocator<unsigned char> >::_M_default_append(unsigned int)
FUNC 42728 70 0 std::vector<unsigned char, google_breakpad::PageStdAllocator<unsigned char> >::_M_erase_at_end(unsigned char*)
FUNC 42798 7c 0 void std::__uninitialized_default_n_a<unsigned char*, unsigned int, google_breakpad::PageStdAllocator<unsigned char> >(unsigned char*, unsigned int, google_breakpad::PageStdAllocator<unsigned char>&)
FUNC 42814 28 0 std::allocator_traits<google_breakpad::PageStdAllocator<unsigned char> >::construct<unsigned char>
FUNC 4283c 28 0 std::allocator_traits<google_breakpad::PageStdAllocator<unsigned char> >::_S_construct<unsigned char>
FUNC 42864 20 0 void __gnu_cxx::new_allocator<unsigned char>::construct<unsigned char>(unsigned char*)
FUNC 42884 24 0 CreateGUID(MDGUID*)
FUNC 428a8 94 0 GUIDGenerator::CreateGUID(MDGUID*)
FUNC 4293c 144 0 GUIDToString(MDGUID const*, char*, int)
FUNC 42a80 60 0 GUIDGenerator::BytesToUInt32(unsigned char const*)
FUNC 42ae0 34 0 GUIDGenerator::InitOnce()
FUNC 42b14 10 0 random()
FUNC 42b24 78 0 GUIDGenerator::UInt32ToBytes(unsigned char*, unsigned int)
FUNC 42b9c 18 0 GUIDGenerator::InitOnceImpl()
FUNC 42bb4 20 0 srandom(unsigned int)
FUNC 42bd4 44 0 my_strlen
FUNC 42c18 a0 0 my_strcmp
FUNC 42cb8 d0 0 my_strncmp
FUNC 42d88 104 0 my_strtoui
FUNC 42e8c 90 0 my_uint_len
FUNC 42f1c 9c 0 my_uitos
FUNC 42fb8 90 0 my_strchr
FUNC 43048 5c 0 my_strrchr
FUNC 430a4 80 0 my_memchr
FUNC 43124 144 0 my_read_hex_ptr
FUNC 43268 90 0 my_read_decimal_ptr
FUNC 432f8 50 0 my_memset
FUNC 43348 b0 0 my_strlcpy
FUNC 433f8 dc 0 my_strlcat
FUNC 434d4 74 0 my_isspace
FUNC 43548 30 0 google_breakpad::MemoryMappedFile::MemoryMappedFile()
FUNC 43578 20 0 google_breakpad::MemoryRange::MemoryRange()
FUNC 43598 50 0 google_breakpad::MemoryMappedFile::MemoryMappedFile(char const*, unsigned int)
FUNC 435e8 1d4 0 google_breakpad::MemoryMappedFile::Map(char const*, unsigned int)
FUNC 437bc 28 0 google_breakpad::MemoryMappedFile::~MemoryMappedFile()
FUNC 437e4 78 0 google_breakpad::MemoryMappedFile::Unmap()
FUNC 4385c 9c 0 sys_open(char const*, int, int)
FUNC 438f8 8c 0 sys_fstat64(int, kernel_stat64*)
FUNC 43984 7c 0 sys_close(int)
FUNC 43a00 c0 0 sys_mmap(void*, unsigned int, int, int, int, long long)
FUNC 43ac0 5c 0 google_breakpad::MemoryRange::Set(void const*, unsigned int)
FUNC 43b1c 8c 0 sys_munmap(void*, unsigned int)
FUNC 43ba8 d4 0 sys__mmap2(void*, unsigned int, int, int, int, long)
FUNC 43c7c 88 0 google_breakpad::SafeReadLink(char const*, char*, unsigned int)
FUNC 43d04 9c 0 sys_readlink(char const*, char*, unsigned int)
FUNC 43da0 54 0 google_breakpad::CrashGenerationClient::TryCreate(int)
FUNC 43df4 58 0 google_breakpad::(anonymous namespace)::CrashGenerationClientImpl::CrashGenerationClientImpl(int)
FUNC 43e4c 28 0 google_breakpad::CrashGenerationClient::CrashGenerationClient()
FUNC 43e74 38 0 google_breakpad::(anonymous namespace)::CrashGenerationClientImpl::~CrashGenerationClientImpl()
FUNC 43eac 34 0 google_breakpad::(anonymous namespace)::CrashGenerationClientImpl::~CrashGenerationClientImpl()
FUNC 43ee0 294 0 google_breakpad::(anonymous namespace)::CrashGenerationClientImpl::RequestDump(void const*, unsigned int)
FUNC 44174 14 0 google_breakpad::CrashGenerationClient::~CrashGenerationClient()
FUNC 44188 34 0 google_breakpad::CrashGenerationClient::~CrashGenerationClient()
FUNC 441bc 7c 0 sys_pipe(int*)
FUNC 44238 9c 0 sys_sendmsg(int, kernel_msghdr const*, int)
FUNC 442d4 7c 0 sys_close(int)
FUNC 44350 9c 0 sys_read(int, void*, unsigned int)
FUNC 443ec 18 0 google_breakpad::ThreadInfo::GetInstructionPointer() const
FUNC 44404 84 0 google_breakpad::ThreadInfo::FillCPUContext(MDRawContextARM*) const
FUNC 44488 b4 0 google_breakpad::ThreadInfo::GetGeneralPurposeRegisters(void**, unsigned int*)
FUNC 4453c b4 0 google_breakpad::ThreadInfo::GetFloatingPointRegisters(void**, unsigned int*)
FUNC 445f0 18 0 google_breakpad::UContextReader::GetStackPointer(ucontext const*)
FUNC 44608 18 0 google_breakpad::UContextReader::GetInstructionPointer(ucontext const*)
FUNC 44620 190 0 google_breakpad::UContextReader::FillCPUContext(MDRawContextARM*, ucontext const*)
FUNC 447b0 1f4 0 ConvertUTF32toUTF16
FUNC 449a4 1f4 0 ConvertUTF16toUTF32
FUNC 44b98 3c4 0 ConvertUTF16toUTF8
FUNC 44f5c 78 0 isLegalUTF8Sequence
FUNC 44fd4 254 0 isLegalUTF8
FUNC 45228 42c 0 ConvertUTF8toUTF16
FUNC 45654 2f4 0 ConvertUTF32toUTF8
FUNC 45948 35c 0 ConvertUTF8toUTF32
FUNC 45ca4 4 0 operator delete(void*)
FUNC 45ca8 4 0 operator delete[](void*)
FUNC 45cac 124 0 __cxxabiv1::__cxa_guard_acquire
FUNC 45dd0 54 0 __cxxabiv1::__cxa_guard_abort
FUNC 45e24 54 0 __cxxabiv1::__cxa_guard_release
FUNC 45e78 1c 0 __gnu_cxx::recursive_init_error::~recursive_init_error()
FUNC 45e94 12 0 __gnu_cxx::recursive_init_error::~recursive_init_error()
FUNC 45ea8 54 0 operator new(unsigned int)
FUNC 45efc 14 0 operator new[](unsigned int)
FUNC 45f10 18 0 __cxxabiv1::__cxa_pure_virtual
FUNC 45f28 18 0 __cxxabiv1::__cxa_deleted_virtual
FUNC 45f40 1c 0 __cxxabiv1::__si_class_type_info::~__si_class_type_info()
FUNC 45f5c 12 0 __cxxabiv1::__si_class_type_info::~__si_class_type_info()
FUNC 45f70 3a 0 __cxxabiv1::__si_class_type_info::__do_find_public_src(int, void const*, __cxxabiv1::__class_type_info const*, void const*) const
FUNC 45fac 90 0 __cxxabiv1::__si_class_type_info::__do_dyncast(int, __cxxabiv1::__class_type_info::__sub_kind, __cxxabiv1::__class_type_info const*, void const*, __cxxabiv1::__class_type_info const*, void const*, __cxxabiv1::__class_type_info::__dyncast_result&) const
FUNC 4603c 2a 0 __cxxabiv1::__si_class_type_info::__do_upcast(__cxxabiv1::__class_type_info const*, void const*, __cxxabiv1::__class_type_info::__upcast_result&) const
FUNC 46068 2 0 std::type_info::~type_info()
FUNC 4606c 4 0 std::type_info::__is_pointer_p() const
FUNC 46070 4 0 std::type_info::__is_function_p() const
FUNC 46074 4 0 std::type_info::__do_upcast(__cxxabiv1::__class_type_info const*, void**) const
FUNC 46078 c 0 std::type_info::~type_info()
FUNC 46084 2c 0 std::type_info::__do_catch(std::type_info const*, void**, unsigned int) const
FUNC 460b0 2c 0 std::type_info::operator==(std::type_info const&) const
FUNC 460dc 2 0 std::allocator<char>::allocator()
FUNC 460e0 2 0 std::allocator<char>::allocator(std::allocator<char> const&)
FUNC 460e4 2 0 std::allocator<char>::~allocator()
FUNC 460e8 2 0 std::allocator<wchar_t>::allocator()
FUNC 460ec 2 0 std::allocator<wchar_t>::allocator(std::allocator<wchar_t> const&)
FUNC 460f0 2 0 std::allocator<wchar_t>::~allocator()
FUNC 460f4 4e 0 std::__detail::_List_node_base::swap(std::__detail::_List_node_base&, std::__detail::_List_node_base&)
FUNC 46144 1e 0 std::__detail::_List_node_base::_M_transfer(std::__detail::_List_node_base*, std::__detail::_List_node_base*)
FUNC 46164 12 0 std::__detail::_List_node_base::_M_reverse()
FUNC 46178 e 0 std::__detail::_List_node_base::_M_hook(std::__detail::_List_node_base*)
FUNC 46188 a 0 std::__detail::_List_node_base::_M_unhook()
FUNC 46194 48 0 std::string::_Rep::_M_dispose(std::allocator<char> const&)
FUNC 461dc 30 0 std::__throw_bad_exception()
FUNC 4620c 30 0 std::__throw_bad_alloc()
FUNC 4623c 30 0 std::__throw_bad_cast()
FUNC 4626c 30 0 std::__throw_bad_typeid()
FUNC 4629c 80 0 std::__throw_logic_error(char const*)
FUNC 4631c 80 0 std::__throw_domain_error(char const*)
FUNC 4639c 80 0 std::__throw_invalid_argument(char const*)
FUNC 4641c 80 0 std::__throw_length_error(char const*)
FUNC 4649c 80 0 std::__throw_out_of_range(char const*)
FUNC 4651c a8 0 std::__throw_out_of_range_fmt(char const*, ...)
FUNC 465c4 80 0 std::__throw_runtime_error(char const*)
FUNC 46644 80 0 std::__throw_range_error(char const*)
FUNC 466c4 80 0 std::__throw_overflow_error(char const*)
FUNC 46744 80 0 std::__throw_underflow_error(char const*)
FUNC 467c4 68 0 std::__throw_ios_failure(char const*)
FUNC 4682c 98 0 std::__throw_system_error(int)
FUNC 468c4 9c 0 std::__throw_future_error(int)
FUNC 46960 30 0 std::__throw_bad_function_call()
FUNC 46990 38 0 std::__throw_regex_error(std::regex_constants::error_type)
FUNC 469c8 c 0 std::bad_function_call::what() const
FUNC 469d4 18 0 std::bad_function_call::~bad_function_call()
FUNC 469ec 20 0 std::bad_function_call::~bad_function_call()
FUNC 46a0c c 0 future_error_category::name
FUNC 46a18 18 0 future_error_category::~future_error_category
FUNC 46a30 20 0 future_error_category::~future_error_category
FUNC 46a50 18 0 std::future_error::~future_error()
FUNC 46a68 20 0 std::future_error::~future_error()
FUNC 46a88 d4 0 future_error_category::message
FUNC 46b5c 6c 0 std::future_error::what() const
FUNC 46bc8 4c 0 std::future_category()
FUNC 46c14 1c 0 std::__future_base::_Result_base::_Result_base()
FUNC 46c30 1c 0 std::__future_base::_Result_base::~_Result_base()
FUNC 46c4c 20 0 std::__future_base::_Result_base::~_Result_base()
FUNC 46c6c 18 0 std::regex_error::~regex_error()
FUNC 46c84 20 0 std::regex_error::~regex_error()
FUNC 46ca4 d4 0 std::regex_error::regex_error(std::regex_constants::error_type)
FUNC 46d78 50 0 __gnu_cxx::__throw_insufficient_space(char const*, char const*)
FUNC 46dc8 7c 0 __gnu_cxx::__concat_size_t(char*, unsigned int, unsigned int)
FUNC 46e44 88 0 __gnu_cxx::__snprintf_lite(char*, unsigned int, char const*, std::__va_list)
FUNC 46ecc 48 0 std::string::_Rep::_M_dispose(std::allocator<char> const&)
FUNC 46f14 4 0 std::string::_M_data() const
FUNC 46f18 6 0 std::string::_M_data(char*)
FUNC 46f20 6 0 std::string::_M_rep() const
FUNC 46f28 4 0 std::string::_M_ibegin() const
FUNC 46f2c a 0 std::string::_M_iend() const
FUNC 46f38 24 0 std::string::_M_check(unsigned int, char const*) const
FUNC 46f5c 20 0 std::string::_M_check_length(unsigned int, unsigned int, char const*) const
FUNC 46f7c 10 0 std::string::_M_limit(unsigned int, unsigned int) const
FUNC 46f8c 1a 0 std::string::_M_disjunct(char const*) const
FUNC 46fa8 14 0 std::string::_M_copy(char*, char const*, unsigned int)
FUNC 46fbc 14 0 std::string::_M_move(char*, char const*, unsigned int)
FUNC 46fd0 12 0 std::string::_M_assign(char*, unsigned int, char)
FUNC 46fe4 16 0 std::string::_S_copy_chars(char*, __gnu_cxx::__normal_iterator<char*, std::string>, __gnu_cxx::__normal_iterator<char*, std::string>)
FUNC 46ffc 16 0 std::string::_S_copy_chars(char*, __gnu_cxx::__normal_iterator<char const*, std::string>, __gnu_cxx::__normal_iterator<char const*, std::string>)
FUNC 47014 16 0 std::string::_S_copy_chars(char*, char*, char*)
FUNC 4702c 16 0 std::string::_S_copy_chars(char*, char const*, char const*)
FUNC 47044 4 0 std::string::_S_compare(unsigned int, unsigned int)
FUNC 47048 c 0 std::string::_S_empty_rep()
FUNC 47054 10 0 std::basic_string<char, std::char_traits<char>, std::allocator<char> >::basic_string()
FUNC 47064 10 0 std::basic_string<char, std::char_traits<char>, std::allocator<char> >::basic_string(std::allocator<char> const&)
FUNC 47074 ac 0 std::basic_string<char, std::char_traits<char>, std::allocator<char> >::basic_string(unsigned int, char, std::allocator<char> const&)
FUNC 47120 14 0 std::basic_string<char, std::char_traits<char>, std::allocator<char> >::basic_string(std::string&&)
FUNC 47134 58 0 std::basic_string<char, std::char_traits<char>, std::allocator<char> >::~basic_string()
FUNC 4718c 2c 0 std::string::operator=(std::string&&)
FUNC 471b8 4 0 std::string::begin() const
FUNC 471bc a 0 std::string::end() const
FUNC 471c8 c 0 std::string::rbegin() const
FUNC 471d4 6 0 std::string::rend() const
FUNC 471dc 4 0 std::string::cbegin() const
FUNC 471e0 a 0 std::string::cend() const
FUNC 471ec c 0 std::string::crbegin() const
FUNC 471f8 6 0 std::string::crend() const
FUNC 47200 8 0 std::string::size() const
FUNC 47208 8 0 std::string::length() const
FUNC 47210 a 0 std::string::max_size() const
FUNC 4721c 8 0 std::string::capacity() const
FUNC 47224 108 0 std::string::reserve(unsigned int)
FUNC 4732c 26 0 std::string::shrink_to_fit()
FUNC 47354 a8 0 std::string::append(char const*, unsigned int)
FUNC 473fc 80 0 std::string::append(unsigned int, char)
FUNC 4747c e 0 std::string::empty() const
FUNC 4748c 6 0 std::string::operator[](unsigned int) const
FUNC 47494 1c 0 std::string::at(unsigned int) const
FUNC 474b0 4 0 std::string::front() const
FUNC 474b4 c 0 std::string::back() const
FUNC 474c0 1c 0 std::string::operator+=(char const*)
FUNC 474dc 50 0 std::string::operator+=(char)
FUNC 4752c 1c 0 std::string::operator+=(std::initializer_list<char>)
FUNC 47548 70 0 std::string::append(std::string const&)
FUNC 475b8 4 0 std::string::operator+=(std::string const&)
FUNC 475bc a4 0 std::string::append(std::string const&, unsigned int, unsigned int)
FUNC 47660 e 0 std::string::append(char const*, unsigned int)
FUNC 47670 1c 0 std::string::append(char const*)
FUNC 4768c e 0 std::string::append(unsigned int, char)
FUNC 4769c 1c 0 std::string::append(std::initializer_list<char>)
FUNC 476b8 50 0 std::string::push_back(char)
FUNC 47708 2c 0 std::string::assign(std::string&&)
FUNC 47734 a0 0 std::string::_S_construct_aux_2(unsigned int, char, std::allocator<char> const&)
FUNC 477d4 a0 0 std::string::_S_construct(unsigned int, char, std::allocator<char> const&)
FUNC 47874 4c 0 std::string::copy(char*, unsigned int, unsigned int) const
FUNC 478c0 2c 0 std::string::swap(std::string&)
FUNC 478ec 4 0 std::string::c_str() const
FUNC 478f0 4 0 std::string::data() const
FUNC 478f4 2 0 std::string::get_allocator() const
FUNC 478f8 66 0 std::string::find(char const*, unsigned int, unsigned int) const
FUNC 47960 6c 0 std::string::find(std::string const&, unsigned int) const
FUNC 479cc 70 0 std::string::find(char const*, unsigned int) const
FUNC 47a3c 24 0 std::string::find(char, unsigned int) const
FUNC 47a60 3e 0 std::string::rfind(std::string const&, unsigned int) const
FUNC 47aa0 3a 0 std::string::rfind(char const*, unsigned int, unsigned int) const
FUNC 47adc 4a 0 std::string::rfind(char const*, unsigned int) const
FUNC 47b28 32 0 std::string::rfind(char, unsigned int) const
FUNC 47b5c 3a 0 std::string::find_first_of(char const*, unsigned int, unsigned int) const
FUNC 47b98 a 0 std::string::find_first_of(std::string const&, unsigned int) const
FUNC 47ba4 1e 0 std::string::find_first_of(char const*, unsigned int) const
FUNC 47bc4 24 0 std::string::find_first_of(char, unsigned int) const
FUNC 47be8 44 0 std::string::find_last_of(std::string const&, unsigned int) const
FUNC 47c2c 42 0 std::string::find_last_of(char const*, unsigned int, unsigned int) const
FUNC 47c70 4a 0 std::string::find_last_of(char const*, unsigned int) const
FUNC 47cbc 32 0 std::string::find_last_of(char, unsigned int) const
FUNC 47cf0 3e 0 std::string::find_first_not_of(std::string const&, unsigned int) const
FUNC 47d30 3c 0 std::string::find_first_not_of(char const*, unsigned int, unsigned int) const
FUNC 47d6c 44 0 std::string::find_first_not_of(char const*, unsigned int) const
FUNC 47db0 3c 0 std::string::find_first_not_of(char, unsigned int) const
FUNC 47dec 3e 0 std::string::find_last_not_of(std::string const&, unsigned int) const
FUNC 47e2c 3c 0 std::string::find_last_not_of(char const*, unsigned int, unsigned int) const
FUNC 47e68 44 0 std::string::find_last_not_of(char const*, unsigned int) const
FUNC 47eac 3c 0 std::string::find_last_not_of(char, unsigned int) const
FUNC 47ee8 20 0 std::string::compare(std::string const&) const
FUNC 47f08 48 0 std::string::compare(unsigned int, unsigned int, std::string const&) const
FUNC 47f50 74 0 std::string::compare(unsigned int, unsigned int, std::string const&, unsigned int, unsigned int) const
FUNC 47fc4 28 0 std::string::compare(char const*) const
FUNC 47fec 54 0 std::string::compare(unsigned int, unsigned int, char const*) const
FUNC 48040 44 0 std::string::compare(unsigned int, unsigned int, char const*, unsigned int) const
FUNC 48084 4 0 std::string::_Alloc_hider::_Alloc_hider(char*, std::allocator<char> const&)
FUNC 48088 c 0 std::string::_Rep::_S_empty_rep()
FUNC 48094 6 0 std::string::_Rep::_M_is_leaked() const
FUNC 4809c c 0 std::string::_Rep::_M_is_shared() const
FUNC 480a8 8 0 std::string::_Rep::_M_set_leaked()
FUNC 480b0 6 0 std::string::_Rep::_M_set_sharable()
FUNC 480b8 1c 0 std::string::_Rep::_M_set_length_and_sharable(unsigned int)
FUNC 480d4 4 0 std::string::_Rep::_M_refdata()
FUNC 480d8 60 0 std::string::_Rep::_S_create(unsigned int, unsigned int, std::allocator<char> const&)
FUNC 48138 130 0 std::string::_M_mutate(unsigned int, unsigned int, unsigned int)
FUNC 48268 34 0 std::string::_M_leak_hard()
FUNC 4829c 38 0 std::string::_M_leak()
FUNC 482d4 e 0 std::string::clear()
FUNC 482e4 38 0 std::string::erase(unsigned int, unsigned int)
FUNC 4831c 20 0 std::string::erase(__gnu_cxx::__normal_iterator<char*, std::string>)
FUNC 4833c 26 0 std::string::erase(__gnu_cxx::__normal_iterator<char*, std::string>, __gnu_cxx::__normal_iterator<char*, std::string>)
FUNC 48364 54 0 std::string::_M_replace_aux(unsigned int, unsigned int, unsigned int, char)
FUNC 483b8 30 0 std::string::_M_replace_safe(unsigned int, unsigned int, char const*, unsigned int)
FUNC 483e8 a8 0 std::string::assign(char const*, unsigned int)
FUNC 48490 1a 0 std::string::operator=(std::initializer_list<char>)
FUNC 484ac 38 0 std::string::assign(std::string const&, unsigned int, unsigned int)
FUNC 484e4 1a 0 std::string::assign(char const*)
FUNC 48500 1a 0 std::string::operator=(char const*)
FUNC 4851c 12 0 std::string::assign(std::initializer_list<char>)
FUNC 48530 110 0 std::string::insert(unsigned int, char const*, unsigned int)
FUNC 48640 1e 0 std::string::insert(__gnu_cxx::__normal_iterator<char*, std::string>, std::initializer_list<char>)
FUNC 48660 3c 0 std::string::insert(unsigned int, std::string const&, unsigned int, unsigned int)
FUNC 4869c 1e 0 std::string::insert(unsigned int, char const*)
FUNC 486bc a 0 std::string::insert(unsigned int, std::string const&)
FUNC 486c8 2c 0 std::string::pop_back()
FUNC 486f4 40 0 std::string::resize(unsigned int, char)
FUNC 48734 6 0 std::string::resize(unsigned int)
FUNC 4873c 38 0 std::string::front()
FUNC 48774 3c 0 std::string::operator[](unsigned int)
FUNC 487b0 40 0 std::string::rend()
FUNC 487f0 38 0 std::string::begin()
FUNC 48828 3c 0 std::string::end()
FUNC 48864 44 0 std::string::rbegin()
FUNC 488a8 40 0 std::string::back()
FUNC 488e8 50 0 std::string::at(unsigned int)
FUNC 48938 1c 0 std::string::operator=(char)
FUNC 48954 44 0 std::string::insert(__gnu_cxx::__normal_iterator<char*, std::string>, char)
FUNC 48998 48 0 std::string::assign(unsigned int, char)
FUNC 489e0 68 0 std::string::insert(unsigned int, unsigned int, char)
FUNC 48a48 58 0 std::string::replace(__gnu_cxx::__normal_iterator<char*, std::string>, __gnu_cxx::__normal_iterator<char*, std::string>, unsigned int, char)
FUNC 48aa0 7c 0 std::string::replace(unsigned int, unsigned int, unsigned int, char)
FUNC 48b1c 5c 0 std::string::insert(__gnu_cxx::__normal_iterator<char*, std::string>, unsigned int, char)
FUNC 48b78 90 0 std::string::_Rep::_M_grab(std::allocator<char> const&, std::allocator<char> const&)
FUNC 48c08 50 0 std::string::_Rep::_M_dispose(std::allocator<char> const&)
FUNC 48c58 4 0 std::string::_Rep::_M_destroy(std::allocator<char> const&)
FUNC 48c5c 40 0 std::string::_Rep::_M_refcopy()
FUNC 48c9c b0 0 std::string::_Rep::_M_clone(std::allocator<char> const&, unsigned int)
FUNC 48d4c 68 0 std::basic_string<char, std::char_traits<char>, std::allocator<char> >::basic_string(std::string const&)
FUNC 48db4 b8 0 std::string::assign(std::string const&)
FUNC 48e6c b8 0 std::string::operator=(std::string const&)
FUNC 48f24 5c 0 std::basic_string<char, std::char_traits<char>, std::allocator<char> > std::operator+<char, std::char_traits<char>, std::allocator<char> >(char const*, std::basic_string<char, std::char_traits<char>, std::allocator<char> > const&)
FUNC 48f80 50 0 std::basic_string<char, std::char_traits<char>, std::allocator<char> > std::operator+<char, std::char_traits<char>, std::allocator<char> >(char, std::basic_string<char, std::char_traits<char>, std::allocator<char> > const&)
FUNC 48fd0 84 0 std::basic_string<char, std::char_traits<char>, std::allocator<char> > std::operator+<char, std::char_traits<char>, std::allocator<char> >(std::basic_string<char, std::char_traits<char>, std::allocator<char> > const&, std::basic_string<char, std::char_traits<char>, std::allocator<char> > const&)
FUNC 49054 c0 0 std::basic_string<char, std::char_traits<char>, std::allocator<char> >::basic_string<__gnu_cxx::__normal_iterator<char*, std::string> >(__gnu_cxx::__normal_iterator<char*, std::string>, __gnu_cxx::__normal_iterator<char*, std::string>, std::allocator<char> const&)
FUNC 49114 b4 0 char* std::string::_S_construct<__gnu_cxx::__normal_iterator<char*, std::string> >(__gnu_cxx::__normal_iterator<char*, std::string>, __gnu_cxx::__normal_iterator<char*, std::string>, std::allocator<char> const&, std::forward_iterator_tag)
FUNC 491c8 d0 0 char* std::string::_S_construct<char*>(char*, char*, std::allocator<char> const&, std::forward_iterator_tag)
FUNC 49298 48 0 std::basic_string<char, std::char_traits<char>, std::allocator<char> >::basic_string(std::string const&, unsigned int, unsigned int)
FUNC 492e0 2c 0 std::string::substr(unsigned int, unsigned int) const
FUNC 4930c 44 0 std::basic_string<char, std::char_traits<char>, std::allocator<char> >::basic_string(std::string const&, unsigned int, unsigned int, std::allocator<char> const&)
FUNC 49350 18 0 std::basic_string<char, std::char_traits<char>, std::allocator<char> >::basic_string<char*>(char*, char*, std::allocator<char> const&)
FUNC 49368 d0 0 char* std::string::_S_construct<char const*>(char const*, char const*, std::allocator<char> const&, std::forward_iterator_tag)
FUNC 49438 1a 0 std::basic_string<char, std::char_traits<char>, std::allocator<char> >::basic_string(char const*, unsigned int, std::allocator<char> const&)
FUNC 49454 188 0 std::string::replace(unsigned int, unsigned int, char const*, unsigned int)
FUNC 495dc 14 0 std::string::replace(unsigned int, unsigned int, std::string const&)
FUNC 495f0 3c 0 std::string::replace(unsigned int, unsigned int, std::string const&, unsigned int, unsigned int)
FUNC 4962c 24 0 std::string::replace(unsigned int, unsigned int, char const*)
FUNC 49650 10 0 std::string::replace(__gnu_cxx::__normal_iterator<char*, std::string>, __gnu_cxx::__normal_iterator<char*, std::string>, char const*, unsigned int)
FUNC 49660 1a 0 std::string::replace(__gnu_cxx::__normal_iterator<char*, std::string>, __gnu_cxx::__normal_iterator<char*, std::string>, std::string const&)
FUNC 4967c 26 0 std::string::replace(__gnu_cxx::__normal_iterator<char*, std::string>, __gnu_cxx::__normal_iterator<char*, std::string>, char const*)
FUNC 496a4 14 0 std::string::replace(__gnu_cxx::__normal_iterator<char*, std::string>, __gnu_cxx::__normal_iterator<char*, std::string>, char*, char*)
FUNC 496b8 14 0 std::string::replace(__gnu_cxx::__normal_iterator<char*, std::string>, __gnu_cxx::__normal_iterator<char*, std::string>, char const*, char const*)
FUNC 496cc 16 0 std::string::replace(__gnu_cxx::__normal_iterator<char*, std::string>, __gnu_cxx::__normal_iterator<char*, std::string>, std::initializer_list<char>)
FUNC 496e4 14 0 std::string::replace(__gnu_cxx::__normal_iterator<char*, std::string>, __gnu_cxx::__normal_iterator<char*, std::string>, __gnu_cxx::__normal_iterator<char*, std::string>, __gnu_cxx::__normal_iterator<char*, std::string>)
FUNC 496f8 14 0 std::string::replace(__gnu_cxx::__normal_iterator<char*, std::string>, __gnu_cxx::__normal_iterator<char*, std::string>, __gnu_cxx::__normal_iterator<char const*, std::string>, __gnu_cxx::__normal_iterator<char const*, std::string>)
FUNC 4970c 28 0 std::basic_string<char, std::char_traits<char>, std::allocator<char> >::basic_string(char const*, std::allocator<char> const&)
FUNC 49734 24 0 std::basic_string<char, std::char_traits<char>, std::allocator<char> >::basic_string(std::initializer_list<char>, std::allocator<char> const&)
FUNC 49758 18 0 std::basic_string<char, std::char_traits<char>, std::allocator<char> >::basic_string<char const*>(char const*, char const*, std::allocator<char> const&)
FUNC 49770 e 0 bool __gnu_cxx::operator==<char*, std::string>(__gnu_cxx::__normal_iterator<char*, std::string> const&, __gnu_cxx::__normal_iterator<char*, std::string> const&)
FUNC 49780 e 0 bool __gnu_cxx::operator==<char const*, std::string>(__gnu_cxx::__normal_iterator<char const*, std::string> const&, __gnu_cxx::__normal_iterator<char const*, std::string> const&)
FUNC 49790 c 0 generic_error_category::name
FUNC 4979c c 0 system_error_category::name
FUNC 497a8 6 0 std::error_category::default_error_condition(int) const
FUNC 497b0 30 0 std::error_category::equivalent(int, std::error_condition const&) const
FUNC 497e0 16 0 std::error_category::equivalent(std::error_code const&, int) const
FUNC 497f8 2 0 system_error_category::~system_error_category
FUNC 497fc 2 0 generic_error_category::~generic_error_category
FUNC 49800 c 0 system_error_category::~system_error_category
FUNC 4980c c 0 generic_error_category::~generic_error_category
FUNC 49818 1c 0 system_error_category::message
FUNC 49834 1c 0 generic_error_category::message
FUNC 49850 18 0 std::system_error::~system_error()
FUNC 49868 20 0 std::system_error::~system_error()
FUNC 49888 2 0 std::error_category::~error_category()
FUNC 4988c c 0 std::error_category::~error_category()
FUNC 49898 c 0 std::system_category()
FUNC 498a4 c 0 std::generic_category()
FUNC 498b0 14 0 std::error_code::default_error_condition() const
FUNC 498c4 a 0 __aeabiv1::__aeabi_atexit
FUNC 498d0 c 0 std::bad_alloc::what() const
FUNC 498dc 1c 0 std::bad_alloc::~bad_alloc()
FUNC 498f8 12 0 std::bad_alloc::~bad_alloc()
FUNC 4990c c 0 std::bad_cast::what() const
FUNC 49918 1c 0 std::bad_cast::~bad_cast()
FUNC 49934 12 0 std::bad_cast::~bad_cast()
FUNC 49948 c 0 std::bad_typeid::what() const
FUNC 49954 1c 0 std::bad_typeid::~bad_typeid()
FUNC 49970 12 0 std::bad_typeid::~bad_typeid()
FUNC 49984 32 0 __cxxabiv1::__class_type_info::__do_upcast(__cxxabiv1::__class_type_info const*, void**) const
FUNC 499b8 c 0 __cxxabiv1::__class_type_info::__do_find_public_src(int, void const*, __cxxabiv1::__class_type_info const*, void const*) const
FUNC 499c4 1c 0 __cxxabiv1::__class_type_info::~__class_type_info()
FUNC 499e0 12 0 __cxxabiv1::__class_type_info::~__class_type_info()
FUNC 499f4 18 0 __cxxabiv1::__class_type_info::__do_upcast(__cxxabiv1::__class_type_info const*, void const*, __cxxabiv1::__class_type_info::__upcast_result&) const
FUNC 49a0c 2a 0 __cxxabiv1::__class_type_info::__do_catch(std::type_info const*, void**, unsigned int) const
FUNC 49a38 40 0 __cxxabiv1::__class_type_info::__do_dyncast(int, __cxxabiv1::__class_type_info::__sub_kind, __cxxabiv1::__class_type_info const*, void const*, __cxxabiv1::__class_type_info const*, void const*, __cxxabiv1::__class_type_info::__dyncast_result&) const
FUNC 49a78 c 0 __gnu_cxx::__concurrence_lock_error::what() const
FUNC 49a84 c 0 __gnu_cxx::__concurrence_unlock_error::what() const
FUNC 49a90 18 0 __gnu_cxx::__concurrence_lock_error::~__concurrence_lock_error()
FUNC 49aa8 18 0 __gnu_cxx::__concurrence_unlock_error::~__concurrence_unlock_error()
FUNC 49ac0 20 0 __gnu_cxx::__concurrence_lock_error::~__concurrence_lock_error()
FUNC 49ae0 20 0 __gnu_cxx::__concurrence_unlock_error::~__concurrence_unlock_error()
FUNC 49b00 28 0 __gnu_cxx::__throw_concurrence_lock_error()
FUNC 49b28 28 0 __gnu_cxx::__throw_concurrence_unlock_error()
FUNC 49b50 a8 0 __cxxabiv1::__cxa_allocate_exception
FUNC 49bf8 9c 0 __cxxabiv1::__cxa_free_exception
FUNC 49c94 a0 0 __cxxabiv1::__cxa_allocate_dependent_exception
FUNC 49d34 a0 0 __cxxabiv1::__cxa_free_dependent_exception
FUNC 49de0 bc 0 __cxa_type_match
FUNC 49e9c 64 0 __cxa_begin_cleanup
FUNC 49f00 70 0 __gnu_end_cleanup
FUNC 49f70 3a 0 __cxxabiv1::__is_gxx_exception_class
FUNC 49fac 1e 0 __cxa_call_terminate
FUNC 49fcc 100 0 __cxa_call_unexpected
FUNC 4a0cc 4 0 __cxxabiv1::__cxa_get_exception_ptr
FUNC 4a0d0 8e 0 __cxxabiv1::__cxa_begin_catch
FUNC 4a160 8c 0 __cxxabiv1::__cxa_end_catch
FUNC 4a1ec 10 0 std::uncaught_exception()
FUNC 4a1fc 2 0 std::exception::~exception()
FUNC 4a200 1c 0 std::bad_exception::~bad_exception()
FUNC 4a21c c 0 std::exception::what() const
FUNC 4a228 c 0 std::bad_exception::what() const
FUNC 4a234 12 0 std::exception::~exception()
FUNC 4a248 12 0 std::bad_exception::~bad_exception()
FUNC 4a25c 2 0 __cxxabiv1::__forced_unwind::~__forced_unwind()
FUNC 4a260 12 0 __cxxabiv1::__forced_unwind::~__forced_unwind()
FUNC 4a274 2 0 __cxxabiv1::__foreign_exception::~__foreign_exception()
FUNC 4a278 12 0 __cxxabiv1::__foreign_exception::~__foreign_exception()
FUNC 4a28c 16 0 __eh_globals_init::~__eh_globals_init()
FUNC 4a2a4 24 0 eh_globals_dtor
FUNC 4a2c8 2c 0 __cxxabiv1::__cxa_get_globals_fast
FUNC 4a2f4 5c 0 __cxxabiv1::__cxa_get_globals
FUNC 4a350 2e 0 read_sleb128
FUNC 4a380 a8 0 read_encoded_value_with_base
FUNC 4a428 4c 0 base_of_encoded_value
FUNC 4a474 8c 0 parse_lsda_header
FUNC 4a500 448 0 __cxxabiv1::__gxx_personality_v0
FUNC 4a948 2 0 std::__exception_ptr::exception_ptr::_M_safe_bool_dummy()
FUNC 4a94c 4e 0 __gxx_dependent_exception_cleanup
FUNC 4a99c 6 0 std::__exception_ptr::exception_ptr::exception_ptr()
FUNC 4a9a4 16 0 std::__exception_ptr::exception_ptr::exception_ptr(void (std::__exception_ptr::exception_ptr::*)())
FUNC 4a9bc 1e 0 std::__exception_ptr::exception_ptr::_M_addref()
FUNC 4a9dc e 0 std::__exception_ptr::exception_ptr::exception_ptr(void*)
FUNC 4a9ec 10 0 std::__exception_ptr::exception_ptr::exception_ptr(std::__exception_ptr::exception_ptr const&)
FUNC 4a9fc 3c 0 std::__exception_ptr::exception_ptr::_M_release()
FUNC 4aa38 c 0 std::__exception_ptr::exception_ptr::~exception_ptr()
FUNC 4aa44 4 0 std::__exception_ptr::exception_ptr::_M_get() const
FUNC 4aa48 a 0 std::__exception_ptr::exception_ptr::swap(std::__exception_ptr::exception_ptr&)
FUNC 4aa54 22 0 std::__exception_ptr::exception_ptr::operator=(std::__exception_ptr::exception_ptr const&)
FUNC 4aa78 a 0 std::__exception_ptr::exception_ptr::operator!() const
FUNC 4aa84 1c 0 std::__exception_ptr::exception_ptr::operator void (std::__exception_ptr::exception_ptr::*)()() const
FUNC 4aaa0 8 0 std::__exception_ptr::exception_ptr::__cxa_exception_type() const
FUNC 4aaa8 e 0 std::__exception_ptr::operator==(std::__exception_ptr::exception_ptr const&, std::__exception_ptr::exception_ptr const&)
FUNC 4aab8 e 0 std::__exception_ptr::operator!=(std::__exception_ptr::exception_ptr const&, std::__exception_ptr::exception_ptr const&)
FUNC 4aac8 6a 0 std::current_exception()
FUNC 4ab34 80 0 std::rethrow_exception(std::__exception_ptr::exception_ptr)
FUNC 4abb4 28 0 __cxxabiv1::__terminate(void (*)())
FUNC 4abdc 2c 0 std::set_terminate(void (*)())
FUNC 4ac08 1c 0 std::get_terminate()
FUNC 4ac24 c 0 std::terminate()
FUNC 4ac30 a 0 __cxxabiv1::__unexpected(void (*)())
FUNC 4ac3c 2c 0 std::set_unexpected(void (*)())
FUNC 4ac68 1c 0 std::get_unexpected()
FUNC 4ac84 c 0 std::unexpected()
FUNC 4ac90 48 0 __gxx_exception_cleanup
FUNC 4acd8 80 0 __cxxabiv1::__cxa_throw
FUNC 4ad58 72 0 __cxxabiv1::__cxa_rethrow
FUNC 4adcc 20 0 std::set_new_handler(void (*)())
FUNC 4adec 10 0 std::get_new_handler()
FUNC 4adfc 4 0 std::ios_base::failure::what() const
FUNC 4ae00 74 0 std::ios_base::failure::~failure()
FUNC 4ae74 78 0 std::ios_base::failure::~failure()
FUNC 4aeec 34 0 std::ios_base::failure::failure(std::string const&)
FUNC 4af20 7a 0 std::__num_base::_S_format_float(std::ios_base const&, char*, char)
FUNC 4af9c 90 0 std::__verify_grouping(char const*, unsigned int, std::string const&)
FUNC 4b02c 4 0 std::logic_error::what() const
FUNC 4b030 4 0 std::runtime_error::what() const
FUNC 4b034 74 0 std::logic_error::~logic_error()
FUNC 4b0a8 74 0 std::runtime_error::~runtime_error()
FUNC 4b11c 74 0 std::overflow_error::~overflow_error()
FUNC 4b190 74 0 std::underflow_error::~underflow_error()
FUNC 4b204 74 0 std::range_error::~range_error()
FUNC 4b278 74 0 std::invalid_argument::~invalid_argument()
FUNC 4b2ec 74 0 std::domain_error::~domain_error()
FUNC 4b360 74 0 std::length_error::~length_error()
FUNC 4b3d4 74 0 std::out_of_range::~out_of_range()
FUNC 4b448 78 0 std::runtime_error::~runtime_error()
FUNC 4b4c0 78 0 std::underflow_error::~underflow_error()
FUNC 4b538 78 0 std::range_error::~range_error()
FUNC 4b5b0 78 0 std::overflow_error::~overflow_error()
FUNC 4b628 78 0 std::logic_error::~logic_error()
FUNC 4b6a0 78 0 std::invalid_argument::~invalid_argument()
FUNC 4b718 78 0 std::out_of_range::~out_of_range()
FUNC 4b790 78 0 std::domain_error::~domain_error()
FUNC 4b808 78 0 std::length_error::~length_error()
FUNC 4b880 24 0 std::logic_error::logic_error(std::string const&)
FUNC 4b8a4 30 0 std::domain_error::domain_error(std::string const&)
FUNC 4b8d4 30 0 std::invalid_argument::invalid_argument(std::string const&)
FUNC 4b904 30 0 std::length_error::length_error(std::string const&)
FUNC 4b934 30 0 std::out_of_range::out_of_range(std::string const&)
FUNC 4b964 24 0 std::runtime_error::runtime_error(std::string const&)
FUNC 4b988 30 0 std::range_error::range_error(std::string const&)
FUNC 4b9b8 30 0 std::overflow_error::overflow_error(std::string const&)
FUNC 4b9e8 30 0 std::underflow_error::underflow_error(std::string const&)
FUNC 4ba18 12c 0 __gnu_cxx::__verbose_terminate_handler()
FUNC 4bb44 50 0 d_make_comp
FUNC 4bb94 3c 0 d_make_name
FUNC 4bbd0 de 0 d_cv_qualifiers
FUNC 4bcb0 1c4 0 d_substitution
FUNC 4be74 54 0 d_count_templates_scopes
FUNC 4bec8 46 0 d_append_char
FUNC 4bf10 54 0 d_number
FUNC 4bf64 4c 0 d_lookup_template_argument
FUNC 4bfb0 48 0 d_find_pack
FUNC 4bff8 86 0 d_growable_string_callback_adapter
FUNC 4c080 7c 0 d_append_string
FUNC 4c0fc b4 0 d_identifier
FUNC 4c1b0 5e 0 d_source_name
FUNC 4c210 54 0 d_compact_number
FUNC 4c264 66 0 d_discriminator
FUNC 4c2cc 88 0 d_template_param
FUNC 4c354 7e 0 d_call_offset
FUNC 4c3d4 da8 0 d_template_args
FUNC 4d17c 4aa 0 d_exprlist
FUNC 4d628 e94 0 d_type
FUNC 4e4bc 9e 0 d_parmlist
FUNC 4e55c 11c 0 d_operator_name
FUNC 4e678 340 0 d_unqualified_name
FUNC 4e9b8 3a4 0 d_name
FUNC 4ed5c 44c 0 d_encoding
FUNC 4f1a8 c4 0 d_expr_primary
FUNC 4f26c 410 0 d_expression_1
FUNC 4f67c 9e 0 d_function_type
FUNC 4f71c 1aec 0 d_vector_type
FUNC 51208 31c8 0 d_print_comp
FUNC 543d0 692 0 d_print_mod
FUNC 54a64 360 0 d_print_mod_list
FUNC 54dc4 208 0 d_print_array_type
FUNC 54fcc 24c 0 d_print_function_type
FUNC 55218 84 0 d_print_expr_op
FUNC 5529c c0 0 d_print_subexpr
FUNC 5535c 35c 0 d_demangle_callback
FUNC 556b8 d0 0 __cxa_demangle
FUNC 55788 22 0 __gcclibcxx_demangle_callback
FUNC 557ac 1a 0 __cxxabiv1::__cxa_current_exception_type
FUNC 55a84 3c 0 __gnu_ldivmod_helper
FUNC 55ac0 3c 0 __gnu_uldivmod_helper
FUNC 55afc 18 0 selfrel_offset31
FUNC 55b14 a4 0 search_EIT_table
FUNC 55bb8 50 0 __gnu_unwind_get_pr_addr
FUNC 55c08 104 0 get_eit_entry
FUNC 55d0c 6c 0 restore_non_core_regs
FUNC 55d78 14 0 _Unwind_decode_typeinfo_ptr
FUNC 55d8c 8 0 __gnu_unwind_24bit
FUNC 55d94 4 0 _Unwind_DebugHook
FUNC 55d98 64 0 unwind_phase2
FUNC 55dfc 128 0 unwind_phase2_forced
FUNC 55f24 8 0 _Unwind_GetCFA
FUNC 55f2c a4 0 __gnu_Unwind_RaiseException
FUNC 55fd0 1c 0 __gnu_Unwind_ForcedUnwind
FUNC 55fec 74 0 __gnu_Unwind_Resume
FUNC 56060 20 0 __gnu_Unwind_Resume_or_Rethrow
FUNC 56080 4 0 _Unwind_Complete
FUNC 56084 18 0 _Unwind_DeleteException
FUNC 5609c 5c 0 _Unwind_VRS_Get
FUNC 560f8 28 0 _Unwind_GetGR
FUNC 56120 5c 0 _Unwind_VRS_Set
FUNC 5617c 2c 0 _Unwind_SetGR
FUNC 561a8 c8 0 __gnu_Unwind_Backtrace
FUNC 56270 3f0 0 __gnu_unwind_pr_common
FUNC 56660 8 0 __aeabi_unwind_cpp_pr0
FUNC 56668 8 0 __aeabi_unwind_cpp_pr1
FUNC 56670 8 0 __aeabi_unwind_cpp_pr2
FUNC 56678 36c 0 _Unwind_VRS_Pop
FUNC 56b8c 60 0 next_unwind_byte
FUNC 56bec 28 0 _Unwind_GetGR
FUNC 56c14 4 0 unwind_UCB_from_context
FUNC 56c18 388 0 __gnu_unwind_execute
FUNC 56fa0 40 0 __gnu_unwind_frame
FUNC 56fe0 10 0 _Unwind_GetRegionStart
FUNC 56ff0 1c 0 _Unwind_GetLanguageSpecificData
FUNC 5700c 8 0 _Unwind_GetDataRelBase
FUNC 57014 8 0 _Unwind_GetTextRelBase
FUNC 5701c 180 0 __divdi3
FUNC 5719c 10c 0 __udivdi3
PUBLIC 21460 0 __on_dlclose
PUBLIC 21471 0 _GLOBAL__sub_I_system_error.cc
PUBLIC 214ad 0 _GLOBAL__sub_I_eh_alloc.cc
PUBLIC 214bd 0 _GLOBAL__sub_I_eh_globals.cc
PUBLIC 2150c 0 __atexit_handler_wrapper
PUBLIC 21518 0 atexit
PUBLIC 21539 0 dumpCallback(google_breakpad::MinidumpDescriptor const&, void*, bool)
PUBLIC 21581 0 google_breakpad::MinidumpDescriptor::path() const
PUBLIC 2158f 0 crash()
PUBLIC 2159d 0 Java_com_andr0day_ndktest_MainActivity_stringFromJNI
PUBLIC 2169d 0 google_breakpad::MinidumpDescriptor::MinidumpDescriptor(std::string const&)
PUBLIC 2172d 0 _JNIEnv::NewStringUTF(char const*)
PUBLIC 2174f 0 google_breakpad::MinidumpDescriptor::~MinidumpDescriptor()
PUBLIC 21775 0 google_breakpad::MicrodumpExtraInfo::MicrodumpExtraInfo()
PUBLIC 21790 0 google_breakpad::ExceptionHandler::ExceptionHandler(google_breakpad::MinidumpDescriptor const&, bool (*)(void*), bool (*)(google_breakpad::MinidumpDescriptor const&, void*, bool), void*, bool, int)
PUBLIC 21a04 0 google_breakpad::scoped_ptr<google_breakpad::CrashGenerationClient>::scoped_ptr(google_breakpad::CrashGenerationClient*)
PUBLIC 21a24 0 std::list<google_breakpad::MappingEntry, std::allocator<google_breakpad::MappingEntry> >::list()
PUBLIC 21a5c 0 std::list<google_breakpad::AppMemory, std::allocator<google_breakpad::AppMemory> >::list()
PUBLIC 21a94 0 google_breakpad::scoped_ptr<google_breakpad::CrashGenerationClient>::reset(google_breakpad::CrashGenerationClient*)
PUBLIC 21afc 0 google_breakpad::ExceptionHandler::IsOutOfProcess() const
PUBLIC 21b34 0 google_breakpad::MinidumpDescriptor::IsFD() const
PUBLIC 21b5c 0 google_breakpad::MinidumpDescriptor::IsMicrodumpOnConsole() const
PUBLIC 21b84 0 std::vector<google_breakpad::ExceptionHandler*, std::allocator<google_breakpad::ExceptionHandler*> >::vector()
PUBLIC 21bbc 0 google_breakpad::(anonymous namespace)::InstallAlternateStackLocked()
PUBLIC 21db4 0 google_breakpad::ExceptionHandler::InstallHandlersLocked()
PUBLIC 2200c 0 std::vector<google_breakpad::ExceptionHandler*, std::allocator<google_breakpad::ExceptionHandler*> >::push_back(google_breakpad::ExceptionHandler*&&)
PUBLIC 22050 0 google_breakpad::ExceptionHandler::~ExceptionHandler()
PUBLIC 22220 0 __gnu_cxx::__normal_iterator<google_breakpad::ExceptionHandler**, std::vector<google_breakpad::ExceptionHandler*, std::allocator<google_breakpad::ExceptionHandler*> > > std::find<__gnu_cxx::__normal_iterator<google_breakpad::ExceptionHandler**, std::vector<google_breakpad::ExceptionHandler*, std::allocator<google_breakpad::ExceptionHandler*> > >, google_breakpad::ExceptionHandler*>(__gnu_cxx::__normal_iterator<google_breakpad::ExceptionHandler**, std::vector<google_breakpad::ExceptionHandler*, std::allocator<google_breakpad::ExceptionHandler*> > >, __gnu_cxx::__normal_iterator<google_breakpad::ExceptionHandler**, std::vector<google_breakpad::ExceptionHandler*, std::allocator<google_breakpad::ExceptionHandler*> > >, google_breakpad::ExceptionHandler* const&)
PUBLIC 222bc 0 std::vector<google_breakpad::ExceptionHandler*, std::allocator<google_breakpad::ExceptionHandler*> >::begin()
PUBLIC 22330 0 std::vector<google_breakpad::ExceptionHandler*, std::allocator<google_breakpad::ExceptionHandler*> >::end()
PUBLIC 223a8 0 std::vector<google_breakpad::ExceptionHandler*, std::allocator<google_breakpad::ExceptionHandler*> >::erase(__gnu_cxx::__normal_iterator<google_breakpad::ExceptionHandler* const*, std::vector<google_breakpad::ExceptionHandler*, std::allocator<google_breakpad::ExceptionHandler*> > >)
PUBLIC 22460 0 _ZN9__gnu_cxx17__normal_iteratorIPKPN15google_breakpad16ExceptionHandlerESt6vectorIS3_SaIS3_EEEC2IPS3_EERKNS0_IT_NS_11__enable_ifIXsr3std10__are_sameISC_SB_EE7__valueES8_E6__typeEEE
PUBLIC 224a0 0 std::vector<google_breakpad::ExceptionHandler*, std::allocator<google_breakpad::ExceptionHandler*> >::empty() const
PUBLIC 22528 0 std::vector<google_breakpad::ExceptionHandler*, std::allocator<google_breakpad::ExceptionHandler*> >::~vector()
PUBLIC 22590 0 google_breakpad::(anonymous namespace)::RestoreAlternateStackLocked()
PUBLIC 226b8 0 google_breakpad::ExceptionHandler::RestoreHandlersLocked()
PUBLIC 227b0 0 std::list<google_breakpad::AppMemory, std::allocator<google_breakpad::AppMemory> >::~list()
PUBLIC 227e8 0 std::list<google_breakpad::MappingEntry, std::allocator<google_breakpad::MappingEntry> >::~list()
PUBLIC 22820 0 google_breakpad::scoped_ptr<google_breakpad::CrashGenerationClient>::~scoped_ptr()
PUBLIC 22868 0 sigemptyset(unsigned long*)
PUBLIC 228a8 0 sigaddset(unsigned long*, int)
PUBLIC 22914 0 google_breakpad::ExceptionHandler::SignalHandler(int, siginfo*, void*)
PUBLIC 22b60 0 google_breakpad::(anonymous namespace)::InstallDefaultHandler(int)
PUBLIC 22c0c 0 std::vector<google_breakpad::ExceptionHandler*, std::allocator<google_breakpad::ExceptionHandler*> >::size() const
PUBLIC 22c48 0 std::vector<google_breakpad::ExceptionHandler*, std::allocator<google_breakpad::ExceptionHandler*> >::operator[](unsigned int)
PUBLIC 22c78 0 google_breakpad::ExceptionHandler::HandleSignal(int, siginfo*, void*)
PUBLIC 22e90 0 tgkill(int, int, int)
PUBLIC 22ed0 0 google_breakpad::ExceptionHandler::ThreadEntry(void*)
PUBLIC 22f34 0 google_breakpad::ExceptionHandler::WaitForContinueSignal()
PUBLIC 23064 0 google_breakpad::ExceptionHandler::DoDump(int, void const*, unsigned int)
PUBLIC 23200 0 sys_prctl(int, unsigned long, unsigned long, unsigned long, unsigned long)
PUBLIC 232c0 0 google_breakpad::ExceptionHandler::GenerateDump(google_breakpad::ExceptionHandler::CrashContext*)
PUBLIC 23730 0 google_breakpad::ExceptionHandler::SimulateSignalDelivery(int)
PUBLIC 237fc 0 google_breakpad::scoped_ptr<google_breakpad::CrashGenerationClient>::operator->() const
PUBLIC 23864 0 google_breakpad::PageAllocator::PageAllocator()
PUBLIC 238a8 0 google_breakpad::PageAllocator::Alloc(unsigned int)
PUBLIC 23a44 0 sys_pipe(int*)
PUBLIC 23ac0 0 sys_clone(int (*)(void*), void*, int, void*, int*, void*, int*)
PUBLIC 23bd8 0 sys_close(int)
PUBLIC 23c54 0 google_breakpad::ExceptionHandler::SendContinueSignalToChild()
PUBLIC 23d58 0 sys_waitpid(int, int*, int)
PUBLIC 23d8c 0 google_breakpad::PageAllocator::~PageAllocator()
PUBLIC 23db4 0 sys_write(int, void const*, unsigned int)
PUBLIC 23e50 0 sys_read(int, void*, unsigned int)
PUBLIC 23eec 0 google_breakpad::MinidumpDescriptor::microdump_extra_info()
PUBLIC 23f50 0 google_breakpad::MinidumpDescriptor::fd() const
PUBLIC 23f68 0 google_breakpad::MinidumpDescriptor::size_limit() const
PUBLIC 23f80 0 google_breakpad::ExceptionHandler::WriteMinidump(std::string const&, bool (*)(google_breakpad::MinidumpDescriptor const&, void*, bool), void*)
PUBLIC 24064 0 google_breakpad::ExceptionHandler::WriteMinidump()
PUBLIC 24218 0 void google_breakpad::ignore_result<int>(int const&)
PUBLIC 24228 0 sys_gettid()
PUBLIC 24268 0 google_breakpad::ExceptionHandler::AddMappingInfo(std::string const&, unsigned char const*, unsigned int, unsigned int, unsigned int)
PUBLIC 243e0 0 std::list<google_breakpad::MappingEntry, std::allocator<google_breakpad::MappingEntry> >::push_back(google_breakpad::MappingEntry const&)
PUBLIC 24424 0 google_breakpad::ExceptionHandler::RegisterAppMemory(void*, unsigned int)
PUBLIC 2450c 0 std::_List_iterator<google_breakpad::AppMemory> std::find<std::_List_iterator<google_breakpad::AppMemory>, void*>(std::_List_iterator<google_breakpad::AppMemory>, std::_List_iterator<google_breakpad::AppMemory>, void* const&)
PUBLIC 245a8 0 std::list<google_breakpad::AppMemory, std::allocator<google_breakpad::AppMemory> >::begin()
PUBLIC 24620 0 std::list<google_breakpad::AppMemory, std::allocator<google_breakpad::AppMemory> >::end()
PUBLIC 24694 0 std::_List_iterator<google_breakpad::AppMemory>::operator!=(std::_List_iterator<google_breakpad::AppMemory> const&) const
PUBLIC 246c8 0 std::list<google_breakpad::AppMemory, std::allocator<google_breakpad::AppMemory> >::push_back(google_breakpad::AppMemory const&)
PUBLIC 2470c 0 google_breakpad::ExceptionHandler::UnregisterAppMemory(void*)
PUBLIC 247fc 0 std::list<google_breakpad::AppMemory, std::allocator<google_breakpad::AppMemory> >::erase(std::_List_const_iterator<google_breakpad::AppMemory>)
PUBLIC 24890 0 std::_List_const_iterator<google_breakpad::AppMemory>::_List_const_iterator(std::_List_iterator<google_breakpad::AppMemory> const&)
PUBLIC 248b4 0 google_breakpad::ExceptionHandler::WriteMinidumpForChild(int, int, std::string const&, bool (*)(google_breakpad::MinidumpDescriptor const&, void*, bool), void*)
PUBLIC 249ec 0 google_breakpad::scoped_ptr<google_breakpad::CrashGenerationClient>::get() const
PUBLIC 24a04 0 int const& std::max<int>(int const&, int const&)
PUBLIC 24a48 0 sys_sigaltstack(sigaltstack const*, sigaltstack const*)
PUBLIC 24ad4 0 std::_List_base<google_breakpad::AppMemory, std::allocator<google_breakpad::AppMemory> >::~_List_base()
PUBLIC 24b0c 0 std::_List_base<google_breakpad::AppMemory, std::allocator<google_breakpad::AppMemory> >::_M_clear()
PUBLIC 24b78 0 std::_List_base<google_breakpad::AppMemory, std::allocator<google_breakpad::AppMemory> >::_List_impl::~_List_impl()
PUBLIC 24bb0 0 std::_List_base<google_breakpad::AppMemory, std::allocator<google_breakpad::AppMemory> >::_M_get_Node_allocator()
PUBLIC 24bc4 0 void __gnu_cxx::new_allocator<std::_List_node<google_breakpad::AppMemory> >::destroy<std::_List_node<google_breakpad::AppMemory> >(std::_List_node<google_breakpad::AppMemory>*)
PUBLIC 24bd8 0 std::_List_base<google_breakpad::AppMemory, std::allocator<google_breakpad::AppMemory> >::_M_put_node(std::_List_node<google_breakpad::AppMemory>*)
PUBLIC 24c04 0 __gnu_cxx::new_allocator<std::_List_node<google_breakpad::AppMemory> >::deallocate(std::_List_node<google_breakpad::AppMemory>*, unsigned int)
PUBLIC 24c2c 0 std::allocator<std::_List_node<google_breakpad::AppMemory> >::~allocator()
PUBLIC 24c64 0 __gnu_cxx::new_allocator<std::_List_node<google_breakpad::AppMemory> >::~new_allocator()
PUBLIC 24c78 0 std::_List_base<google_breakpad::MappingEntry, std::allocator<google_breakpad::MappingEntry> >::~_List_base()
PUBLIC 24cb0 0 std::_List_base<google_breakpad::MappingEntry, std::allocator<google_breakpad::MappingEntry> >::_M_clear()
PUBLIC 24d1c 0 std::_List_base<google_breakpad::MappingEntry, std::allocator<google_breakpad::MappingEntry> >::_List_impl::~_List_impl()
PUBLIC 24d54 0 std::_List_base<google_breakpad::MappingEntry, std::allocator<google_breakpad::MappingEntry> >::_M_get_Node_allocator()
PUBLIC 24d68 0 void __gnu_cxx::new_allocator<std::_List_node<google_breakpad::MappingEntry> >::destroy<std::_List_node<google_breakpad::MappingEntry> >(std::_List_node<google_breakpad::MappingEntry>*)
PUBLIC 24d7c 0 std::_List_base<google_breakpad::MappingEntry, std::allocator<google_breakpad::MappingEntry> >::_M_put_node(std::_List_node<google_breakpad::MappingEntry>*)
PUBLIC 24da8 0 __gnu_cxx::new_allocator<std::_List_node<google_breakpad::MappingEntry> >::deallocate(std::_List_node<google_breakpad::MappingEntry>*, unsigned int)
PUBLIC 24dd0 0 std::allocator<std::_List_node<google_breakpad::MappingEntry> >::~allocator()
PUBLIC 24e08 0 __gnu_cxx::new_allocator<std::_List_node<google_breakpad::MappingEntry> >::~new_allocator()
PUBLIC 24e1c 0 sys_sigemptyset(kernel_sigset_t*)
PUBLIC 24e5c 0 sys_rt_sigaction(int, kernel_sigaction const*, kernel_sigaction*, unsigned int)
PUBLIC 24f08 0 getpagesize()
PUBLIC 24f10 0 google_breakpad::PageAllocator::GetNPages(unsigned int)
PUBLIC 24ff8 0 sys_mmap(void*, unsigned int, int, int, int, long long)
PUBLIC 250b8 0 sys__mmap2(void*, unsigned int, int, int, int, long)
PUBLIC 2518c 0 sys_wait4(int, int*, int, kernel_rusage*)
PUBLIC 25238 0 google_breakpad::PageAllocator::FreeAll()
PUBLIC 252a8 0 sys_munmap(void*, unsigned int)
PUBLIC 25334 0 sys__gettid()
PUBLIC 253a0 0 sys_getpid()
PUBLIC 2540c 0 std::_List_base<google_breakpad::MappingEntry, std::allocator<google_breakpad::MappingEntry> >::_List_base()
PUBLIC 25444 0 std::_List_base<google_breakpad::MappingEntry, std::allocator<google_breakpad::MappingEntry> >::_List_impl::_List_impl()
PUBLIC 25490 0 std::_List_base<google_breakpad::MappingEntry, std::allocator<google_breakpad::MappingEntry> >::_M_init()
PUBLIC 254ac 0 std::allocator<std::_List_node<google_breakpad::MappingEntry> >::allocator()
PUBLIC 254e4 0 __gnu_cxx::new_allocator<std::_List_node<google_breakpad::MappingEntry> >::new_allocator()
PUBLIC 254f8 0 std::_List_base<google_breakpad::AppMemory, std::allocator<google_breakpad::AppMemory> >::_List_base()
PUBLIC 25530 0 std::_List_base<google_breakpad::AppMemory, std::allocator<google_breakpad::AppMemory> >::_List_impl::_List_impl()
PUBLIC 2557c 0 std::_List_base<google_breakpad::AppMemory, std::allocator<google_breakpad::AppMemory> >::_M_init()
PUBLIC 25598 0 std::allocator<std::_List_node<google_breakpad::AppMemory> >::allocator()
PUBLIC 255d0 0 __gnu_cxx::new_allocator<std::_List_node<google_breakpad::AppMemory> >::new_allocator()
PUBLIC 255e4 0 std::_Vector_base<google_breakpad::ExceptionHandler*, std::allocator<google_breakpad::ExceptionHandler*> >::_Vector_base()
PUBLIC 25614 0 std::_Vector_base<google_breakpad::ExceptionHandler*, std::allocator<google_breakpad::ExceptionHandler*> >::_Vector_impl::_Vector_impl()
PUBLIC 2565c 0 std::allocator<google_breakpad::ExceptionHandler*>::allocator()
PUBLIC 25694 0 __gnu_cxx::new_allocator<google_breakpad::ExceptionHandler*>::new_allocator()
PUBLIC 256a8 0 void std::vector<google_breakpad::ExceptionHandler*, std::allocator<google_breakpad::ExceptionHandler*> >::emplace_back<google_breakpad::ExceptionHandler*>(google_breakpad::ExceptionHandler*&&)
PUBLIC 25744 0 std::remove_reference<google_breakpad::ExceptionHandler*&>::type&& std::move<google_breakpad::ExceptionHandler*&>(google_breakpad::ExceptionHandler*&)
PUBLIC 25758 0 _ZNSt16allocator_traitsISaIPN15google_breakpad16ExceptionHandlerEEE9constructIS2_JS2_EEEDTcl12_S_constructfp_fp0_spclsr3stdE7forwardIT0_Efp1_EEERS3_PT_DpOS6_
PUBLIC 257ac 0 google_breakpad::ExceptionHandler*&& std::forward<google_breakpad::ExceptionHandler*>(std::remove_reference<google_breakpad::ExceptionHandler*>::type&)
PUBLIC 257c0 0 void std::vector<google_breakpad::ExceptionHandler*, std::allocator<google_breakpad::ExceptionHandler*> >::_M_emplace_back_aux<google_breakpad::ExceptionHandler*>(google_breakpad::ExceptionHandler*&&)
PUBLIC 25944 0 _ZNSt16allocator_traitsISaIPN15google_breakpad16ExceptionHandlerEEE12_S_constructIS2_JS2_EEENSt9enable_ifIXsr6__and_INS4_18__construct_helperIT_JDpT0_EE4typeEEE5valueEvE4typeERS3_PS8_DpOS9_
PUBLIC 25998 0 void __gnu_cxx::new_allocator<google_breakpad::ExceptionHandler*>::construct<google_breakpad::ExceptionHandler*, google_breakpad::ExceptionHandler*>(google_breakpad::ExceptionHandler**, google_breakpad::ExceptionHandler*&&)
PUBLIC 259d8 0 std::vector<google_breakpad::ExceptionHandler*, std::allocator<google_breakpad::ExceptionHandler*> >::_M_check_len(unsigned int, char const*) const
PUBLIC 25b08 0 std::_Vector_base<google_breakpad::ExceptionHandler*, std::allocator<google_breakpad::ExceptionHandler*> >::_M_allocate(unsigned int)
PUBLIC 25b5c 0 google_breakpad::ExceptionHandler** std::__uninitialized_move_if_noexcept_a<google_breakpad::ExceptionHandler**, google_breakpad::ExceptionHandler**, std::allocator<google_breakpad::ExceptionHandler*> >(google_breakpad::ExceptionHandler**, google_breakpad::ExceptionHandler**, google_breakpad::ExceptionHandler**, std::allocator<google_breakpad::ExceptionHandler*>&)
PUBLIC 25bb4 0 std::_Vector_base<google_breakpad::ExceptionHandler*, std::allocator<google_breakpad::ExceptionHandler*> >::_M_get_Tp_allocator()
PUBLIC 25bc8 0 void std::_Destroy<google_breakpad::ExceptionHandler**, google_breakpad::ExceptionHandler*>(google_breakpad::ExceptionHandler**, google_breakpad::ExceptionHandler**, std::allocator<google_breakpad::ExceptionHandler*>&)
PUBLIC 25bf4 0 std::_Vector_base<google_breakpad::ExceptionHandler*, std::allocator<google_breakpad::ExceptionHandler*> >::_M_deallocate(google_breakpad::ExceptionHandler**, unsigned int)
PUBLIC 25c3c 0 std::vector<google_breakpad::ExceptionHandler*, std::allocator<google_breakpad::ExceptionHandler*> >::max_size() const
PUBLIC 25c60 0 unsigned int const& std::max<unsigned int>(unsigned int const&, unsigned int const&)
PUBLIC 25ca4 0 std::allocator_traits<std::allocator<google_breakpad::ExceptionHandler*> >::max_size(std::allocator<google_breakpad::ExceptionHandler*> const&)
PUBLIC 25cc8 0 std::_Vector_base<google_breakpad::ExceptionHandler*, std::allocator<google_breakpad::ExceptionHandler*> >::_M_get_Tp_allocator() const
PUBLIC 25cdc 0 unsigned int std::allocator_traits<std::allocator<google_breakpad::ExceptionHandler*> >::_S_max_size<std::allocator<google_breakpad::ExceptionHandler*> const, void>(std::allocator<google_breakpad::ExceptionHandler*> const&, int)
PUBLIC 25d00 0 __gnu_cxx::new_allocator<google_breakpad::ExceptionHandler*>::max_size() const
PUBLIC 25d1c 0 std::allocator_traits<std::allocator<google_breakpad::ExceptionHandler*> >::allocate(std::allocator<google_breakpad::ExceptionHandler*>&, unsigned int)
PUBLIC 25d48 0 __gnu_cxx::new_allocator<google_breakpad::ExceptionHandler*>::allocate(unsigned int, void const*)
PUBLIC 25da0 0 google_breakpad::ExceptionHandler** std::__uninitialized_copy_a<std::move_iterator<google_breakpad::ExceptionHandler**>, google_breakpad::ExceptionHandler**, google_breakpad::ExceptionHandler*>(std::move_iterator<google_breakpad::ExceptionHandler**>, std::move_iterator<google_breakpad::ExceptionHandler**>, google_breakpad::ExceptionHandler**, std::allocator<google_breakpad::ExceptionHandler*>&)
PUBLIC 25e28 0 std::move_iterator<google_breakpad::ExceptionHandler**> std::__make_move_if_noexcept_iterator<google_breakpad::ExceptionHandler**, std::move_iterator<google_breakpad::ExceptionHandler**> >(google_breakpad::ExceptionHandler**)
PUBLIC 25e9c 0 google_breakpad::ExceptionHandler** std::uninitialized_copy<std::move_iterator<google_breakpad::ExceptionHandler**>, google_breakpad::ExceptionHandler**>(std::move_iterator<google_breakpad::ExceptionHandler**>, std::move_iterator<google_breakpad::ExceptionHandler**>, google_breakpad::ExceptionHandler**)
PUBLIC 25f28 0 google_breakpad::ExceptionHandler** std::__uninitialized_copy<true>::__uninit_copy<std::move_iterator<google_breakpad::ExceptionHandler**>, google_breakpad::ExceptionHandler**>(std::move_iterator<google_breakpad::ExceptionHandler**>, std::move_iterator<google_breakpad::ExceptionHandler**>, google_breakpad::ExceptionHandler**)
PUBLIC 25fac 0 google_breakpad::ExceptionHandler** std::copy<std::move_iterator<google_breakpad::ExceptionHandler**>, google_breakpad::ExceptionHandler**>(std::move_iterator<google_breakpad::ExceptionHandler**>, std::move_iterator<google_breakpad::ExceptionHandler**>, google_breakpad::ExceptionHandler**)
PUBLIC 26040 0 google_breakpad::ExceptionHandler** std::__copy_move_a2<true, google_breakpad::ExceptionHandler**, google_breakpad::ExceptionHandler**>(google_breakpad::ExceptionHandler**, google_breakpad::ExceptionHandler**, google_breakpad::ExceptionHandler**)
PUBLIC 260a0 0 std::_Miter_base<std::move_iterator<google_breakpad::ExceptionHandler**> >::iterator_type std::__miter_base<std::move_iterator<google_breakpad::ExceptionHandler**> >(std::move_iterator<google_breakpad::ExceptionHandler**>)
PUBLIC 260fc 0 google_breakpad::ExceptionHandler** std::__copy_move_a<true, google_breakpad::ExceptionHandler**, google_breakpad::ExceptionHandler**>(google_breakpad::ExceptionHandler**, google_breakpad::ExceptionHandler**, google_breakpad::ExceptionHandler**)
PUBLIC 26134 0 std::_Niter_base<google_breakpad::ExceptionHandler**>::iterator_type std::__niter_base<google_breakpad::ExceptionHandler**>(google_breakpad::ExceptionHandler**)
PUBLIC 26154 0 google_breakpad::ExceptionHandler** std::__copy_move<true, true, std::random_access_iterator_tag>::__copy_m<google_breakpad::ExceptionHandler*>(google_breakpad::ExceptionHandler* const*, google_breakpad::ExceptionHandler* const*, google_breakpad::ExceptionHandler**)
PUBLIC 261e4 0 std::_Iter_base<google_breakpad::ExceptionHandler**, false>::_S_base(google_breakpad::ExceptionHandler**)
PUBLIC 261f8 0 std::_Iter_base<std::move_iterator<google_breakpad::ExceptionHandler**>, true>::_S_base(std::move_iterator<google_breakpad::ExceptionHandler**>)
PUBLIC 26258 0 std::move_iterator<google_breakpad::ExceptionHandler**>::base() const
PUBLIC 26270 0 std::move_iterator<google_breakpad::ExceptionHandler**>::move_iterator(google_breakpad::ExceptionHandler**)
PUBLIC 26290 0 void std::_Destroy<google_breakpad::ExceptionHandler**>(google_breakpad::ExceptionHandler**, google_breakpad::ExceptionHandler**)
PUBLIC 262b8 0 void std::_Destroy_aux<true>::__destroy<google_breakpad::ExceptionHandler**>(google_breakpad::ExceptionHandler**, google_breakpad::ExceptionHandler**)
PUBLIC 262cc 0 std::allocator_traits<std::allocator<google_breakpad::ExceptionHandler*> >::deallocate(std::allocator<google_breakpad::ExceptionHandler*>&, google_breakpad::ExceptionHandler**, unsigned int)
PUBLIC 262fc 0 __gnu_cxx::new_allocator<google_breakpad::ExceptionHandler*>::deallocate(google_breakpad::ExceptionHandler**, unsigned int)
PUBLIC 26324 0 __gnu_cxx::__normal_iterator<google_breakpad::ExceptionHandler**, std::vector<google_breakpad::ExceptionHandler*, std::allocator<google_breakpad::ExceptionHandler*> > >::__normal_iterator(google_breakpad::ExceptionHandler** const&)
PUBLIC 26348 0 __gnu_cxx::__normal_iterator<google_breakpad::ExceptionHandler**, std::vector<google_breakpad::ExceptionHandler*, std::allocator<google_breakpad::ExceptionHandler*> > > std::__find_if<__gnu_cxx::__normal_iterator<google_breakpad::ExceptionHandler**, std::vector<google_breakpad::ExceptionHandler*, std::allocator<google_breakpad::ExceptionHandler*> > >, __gnu_cxx::__ops::_Iter_equals_val<google_breakpad::ExceptionHandler* const> >(__gnu_cxx::__normal_iterator<google_breakpad::ExceptionHandler**, std::vector<google_breakpad::ExceptionHandler*, std::allocator<google_breakpad::ExceptionHandler*> > >, __gnu_cxx::__normal_iterator<google_breakpad::ExceptionHandler**, std::vector<google_breakpad::ExceptionHandler*, std::allocator<google_breakpad::ExceptionHandler*> > >, __gnu_cxx::__ops::_Iter_equals_val<google_breakpad::ExceptionHandler* const>)
PUBLIC 263dc 0 __gnu_cxx::__ops::_Iter_equals_val<google_breakpad::ExceptionHandler* const> __gnu_cxx::__ops::__iter_equals_val<google_breakpad::ExceptionHandler* const>(google_breakpad::ExceptionHandler* const&)
PUBLIC 26450 0 __gnu_cxx::__normal_iterator<google_breakpad::ExceptionHandler**, std::vector<google_breakpad::ExceptionHandler*, std::allocator<google_breakpad::ExceptionHandler*> > > std::__find_if<__gnu_cxx::__normal_iterator<google_breakpad::ExceptionHandler**, std::vector<google_breakpad::ExceptionHandler*, std::allocator<google_breakpad::ExceptionHandler*> > >, __gnu_cxx::__ops::_Iter_equals_val<google_breakpad::ExceptionHandler* const> >(__gnu_cxx::__normal_iterator<google_breakpad::ExceptionHandler**, std::vector<google_breakpad::ExceptionHandler*, std::allocator<google_breakpad::ExceptionHandler*> > >, __gnu_cxx::__normal_iterator<google_breakpad::ExceptionHandler**, std::vector<google_breakpad::ExceptionHandler*, std::allocator<google_breakpad::ExceptionHandler*> > >, __gnu_cxx::__ops::_Iter_equals_val<google_breakpad::ExceptionHandler* const>, std::random_access_iterator_tag)
PUBLIC 266f0 0 std::iterator_traits<__gnu_cxx::__normal_iterator<google_breakpad::ExceptionHandler**, std::vector<google_breakpad::ExceptionHandler*, std::allocator<google_breakpad::ExceptionHandler*> > > >::iterator_category std::__iterator_category<__gnu_cxx::__normal_iterator<google_breakpad::ExceptionHandler**, std::vector<google_breakpad::ExceptionHandler*, std::allocator<google_breakpad::ExceptionHandler*> > > >(__gnu_cxx::__normal_iterator<google_breakpad::ExceptionHandler**, std::vector<google_breakpad::ExceptionHandler*, std::allocator<google_breakpad::ExceptionHandler*> > > const&)
PUBLIC 26700 0 __gnu_cxx::__normal_iterator<google_breakpad::ExceptionHandler**, std::vector<google_breakpad::ExceptionHandler*, std::allocator<google_breakpad::ExceptionHandler*> > >::difference_type __gnu_cxx::operator-<google_breakpad::ExceptionHandler**, std::vector<google_breakpad::ExceptionHandler*, std::allocator<google_breakpad::ExceptionHandler*> > >(__gnu_cxx::__normal_iterator<google_breakpad::ExceptionHandler**, std::vector<google_breakpad::ExceptionHandler*, std::allocator<google_breakpad::ExceptionHandler*> > > const&, __gnu_cxx::__normal_iterator<google_breakpad::ExceptionHandler**, std::vector<google_breakpad::ExceptionHandler*, std::allocator<google_breakpad::ExceptionHandler*> > > const&)
PUBLIC 26758 0 bool __gnu_cxx::__ops::_Iter_equals_val<google_breakpad::ExceptionHandler* const>::operator()<__gnu_cxx::__normal_iterator<google_breakpad::ExceptionHandler**, std::vector<google_breakpad::ExceptionHandler*, std::allocator<google_breakpad::ExceptionHandler*> > > >(__gnu_cxx::__normal_iterator<google_breakpad::ExceptionHandler**, std::vector<google_breakpad::ExceptionHandler*, std::allocator<google_breakpad::ExceptionHandler*> > >)
PUBLIC 267e4 0 __gnu_cxx::__normal_iterator<google_breakpad::ExceptionHandler**, std::vector<google_breakpad::ExceptionHandler*, std::allocator<google_breakpad::ExceptionHandler*> > >::operator++()
PUBLIC 26804 0 __gnu_cxx::__normal_iterator<google_breakpad::ExceptionHandler**, std::vector<google_breakpad::ExceptionHandler*, std::allocator<google_breakpad::ExceptionHandler*> > >::base() const
PUBLIC 26818 0 __gnu_cxx::__normal_iterator<google_breakpad::ExceptionHandler**, std::vector<google_breakpad::ExceptionHandler*, std::allocator<google_breakpad::ExceptionHandler*> > >::operator*() const
PUBLIC 26830 0 __gnu_cxx::__ops::_Iter_equals_val<google_breakpad::ExceptionHandler* const>::_Iter_equals_val(google_breakpad::ExceptionHandler* const&)
PUBLIC 26850 0 std::vector<google_breakpad::ExceptionHandler*, std::allocator<google_breakpad::ExceptionHandler*> >::_M_erase(__gnu_cxx::__normal_iterator<google_breakpad::ExceptionHandler**, std::vector<google_breakpad::ExceptionHandler*, std::allocator<google_breakpad::ExceptionHandler*> > >)
PUBLIC 26968 0 __gnu_cxx::__normal_iterator<google_breakpad::ExceptionHandler**, std::vector<google_breakpad::ExceptionHandler*, std::allocator<google_breakpad::ExceptionHandler*> > >::operator+(int) const
PUBLIC 269fc 0 __gnu_cxx::__normal_iterator<google_breakpad::ExceptionHandler* const*, std::vector<google_breakpad::ExceptionHandler*, std::allocator<google_breakpad::ExceptionHandler*> > >::difference_type __gnu_cxx::operator-<google_breakpad::ExceptionHandler* const*, std::vector<google_breakpad::ExceptionHandler*, std::allocator<google_breakpad::ExceptionHandler*> > >(__gnu_cxx::__normal_iterator<google_breakpad::ExceptionHandler* const*, std::vector<google_breakpad::ExceptionHandler*, std::allocator<google_breakpad::ExceptionHandler*> > > const&, __gnu_cxx::__normal_iterator<google_breakpad::ExceptionHandler* const*, std::vector<google_breakpad::ExceptionHandler*, std::allocator<google_breakpad::ExceptionHandler*> > > const&)
PUBLIC 26a54 0 std::vector<google_breakpad::ExceptionHandler*, std::allocator<google_breakpad::ExceptionHandler*> >::cbegin() const
PUBLIC 26ad0 0 bool __gnu_cxx::operator!=<google_breakpad::ExceptionHandler**, std::vector<google_breakpad::ExceptionHandler*, std::allocator<google_breakpad::ExceptionHandler*> > >(__gnu_cxx::__normal_iterator<google_breakpad::ExceptionHandler**, std::vector<google_breakpad::ExceptionHandler*, std::allocator<google_breakpad::ExceptionHandler*> > > const&, __gnu_cxx::__normal_iterator<google_breakpad::ExceptionHandler**, std::vector<google_breakpad::ExceptionHandler*, std::allocator<google_breakpad::ExceptionHandler*> > > const&)
PUBLIC 26b20 0 __gnu_cxx::__normal_iterator<google_breakpad::ExceptionHandler**, std::vector<google_breakpad::ExceptionHandler*, std::allocator<google_breakpad::ExceptionHandler*> > > std::move<__gnu_cxx::__normal_iterator<google_breakpad::ExceptionHandler**, std::vector<google_breakpad::ExceptionHandler*, std::allocator<google_breakpad::ExceptionHandler*> > >, __gnu_cxx::__normal_iterator<google_breakpad::ExceptionHandler**, std::vector<google_breakpad::ExceptionHandler*, std::allocator<google_breakpad::ExceptionHandler*> > > >(__gnu_cxx::__normal_iterator<google_breakpad::ExceptionHandler**, std::vector<google_breakpad::ExceptionHandler*, std::allocator<google_breakpad::ExceptionHandler*> > >, __gnu_cxx::__normal_iterator<google_breakpad::ExceptionHandler**, std::vector<google_breakpad::ExceptionHandler*, std::allocator<google_breakpad::ExceptionHandler*> > >, __gnu_cxx::__normal_iterator<google_breakpad::ExceptionHandler**, std::vector<google_breakpad::ExceptionHandler*, std::allocator<google_breakpad::ExceptionHandler*> > >)
PUBLIC 26bc8 0 void std::allocator_traits<std::allocator<google_breakpad::ExceptionHandler*> >::destroy<google_breakpad::ExceptionHandler*>(std::allocator<google_breakpad::ExceptionHandler*>&, google_breakpad::ExceptionHandler**)
PUBLIC 26bf0 0 __gnu_cxx::__normal_iterator<google_breakpad::ExceptionHandler**, std::vector<google_breakpad::ExceptionHandler*, std::allocator<google_breakpad::ExceptionHandler*> > > std::__copy_move_a2<true, __gnu_cxx::__normal_iterator<google_breakpad::ExceptionHandler**, std::vector<google_breakpad::ExceptionHandler*, std::allocator<google_breakpad::ExceptionHandler*> > >, __gnu_cxx::__normal_iterator<google_breakpad::ExceptionHandler**, std::vector<google_breakpad::ExceptionHandler*, std::allocator<google_breakpad::ExceptionHandler*> > > >(__gnu_cxx::__normal_iterator<google_breakpad::ExceptionHandler**, std::vector<google_breakpad::ExceptionHandler*, std::allocator<google_breakpad::ExceptionHandler*> > >, __gnu_cxx::__normal_iterator<google_breakpad::ExceptionHandler**, std::vector<google_breakpad::ExceptionHandler*, std::allocator<google_breakpad::ExceptionHandler*> > >, __gnu_cxx::__normal_iterator<google_breakpad::ExceptionHandler**, std::vector<google_breakpad::ExceptionHandler*, std::allocator<google_breakpad::ExceptionHandler*> > >)
PUBLIC 26cb8 0 std::_Miter_base<__gnu_cxx::__normal_iterator<google_breakpad::ExceptionHandler**, std::vector<google_breakpad::ExceptionHandler*, std::allocator<google_breakpad::ExceptionHandler*> > > >::iterator_type std::__miter_base<__gnu_cxx::__normal_iterator<google_breakpad::ExceptionHandler**, std::vector<google_breakpad::ExceptionHandler*, std::allocator<google_breakpad::ExceptionHandler*> > > >(__gnu_cxx::__normal_iterator<google_breakpad::ExceptionHandler**, std::vector<google_breakpad::ExceptionHandler*, std::allocator<google_breakpad::ExceptionHandler*> > >)
PUBLIC 26d1c 0 std::_Niter_base<__gnu_cxx::__normal_iterator<google_breakpad::ExceptionHandler**, std::vector<google_breakpad::ExceptionHandler*, std::allocator<google_breakpad::ExceptionHandler*> > > >::iterator_type std::__niter_base<__gnu_cxx::__normal_iterator<google_breakpad::ExceptionHandler**, std::vector<google_breakpad::ExceptionHandler*, std::allocator<google_breakpad::ExceptionHandler*> > > >(__gnu_cxx::__normal_iterator<google_breakpad::ExceptionHandler**, std::vector<google_breakpad::ExceptionHandler*, std::allocator<google_breakpad::ExceptionHandler*> > >)
PUBLIC 26d78 0 std::_Iter_base<__gnu_cxx::__normal_iterator<google_breakpad::ExceptionHandler**, std::vector<google_breakpad::ExceptionHandler*, std::allocator<google_breakpad::ExceptionHandler*> > >, true>::_S_base(__gnu_cxx::__normal_iterator<google_breakpad::ExceptionHandler**, std::vector<google_breakpad::ExceptionHandler*, std::allocator<google_breakpad::ExceptionHandler*> > >)
PUBLIC 26ddc 0 std::_Iter_base<__gnu_cxx::__normal_iterator<google_breakpad::ExceptionHandler**, std::vector<google_breakpad::ExceptionHandler*, std::allocator<google_breakpad::ExceptionHandler*> > >, false>::_S_base(__gnu_cxx::__normal_iterator<google_breakpad::ExceptionHandler**, std::vector<google_breakpad::ExceptionHandler*, std::allocator<google_breakpad::ExceptionHandler*> > >)
PUBLIC 26e3c 0 _ZNSt16allocator_traitsISaIPN15google_breakpad16ExceptionHandlerEEE10_S_destroyIS2_EENSt9enable_ifIXsr6__and_INS4_16__destroy_helperIT_E4typeEEE5valueEvE4typeERS3_PS8_
PUBLIC 26e64 0 void __gnu_cxx::new_allocator<google_breakpad::ExceptionHandler*>::destroy<google_breakpad::ExceptionHandler*>(google_breakpad::ExceptionHandler**)
PUBLIC 26e78 0 __gnu_cxx::__normal_iterator<google_breakpad::ExceptionHandler* const*, std::vector<google_breakpad::ExceptionHandler*, std::allocator<google_breakpad::ExceptionHandler*> > >::base() const
PUBLIC 26e8c 0 __gnu_cxx::__normal_iterator<google_breakpad::ExceptionHandler* const*, std::vector<google_breakpad::ExceptionHandler*, std::allocator<google_breakpad::ExceptionHandler*> > >::__normal_iterator(google_breakpad::ExceptionHandler* const* const&)
PUBLIC 26eb0 0 bool __gnu_cxx::operator==<google_breakpad::ExceptionHandler* const*, std::vector<google_breakpad::ExceptionHandler*, std::allocator<google_breakpad::ExceptionHandler*> > >(__gnu_cxx::__normal_iterator<google_breakpad::ExceptionHandler* const*, std::vector<google_breakpad::ExceptionHandler*, std::allocator<google_breakpad::ExceptionHandler*> > > const&, __gnu_cxx::__normal_iterator<google_breakpad::ExceptionHandler* const*, std::vector<google_breakpad::ExceptionHandler*, std::allocator<google_breakpad::ExceptionHandler*> > > const&)
PUBLIC 26f00 0 std::vector<google_breakpad::ExceptionHandler*, std::allocator<google_breakpad::ExceptionHandler*> >::begin() const
PUBLIC 26f7c 0 std::vector<google_breakpad::ExceptionHandler*, std::allocator<google_breakpad::ExceptionHandler*> >::end() const
PUBLIC 26ff8 0 std::_Vector_base<google_breakpad::ExceptionHandler*, std::allocator<google_breakpad::ExceptionHandler*> >::~_Vector_base()
PUBLIC 27070 0 std::_Vector_base<google_breakpad::ExceptionHandler*, std::allocator<google_breakpad::ExceptionHandler*> >::_Vector_impl::~_Vector_impl()
PUBLIC 270a8 0 std::allocator<google_breakpad::ExceptionHandler*>::~allocator()
PUBLIC 270e0 0 __gnu_cxx::new_allocator<google_breakpad::ExceptionHandler*>::~new_allocator()
PUBLIC 270f4 0 void std::list<google_breakpad::MappingEntry, std::allocator<google_breakpad::MappingEntry> >::_M_insert<google_breakpad::MappingEntry const&>(std::_List_iterator<google_breakpad::MappingEntry>, google_breakpad::MappingEntry const&)
PUBLIC 2714c 0 std::list<google_breakpad::MappingEntry, std::allocator<google_breakpad::MappingEntry> >::end()
PUBLIC 271c0 0 std::_List_node<google_breakpad::MappingEntry>* std::list<google_breakpad::MappingEntry, std::allocator<google_breakpad::MappingEntry> >::_M_create_node<google_breakpad::MappingEntry const&>(google_breakpad::MappingEntry const&)
PUBLIC 27230 0 google_breakpad::MappingEntry const& std::forward<google_breakpad::MappingEntry const&>(std::remove_reference<google_breakpad::MappingEntry const&>::type&)
PUBLIC 27244 0 std::_List_base<google_breakpad::MappingEntry, std::allocator<google_breakpad::MappingEntry> >::_M_get_node()
PUBLIC 2726c 0 void __gnu_cxx::new_allocator<std::_List_node<google_breakpad::MappingEntry> >::construct<std::_List_node<google_breakpad::MappingEntry>, google_breakpad::MappingEntry const&>(std::_List_node<google_breakpad::MappingEntry>*, google_breakpad::MappingEntry const&)
PUBLIC 272b8 0 __gnu_cxx::new_allocator<std::_List_node<google_breakpad::MappingEntry> >::allocate(unsigned int, void const*)
PUBLIC 27308 0 __gnu_cxx::new_allocator<std::_List_node<google_breakpad::MappingEntry> >::max_size() const
PUBLIC 27324 0 std::_List_node<google_breakpad::MappingEntry>::_List_node<google_breakpad::MappingEntry const&>(google_breakpad::MappingEntry const&)
PUBLIC 27394 0 std::_List_iterator<google_breakpad::MappingEntry>::_List_iterator(std::__detail::_List_node_base*)
PUBLIC 273b4 0 std::_List_iterator<google_breakpad::AppMemory>::_List_iterator(std::__detail::_List_node_base*)
PUBLIC 273d4 0 std::_List_iterator<google_breakpad::AppMemory> std::__find_if<std::_List_iterator<google_breakpad::AppMemory>, __gnu_cxx::__ops::_Iter_equals_val<void* const> >(std::_List_iterator<google_breakpad::AppMemory>, std::_List_iterator<google_breakpad::AppMemory>, __gnu_cxx::__ops::_Iter_equals_val<void* const>)
PUBLIC 27468 0 __gnu_cxx::__ops::_Iter_equals_val<void* const> __gnu_cxx::__ops::__iter_equals_val<void* const>(void* const&)
PUBLIC 274dc 0 std::_List_iterator<google_breakpad::AppMemory> std::__find_if<std::_List_iterator<google_breakpad::AppMemory>, __gnu_cxx::__ops::_Iter_equals_val<void* const> >(std::_List_iterator<google_breakpad::AppMemory>, std::_List_iterator<google_breakpad::AppMemory>, __gnu_cxx::__ops::_Iter_equals_val<void* const>, std::input_iterator_tag)
PUBLIC 275a4 0 std::iterator_traits<std::_List_iterator<google_breakpad::AppMemory> >::iterator_category std::__iterator_category<std::_List_iterator<google_breakpad::AppMemory> >(std::_List_iterator<google_breakpad::AppMemory> const&)
PUBLIC 275b4 0 bool __gnu_cxx::__ops::_Iter_equals_val<void* const>::operator()<std::_List_iterator<google_breakpad::AppMemory> >(std::_List_iterator<google_breakpad::AppMemory>)
PUBLIC 27634 0 std::_List_iterator<google_breakpad::AppMemory>::operator++()
PUBLIC 27654 0 std::_List_iterator<google_breakpad::AppMemory>::operator*() const
PUBLIC 27670 0 google_breakpad::AppMemory::operator==(void const*) const
PUBLIC 276a0 0 __gnu_cxx::__ops::_Iter_equals_val<void* const>::_Iter_equals_val(void* const&)
PUBLIC 276c0 0 void std::list<google_breakpad::AppMemory, std::allocator<google_breakpad::AppMemory> >::_M_insert<google_breakpad::AppMemory const&>(std::_List_iterator<google_breakpad::AppMemory>, google_breakpad::AppMemory const&)
PUBLIC 27718 0 std::_List_node<google_breakpad::AppMemory>* std::list<google_breakpad::AppMemory, std::allocator<google_breakpad::AppMemory> >::_M_create_node<google_breakpad::AppMemory const&>(google_breakpad::AppMemory const&)
PUBLIC 27788 0 google_breakpad::AppMemory const& std::forward<google_breakpad::AppMemory const&>(std::remove_reference<google_breakpad::AppMemory const&>::type&)
PUBLIC 2779c 0 std::_List_base<google_breakpad::AppMemory, std::allocator<google_breakpad::AppMemory> >::_M_get_node()
PUBLIC 277c4 0 void __gnu_cxx::new_allocator<std::_List_node<google_breakpad::AppMemory> >::construct<std::_List_node<google_breakpad::AppMemory>, google_breakpad::AppMemory const&>(std::_List_node<google_breakpad::AppMemory>*, google_breakpad::AppMemory const&)
PUBLIC 27810 0 __gnu_cxx::new_allocator<std::_List_node<google_breakpad::AppMemory> >::allocate(unsigned int, void const*)
PUBLIC 27868 0 __gnu_cxx::new_allocator<std::_List_node<google_breakpad::AppMemory> >::max_size() const
PUBLIC 27884 0 std::_List_node<google_breakpad::AppMemory>::_List_node<google_breakpad::AppMemory const&>(google_breakpad::AppMemory const&)
PUBLIC 278e4 0 std::list<google_breakpad::AppMemory, std::allocator<google_breakpad::AppMemory> >::_M_erase(std::_List_iterator<google_breakpad::AppMemory>)
PUBLIC 27938 0 std::_List_const_iterator<google_breakpad::AppMemory>::_M_const_cast() const
PUBLIC 279b0 0 google_breakpad::MinidumpDescriptor::MinidumpDescriptor(google_breakpad::MinidumpDescriptor const&)
PUBLIC 27a9c 0 google_breakpad::MinidumpDescriptor::operator=(google_breakpad::MinidumpDescriptor const&)
PUBLIC 27b9c 0 google_breakpad::MinidumpDescriptor::UpdatePath()
PUBLIC 27d4c 0 std::basic_string<char, std::char_traits<char>, std::allocator<char> > std::operator+<char, std::char_traits<char>, std::allocator<char> >(std::basic_string<char, std::char_traits<char>, std::allocator<char> >&&, char const*)
PUBLIC 27d9c 0 std::basic_string<char, std::char_traits<char>, std::allocator<char> > std::operator+<char, std::char_traits<char>, std::allocator<char> >(std::basic_string<char, std::char_traits<char>, std::allocator<char> > const&, char const*)
PUBLIC 27e0c 0 std::remove_reference<std::string&>::type&& std::move<std::string&>(std::string&)
PUBLIC 27e20 0 logger::initializeCrashLogWriter()
PUBLIC 27e80 0 logger::writeToCrashLog(char const*)
PUBLIC 27f14 0 logger::write(char const*, unsigned int)
PUBLIC 27f58 0 google_breakpad::WriteMicrodump(int, void const*, unsigned int, std::list<google_breakpad::MappingEntry, std::allocator<google_breakpad::MappingEntry> > const&, google_breakpad::MicrodumpExtraInfo const&)
PUBLIC 280e0 0 google_breakpad::LinuxDumper::set_crash_address(unsigned int)
PUBLIC 28100 0 google_breakpad::LinuxDumper::set_crash_signal(int)
PUBLIC 28120 0 google_breakpad::LinuxDumper::set_crash_thread(int)
PUBLIC 28140 0 (anonymous namespace)::MicrodumpWriter::MicrodumpWriter(google_breakpad::ExceptionHandler::CrashContext const*, std::list<google_breakpad::MappingEntry, std::allocator<google_breakpad::MappingEntry> > const&, google_breakpad::MicrodumpExtraInfo const&, google_breakpad::LinuxDumper*)
PUBLIC 2823c 0 (anonymous namespace)::MicrodumpWriter::Init()
PUBLIC 282f4 0 (anonymous namespace)::MicrodumpWriter::Dump()
PUBLIC 283b8 0 (anonymous namespace)::MicrodumpWriter::~MicrodumpWriter()
PUBLIC 283f8 0 google_breakpad::LinuxPtraceDumper::~LinuxPtraceDumper()
PUBLIC 28430 0 (anonymous namespace)::MicrodumpWriter::Alloc(unsigned int)
PUBLIC 28460 0 google_breakpad::LinuxDumper::allocator()
PUBLIC 28478 0 sys_mmap(void*, unsigned int, int, int, int, long long)
PUBLIC 28538 0 sys__mmap2(void*, unsigned int, int, int, int, long)
PUBLIC 2860c 0 (anonymous namespace)::MicrodumpWriter::CaptureCrashingThreadStack(int)
PUBLIC 28884 0 (anonymous namespace)::MicrodumpWriter::LogLine(char const*)
PUBLIC 288ac 0 (anonymous namespace)::MicrodumpWriter::DumpProductInformation()
PUBLIC 2891c 0 (anonymous namespace)::MicrodumpWriter::DumpOSInformation()
PUBLIC 28b00 0 (anonymous namespace)::MicrodumpWriter::DumpProcessType()
PUBLIC 28b70 0 (anonymous namespace)::MicrodumpWriter::DumpGPUInformation()
PUBLIC 28be0 0 (anonymous namespace)::MicrodumpWriter::DumpFreeSpace()
PUBLIC 290a4 0 (anonymous namespace)::MicrodumpWriter::DumpThreadStack()
PUBLIC 29214 0 (anonymous namespace)::MicrodumpWriter::DumpCPUState()
PUBLIC 292c8 0 (anonymous namespace)::MicrodumpWriter::DumpMappings()
PUBLIC 29494 0 google_breakpad::LinuxDumper::crash_thread() const
PUBLIC 294ac 0 (anonymous namespace)::MicrodumpWriter::LogAppend(char const*)
PUBLIC 294e0 0 (anonymous namespace)::MicrodumpWriter::LogCommitLine()
PUBLIC 29518 0 void (anonymous namespace)::MicrodumpWriter::LogAppend<unsigned char>(unsigned char)
PUBLIC 295ec 0 (anonymous namespace)::MicrodumpWriter::LogAppend(char*)
PUBLIC 29614 0 google_breakpad::LinuxDumper::mappings()
PUBLIC 2962c 0 std::vector<google_breakpad::MappingInfo*, google_breakpad::PageStdAllocator<google_breakpad::MappingInfo*> >::size() const
PUBLIC 29668 0 std::vector<google_breakpad::MappingInfo*, google_breakpad::PageStdAllocator<google_breakpad::MappingInfo*> >::operator[](unsigned int) const
PUBLIC 29698 0 (anonymous namespace)::MappingsAreAdjacent(google_breakpad::MappingInfo const&, google_breakpad::MappingInfo const&)
PUBLIC 29700 0 (anonymous namespace)::NextOrderedMapping(google_breakpad::wasteful_vector<google_breakpad::MappingInfo*> const&, unsigned int)
PUBLIC 297f8 0 std::numeric_limits<unsigned int>::max()
PUBLIC 29800 0 (anonymous namespace)::Log2Floor(unsigned long long)
PUBLIC 29948 0 void (anonymous namespace)::MicrodumpWriter::LogAppend<unsigned int>(unsigned int)
PUBLIC 29a20 0 void (anonymous namespace)::MicrodumpWriter::LogAppend<unsigned short>(unsigned short)
PUBLIC 29af8 0 unsigned short (anonymous namespace)::saturated_cast<unsigned short, unsigned int>(unsigned int)
PUBLIC 29b6c 0 unsigned char (anonymous namespace)::saturated_cast<unsigned char, unsigned int>(unsigned int)
PUBLIC 29be0 0 (anonymous namespace)::MappingLessThan(google_breakpad::MappingInfo const*, google_breakpad::MappingInfo const*)
PUBLIC 29c2c 0 std::numeric_limits<unsigned short>::max()
PUBLIC 29c38 0 std::numeric_limits<unsigned short>::min()
PUBLIC 29c44 0 std::numeric_limits<unsigned char>::max()
PUBLIC 29c50 0 std::numeric_limits<unsigned char>::min()
PUBLIC 29c5c 0 (anonymous namespace)::MicrodumpWriter::LogAppend(void const*, unsigned int)
PUBLIC 29cdc 0 unsigned int const& std::min<unsigned int>(unsigned int const&, unsigned int const&)
PUBLIC 29d20 0 (anonymous namespace)::MicrodumpWriter::HaveMappingInfo(google_breakpad::MappingInfo const&)
PUBLIC 29e64 0 (anonymous namespace)::MicrodumpWriter::DumpModule(google_breakpad::MappingInfo const&, bool, unsigned int, unsigned char const*)
PUBLIC 2a1a4 0 std::list<google_breakpad::MappingEntry, std::allocator<google_breakpad::MappingEntry> >::begin() const
PUBLIC 2a21c 0 std::_List_const_iterator<google_breakpad::MappingEntry>::operator!=(std::_List_const_iterator<google_breakpad::MappingEntry> const&) const
PUBLIC 2a250 0 std::list<google_breakpad::MappingEntry, std::allocator<google_breakpad::MappingEntry> >::end() const
PUBLIC 2a2c4 0 std::_List_const_iterator<google_breakpad::MappingEntry>::operator->() const
PUBLIC 2a2ec 0 std::_List_const_iterator<google_breakpad::MappingEntry>::operator++()
PUBLIC 2a30c 0 google_breakpad::auto_wasteful_vector<unsigned char, 20u>::auto_wasteful_vector(google_breakpad::PageAllocator*)
PUBLIC 2a3c8 0 __gnu_cxx::__normal_iterator<unsigned char*, std::vector<unsigned char, google_breakpad::PageStdAllocator<unsigned char> > > std::vector<unsigned char, google_breakpad::PageStdAllocator<unsigned char> >::insert<unsigned char const*, void>(__gnu_cxx::__normal_iterator<unsigned char const*, std::vector<unsigned char, google_breakpad::PageStdAllocator<unsigned char> > >, unsigned char const*, unsigned char const*)
PUBLIC 2a4ac 0 std::vector<unsigned char, google_breakpad::PageStdAllocator<unsigned char> >::end()
PUBLIC 2a524 0 _ZN9__gnu_cxx17__normal_iteratorIPKhSt6vectorIhN15google_breakpad16PageStdAllocatorIhEEEEC2IPhEERKNS0_IT_NS_11__enable_ifIXsr3std10__are_sameISB_SA_EE7__valueES7_E6__typeEEE
PUBLIC 2a564 0 std::vector<unsigned char, google_breakpad::PageStdAllocator<unsigned char> >::operator[](unsigned int)
PUBLIC 2a588 0 std::vector<unsigned char, google_breakpad::PageStdAllocator<unsigned char> >::size() const
PUBLIC 2a5a8 0 google_breakpad::auto_wasteful_vector<unsigned char, 20u>::~auto_wasteful_vector()
PUBLIC 2a5e0 0 google_breakpad::PageStdAllocator<unsigned char>::PageStdAllocator(google_breakpad::PageAllocator&, unsigned char*, unsigned int)
PUBLIC 2a63c 0 google_breakpad::wasteful_vector<unsigned char>::wasteful_vector(google_breakpad::PageStdAllocator<unsigned char>)
PUBLIC 2a674 0 google_breakpad::PageStdAllocator<unsigned char>::~PageStdAllocator()
PUBLIC 2a6ac 0 std::vector<unsigned char, google_breakpad::PageStdAllocator<unsigned char> >::reserve(unsigned int)
PUBLIC 2a7e8 0 std::allocator<unsigned char>::allocator()
PUBLIC 2a820 0 __gnu_cxx::new_allocator<unsigned char>::new_allocator()
PUBLIC 2a834 0 std::vector<unsigned char, google_breakpad::PageStdAllocator<unsigned char> >::vector(google_breakpad::PageStdAllocator<unsigned char> const&)
PUBLIC 2a878 0 std::_Vector_base<unsigned char, google_breakpad::PageStdAllocator<unsigned char> >::_Vector_base(google_breakpad::PageStdAllocator<unsigned char> const&)
PUBLIC 2a8b0 0 std::_Vector_base<unsigned char, google_breakpad::PageStdAllocator<unsigned char> >::_Vector_impl::_Vector_impl(google_breakpad::PageStdAllocator<unsigned char> const&)
PUBLIC 2a904 0 google_breakpad::PageStdAllocator<unsigned char>::PageStdAllocator(google_breakpad::PageStdAllocator<unsigned char> const&)
PUBLIC 2a964 0 std::allocator<unsigned char>::allocator(std::allocator<unsigned char> const&)
PUBLIC 2a9a8 0 __gnu_cxx::new_allocator<unsigned char>::new_allocator(__gnu_cxx::new_allocator<unsigned char> const&)
PUBLIC 2a9c0 0 std::allocator<unsigned char>::~allocator()
PUBLIC 2a9f8 0 __gnu_cxx::new_allocator<unsigned char>::~new_allocator()
PUBLIC 2aa0c 0 std::vector<unsigned char, google_breakpad::PageStdAllocator<unsigned char> >::max_size() const
PUBLIC 2aa30 0 std::vector<unsigned char, google_breakpad::PageStdAllocator<unsigned char> >::capacity() const
PUBLIC 2aa50 0 unsigned char* std::vector<unsigned char, google_breakpad::PageStdAllocator<unsigned char> >::_M_allocate_and_copy<std::move_iterator<unsigned char*> >(unsigned int, std::move_iterator<unsigned char*>, std::move_iterator<unsigned char*>)
PUBLIC 2ab08 0 std::move_iterator<unsigned char*> std::__make_move_if_noexcept_iterator<unsigned char*, std::move_iterator<unsigned char*> >(unsigned char*)
PUBLIC 2ab7c 0 void std::_Destroy<unsigned char*, google_breakpad::PageStdAllocator<unsigned char> >(unsigned char*, unsigned char*, google_breakpad::PageStdAllocator<unsigned char>&)
PUBLIC 2abe4 0 std::_Vector_base<unsigned char, google_breakpad::PageStdAllocator<unsigned char> >::_M_get_Tp_allocator()
PUBLIC 2abf8 0 std::_Vector_base<unsigned char, google_breakpad::PageStdAllocator<unsigned char> >::_M_deallocate(unsigned char*, unsigned int)
PUBLIC 2ac40 0 std::allocator_traits<google_breakpad::PageStdAllocator<unsigned char> >::max_size(google_breakpad::PageStdAllocator<unsigned char> const&)
PUBLIC 2ac64 0 std::_Vector_base<unsigned char, google_breakpad::PageStdAllocator<unsigned char> >::_M_get_Tp_allocator() const
PUBLIC 2ac78 0 unsigned int std::allocator_traits<google_breakpad::PageStdAllocator<unsigned char> >::_S_max_size<google_breakpad::PageStdAllocator<unsigned char> const, void>(google_breakpad::PageStdAllocator<unsigned char> const&, int)
PUBLIC 2ac9c 0 __gnu_cxx::new_allocator<unsigned char>::max_size() const
PUBLIC 2acb4 0 std::_Vector_base<unsigned char, google_breakpad::PageStdAllocator<unsigned char> >::_M_allocate(unsigned int)
PUBLIC 2ad08 0 unsigned char* std::__uninitialized_copy_a<std::move_iterator<unsigned char*>, unsigned char*, google_breakpad::PageStdAllocator<unsigned char> >(std::move_iterator<unsigned char*>, std::move_iterator<unsigned char*>, unsigned char*, google_breakpad::PageStdAllocator<unsigned char>&)
PUBLIC 2ade0 0 std::allocator_traits<google_breakpad::PageStdAllocator<unsigned char> >::allocate(google_breakpad::PageStdAllocator<unsigned char>&, unsigned int)
PUBLIC 2ae0c 0 google_breakpad::PageStdAllocator<unsigned char>::allocate(unsigned int, void const*)
PUBLIC 2ae84 0 bool std::operator!=<unsigned char*>(std::move_iterator<unsigned char*> const&, std::move_iterator<unsigned char*> const&)
PUBLIC 2aeb8 0 _ZNSt16allocator_traitsIN15google_breakpad16PageStdAllocatorIhEEE9constructIhJhEEEDTcl12_S_constructfp_fp0_spclsr3stdE7forwardIT0_Efp1_EEERS2_PT_DpOS5_
PUBLIC 2af0c 0 unsigned char* std::__addressof<unsigned char>(unsigned char&)
PUBLIC 2af20 0 std::move_iterator<unsigned char*>::operator*() const
PUBLIC 2af44 0 std::move_iterator<unsigned char*>::operator++()
PUBLIC 2af64 0 bool std::operator==<unsigned char*>(std::move_iterator<unsigned char*> const&, std::move_iterator<unsigned char*> const&)
PUBLIC 2afac 0 std::move_iterator<unsigned char*>::base() const
PUBLIC 2afc4 0 _ZNSt16allocator_traitsIN15google_breakpad16PageStdAllocatorIhEEE12_S_constructIhJhEEENSt9enable_ifIXsr6__and_INS3_18__construct_helperIT_JDpT0_EE4typeEEE5valueEvE4typeERS2_PS7_DpOS8_
PUBLIC 2b018 0 unsigned char&& std::forward<unsigned char>(std::remove_reference<unsigned char>::type&)
PUBLIC 2b02c 0 void __gnu_cxx::new_allocator<unsigned char>::construct<unsigned char, unsigned char>(unsigned char*, unsigned char&&)
PUBLIC 2b06c 0 std::remove_reference<unsigned char&>::type&& std::move<unsigned char&>(unsigned char&)
PUBLIC 2b080 0 std::move_iterator<unsigned char*>::move_iterator(unsigned char*)
PUBLIC 2b0a0 0 void std::allocator_traits<google_breakpad::PageStdAllocator<unsigned char> >::destroy<unsigned char>(google_breakpad::PageStdAllocator<unsigned char>&, unsigned char*)
PUBLIC 2b0c8 0 _ZNSt16allocator_traitsIN15google_breakpad16PageStdAllocatorIhEEE10_S_destroyIhEENSt9enable_ifIXsr6__and_INS3_16__destroy_helperIT_E4typeEEE5valueEvE4typeERS2_PS7_
PUBLIC 2b0f0 0 void __gnu_cxx::new_allocator<unsigned char>::destroy<unsigned char>(unsigned char*)
PUBLIC 2b104 0 std::allocator_traits<google_breakpad::PageStdAllocator<unsigned char> >::deallocate(google_breakpad::PageStdAllocator<unsigned char>&, unsigned char*, unsigned int)
PUBLIC 2b134 0 google_breakpad::PageStdAllocator<unsigned char>::deallocate(unsigned char*, unsigned int)
PUBLIC 2b14c 0 __gnu_cxx::__normal_iterator<unsigned char const*, std::vector<unsigned char, google_breakpad::PageStdAllocator<unsigned char> > >::difference_type __gnu_cxx::operator-<unsigned char const*, std::vector<unsigned char, google_breakpad::PageStdAllocator<unsigned char> > >(__gnu_cxx::__normal_iterator<unsigned char const*, std::vector<unsigned char, google_breakpad::PageStdAllocator<unsigned char> > > const&, __gnu_cxx::__normal_iterator<unsigned char const*, std::vector<unsigned char, google_breakpad::PageStdAllocator<unsigned char> > > const&)
PUBLIC 2b190 0 std::vector<unsigned char, google_breakpad::PageStdAllocator<unsigned char> >::cbegin() const
PUBLIC 2b20c 0 void std::vector<unsigned char, google_breakpad::PageStdAllocator<unsigned char> >::_M_insert_dispatch<unsigned char const*>(__gnu_cxx::__normal_iterator<unsigned char*, std::vector<unsigned char, google_breakpad::PageStdAllocator<unsigned char> > >, unsigned char const*, unsigned char const*, std::__false_type)
PUBLIC 2b27c 0 std::vector<unsigned char, google_breakpad::PageStdAllocator<unsigned char> >::begin()
PUBLIC 2b2f4 0 __gnu_cxx::__normal_iterator<unsigned char*, std::vector<unsigned char, google_breakpad::PageStdAllocator<unsigned char> > >::operator+(int) const
PUBLIC 2b37c 0 __gnu_cxx::__normal_iterator<unsigned char const*, std::vector<unsigned char, google_breakpad::PageStdAllocator<unsigned char> > >::base() const
PUBLIC 2b390 0 __gnu_cxx::__normal_iterator<unsigned char const*, std::vector<unsigned char, google_breakpad::PageStdAllocator<unsigned char> > >::__normal_iterator(unsigned char const* const&)
PUBLIC 2b3b4 0 void std::vector<unsigned char, google_breakpad::PageStdAllocator<unsigned char> >::_M_range_insert<unsigned char const*>(__gnu_cxx::__normal_iterator<unsigned char*, std::vector<unsigned char, google_breakpad::PageStdAllocator<unsigned char> > >, unsigned char const*, unsigned char const*, std::forward_iterator_tag)
PUBLIC 2b7e8 0 std::iterator_traits<unsigned char const*>::difference_type std::distance<unsigned char const*>(unsigned char const*, unsigned char const*)
PUBLIC 2b868 0 __gnu_cxx::__normal_iterator<unsigned char*, std::vector<unsigned char, google_breakpad::PageStdAllocator<unsigned char> > >::difference_type __gnu_cxx::operator-<unsigned char*, std::vector<unsigned char, google_breakpad::PageStdAllocator<unsigned char> > >(__gnu_cxx::__normal_iterator<unsigned char*, std::vector<unsigned char, google_breakpad::PageStdAllocator<unsigned char> > > const&, __gnu_cxx::__normal_iterator<unsigned char*, std::vector<unsigned char, google_breakpad::PageStdAllocator<unsigned char> > > const&)
PUBLIC 2b8ac 0 unsigned char* std::__uninitialized_move_a<unsigned char*, unsigned char*, google_breakpad::PageStdAllocator<unsigned char> >(unsigned char*, unsigned char*, unsigned char*, google_breakpad::PageStdAllocator<unsigned char>&)
PUBLIC 2b904 0 unsigned char* std::move_backward<unsigned char*, unsigned char*>(unsigned char*, unsigned char*, unsigned char*)
PUBLIC 2b954 0 __gnu_cxx::__normal_iterator<unsigned char*, std::vector<unsigned char, google_breakpad::PageStdAllocator<unsigned char> > >::base() const
PUBLIC 2b968 0 __gnu_cxx::__normal_iterator<unsigned char*, std::vector<unsigned char, google_breakpad::PageStdAllocator<unsigned char> > > std::copy<unsigned char const*, __gnu_cxx::__normal_iterator<unsigned char*, std::vector<unsigned char, google_breakpad::PageStdAllocator<unsigned char> > > >(unsigned char const*, unsigned char const*, __gnu_cxx::__normal_iterator<unsigned char*, std::vector<unsigned char, google_breakpad::PageStdAllocator<unsigned char> > >)
PUBLIC 2ba0c 0 void std::advance<unsigned char const*, unsigned int>(unsigned char const*&, unsigned int)
PUBLIC 2ba58 0 unsigned char* std::__uninitialized_copy_a<unsigned char const*, unsigned char*, google_breakpad::PageStdAllocator<unsigned char> >(unsigned char const*, unsigned char const*, unsigned char*, google_breakpad::PageStdAllocator<unsigned char>&)
PUBLIC 2bae0 0 std::vector<unsigned char, google_breakpad::PageStdAllocator<unsigned char> >::_M_check_len(unsigned int, char const*) const
PUBLIC 2bc10 0 unsigned char* std::__uninitialized_move_if_noexcept_a<unsigned char*, unsigned char*, google_breakpad::PageStdAllocator<unsigned char> >(unsigned char*, unsigned char*, unsigned char*, google_breakpad::PageStdAllocator<unsigned char>&)
PUBLIC 2bc68 0 std::iterator_traits<unsigned char const*>::difference_type std::__distance<unsigned char const*>(unsigned char const*, unsigned char const*, std::random_access_iterator_tag)
PUBLIC 2bc88 0 std::iterator_traits<unsigned char const*>::iterator_category std::__iterator_category<unsigned char const*>(unsigned char const* const&)
PUBLIC 2bc98 0 std::move_iterator<unsigned char*> std::make_move_iterator<unsigned char*>(unsigned char*)
PUBLIC 2bd0c 0 unsigned char* std::__copy_move_backward_a2<true, unsigned char*, unsigned char*>(unsigned char*, unsigned char*, unsigned char*)
PUBLIC 2bd6c 0 std::_Miter_base<unsigned char*>::iterator_type std::__miter_base<unsigned char*>(unsigned char*)
PUBLIC 2bd8c 0 unsigned char* std::__copy_move_backward_a<true, unsigned char*, unsigned char*>(unsigned char*, unsigned char*, unsigned char*)
PUBLIC 2bdc4 0 std::_Niter_base<unsigned char*>::iterator_type std::__niter_base<unsigned char*>(unsigned char*)
PUBLIC 2bde4 0 unsigned char* std::__copy_move_backward<true, true, std::random_access_iterator_tag>::__copy_move_b<unsigned char>(unsigned char const*, unsigned char const*, unsigned char*)
PUBLIC 2be60 0 std::_Iter_base<unsigned char*, false>::_S_base(unsigned char*)
PUBLIC 2be74 0 __gnu_cxx::__normal_iterator<unsigned char*, std::vector<unsigned char, google_breakpad::PageStdAllocator<unsigned char> > > std::__copy_move_a2<false, unsigned char const*, __gnu_cxx::__normal_iterator<unsigned char*, std::vector<unsigned char, google_breakpad::PageStdAllocator<unsigned char> > > >(unsigned char const*, unsigned char const*, __gnu_cxx::__normal_iterator<unsigned char*, std::vector<unsigned char, google_breakpad::PageStdAllocator<unsigned char> > >)
PUBLIC 2bf34 0 std::_Miter_base<unsigned char const*>::iterator_type std::__miter_base<unsigned char const*>(unsigned char const*)
PUBLIC 2bf54 0 unsigned char* std::__copy_move_a<false, unsigned char const*, unsigned char*>(unsigned char const*, unsigned char const*, unsigned char*)
PUBLIC 2bf8c 0 std::_Niter_base<unsigned char const*>::iterator_type std::__niter_base<unsigned char const*>(unsigned char const*)
PUBLIC 2bfac 0 std::_Niter_base<__gnu_cxx::__normal_iterator<unsigned char*, std::vector<unsigned char, google_breakpad::PageStdAllocator<unsigned char> > > >::iterator_type std::__niter_base<__gnu_cxx::__normal_iterator<unsigned char*, std::vector<unsigned char, google_breakpad::PageStdAllocator<unsigned char> > > >(__gnu_cxx::__normal_iterator<unsigned char*, std::vector<unsigned char, google_breakpad::PageStdAllocator<unsigned char> > >)
PUBLIC 2c008 0 __gnu_cxx::__normal_iterator<unsigned char*, std::vector<unsigned char, google_breakpad::PageStdAllocator<unsigned char> > >::__normal_iterator(unsigned char* const&)
PUBLIC 2c02c 0 unsigned char* std::__copy_move<false, true, std::random_access_iterator_tag>::__copy_m<unsigned char>(unsigned char const*, unsigned char const*, unsigned char*)
PUBLIC 2c0a0 0 std::_Iter_base<unsigned char const*, false>::_S_base(unsigned char const*)
PUBLIC 2c0b4 0 std::_Iter_base<__gnu_cxx::__normal_iterator<unsigned char*, std::vector<unsigned char, google_breakpad::PageStdAllocator<unsigned char> > >, true>::_S_base(__gnu_cxx::__normal_iterator<unsigned char*, std::vector<unsigned char, google_breakpad::PageStdAllocator<unsigned char> > >)
PUBLIC 2c118 0 void std::__advance<unsigned char const*, int>(unsigned char const*&, int, std::random_access_iterator_tag)
PUBLIC 2c140 0 _ZNSt16allocator_traitsIN15google_breakpad16PageStdAllocatorIhEEE9constructIhJRKhEEEDTcl12_S_constructfp_fp0_spclsr3stdE7forwardIT0_Efp1_EEERS2_PT_DpOS7_
PUBLIC 2c194 0 _ZNSt16allocator_traitsIN15google_breakpad16PageStdAllocatorIhEEE12_S_constructIhJRKhEEENSt9enable_ifIXsr6__and_INS3_18__construct_helperIT_JDpT0_EE4typeEEE5valueEvE4typeERS2_PS9_DpOSA_
PUBLIC 2c1e8 0 unsigned char const& std::forward<unsigned char const&>(std::remove_reference<unsigned char const&>::type&)
PUBLIC 2c1fc 0 void __gnu_cxx::new_allocator<unsigned char>::construct<unsigned char, unsigned char const&>(unsigned char*, unsigned char const&)
PUBLIC 2c23c 0 google_breakpad::wasteful_vector<unsigned char>::~wasteful_vector()
PUBLIC 2c274 0 std::vector<unsigned char, google_breakpad::PageStdAllocator<unsigned char> >::~vector()
PUBLIC 2c2dc 0 std::_Vector_base<unsigned char, google_breakpad::PageStdAllocator<unsigned char> >::~_Vector_base()
PUBLIC 2c324 0 std::_Vector_base<unsigned char, google_breakpad::PageStdAllocator<unsigned char> >::_Vector_impl::~_Vector_impl()
PUBLIC 2c35c 0 std::_List_const_iterator<google_breakpad::MappingEntry>::_List_const_iterator(std::__detail::_List_node_base const*)
PUBLIC 2c37c 0 google_breakpad::MappingEntry const* std::__addressof<google_breakpad::MappingEntry const>(google_breakpad::MappingEntry const&)
PUBLIC 2c390 0 google_breakpad::LinuxDumper::LinuxDumper(int, char const*)
PUBLIC 2c4c8 0 google_breakpad::wasteful_vector<int>::wasteful_vector(google_breakpad::PageAllocator*, unsigned int)
PUBLIC 2c580 0 google_breakpad::wasteful_vector<google_breakpad::MappingInfo*>::wasteful_vector(google_breakpad::PageAllocator*, unsigned int)
PUBLIC 2c638 0 google_breakpad::wasteful_vector<unsigned int>::wasteful_vector(google_breakpad::PageAllocator*, unsigned int)
PUBLIC 2c6f0 0 std::vector<unsigned int, google_breakpad::PageStdAllocator<unsigned int> >::resize(unsigned int)
PUBLIC 2c79c 0 google_breakpad::LinuxDumper::~LinuxDumper()
PUBLIC 2c824 0 google_breakpad::wasteful_vector<unsigned int>::~wasteful_vector()
PUBLIC 2c85c 0 google_breakpad::wasteful_vector<google_breakpad::MappingInfo*>::~wasteful_vector()
PUBLIC 2c894 0 google_breakpad::wasteful_vector<int>::~wasteful_vector()
PUBLIC 2c8cc 0 google_breakpad::LinuxDumper::~LinuxDumper()
PUBLIC 2c900 0 google_breakpad::LinuxDumper::Init()
PUBLIC 2c970 0 google_breakpad::LinuxDumper::ReadAuxv()
PUBLIC 2cafc 0 google_breakpad::LinuxDumper::LateInit()
PUBLIC 2cb24 0 google_breakpad::LinuxDumper::LatePostprocessMappings()
PUBLIC 2cc6c 0 google_breakpad::LinuxDumper::ElfFileIdentifierForMapping(google_breakpad::MappingInfo const&, bool, unsigned int, google_breakpad::wasteful_vector<unsigned char>&)
PUBLIC 2cf78 0 IsMappedFileOpenUnsafe(google_breakpad::MappingInfo const&)
PUBLIC 2cfbc 0 sys_getpid()
PUBLIC 2d028 0 google_breakpad::LinuxDumper::GetMappingAbsolutePath(google_breakpad::MappingInfo const&, char*) const
PUBLIC 2d0a8 0 google_breakpad::LinuxDumper::HandleDeletedFileInMapping(char*) const
PUBLIC 2d2fc 0 google_breakpad::MemoryMappedFile::data() const
PUBLIC 2d31c 0 google_breakpad::MemoryMappedFile::size() const
PUBLIC 2d33c 0 std::vector<google_breakpad::MappingInfo*, google_breakpad::PageStdAllocator<google_breakpad::MappingInfo*> >::operator[](unsigned int)
PUBLIC 2d36c 0 google_breakpad::LinuxDumper::GetMappingEffectiveNameAndPath(google_breakpad::MappingInfo const&, char*, unsigned int, char*, unsigned int)
PUBLIC 2d4f0 0 google_breakpad::(anonymous namespace)::ElfFileSoName(google_breakpad::LinuxDumper const&, google_breakpad::MappingInfo const&, char*, unsigned int)
PUBLIC 2d62c 0 sys_open(char const*, int, int)
PUBLIC 2d6c8 0 sys_read(int, void*, unsigned int)
PUBLIC 2d764 0 std::vector<unsigned int, google_breakpad::PageStdAllocator<unsigned int> >::operator[](unsigned int)
PUBLIC 2d794 0 sys_close(int)
PUBLIC 2d810 0 google_breakpad::LinuxDumper::EnumerateMappings()
PUBLIC 2dd88 0 operator new(unsigned int, google_breakpad::PageAllocator&)
PUBLIC 2ddb0 0 google_breakpad::LineReader::LineReader(int)
PUBLIC 2dde0 0 google_breakpad::LineReader::GetNextLine(char const**, unsigned int*)
PUBLIC 2e030 0 std::vector<google_breakpad::MappingInfo*, google_breakpad::PageStdAllocator<google_breakpad::MappingInfo*> >::empty() const
PUBLIC 2e0b8 0 std::vector<google_breakpad::MappingInfo*, google_breakpad::PageStdAllocator<google_breakpad::MappingInfo*> >::back()
PUBLIC 2e13c 0 google_breakpad::LineReader::PopLine(unsigned int)
PUBLIC 2e1dc 0 std::vector<google_breakpad::MappingInfo*, google_breakpad::PageStdAllocator<google_breakpad::MappingInfo*> >::resize(unsigned int)
PUBLIC 2e288 0 std::vector<google_breakpad::MappingInfo*, google_breakpad::PageStdAllocator<google_breakpad::MappingInfo*> >::push_back(google_breakpad::MappingInfo* const&)
PUBLIC 2e2f0 0 google_breakpad::LinuxDumper::GetLoadedElfHeader(unsigned int, elfhdr*)
PUBLIC 2e384 0 google_breakpad::LinuxDumper::ParseLoadedElfProgramHeaders(elfhdr*, unsigned int, unsigned int*, unsigned int*, unsigned int*)
PUBLIC 2e510 0 google_breakpad::LinuxDumper::HasAndroidPackedRelocations(unsigned int, unsigned int, unsigned int)
PUBLIC 2e644 0 google_breakpad::LinuxDumper::GetEffectiveLoadBias(elfhdr*, unsigned int)
PUBLIC 2e72c 0 google_breakpad::LinuxDumper::GetStackInfo(void const**, unsigned int*, unsigned int)
PUBLIC 2e820 0 getpagesize()
PUBLIC 2e828 0 google_breakpad::LinuxDumper::FindMapping(void const*) const
PUBLIC 2e930 0 bool google_breakpad::SafeReadLink<255u>(char const*, char (&) [255u])
PUBLIC 2e960 0 sys_stat(char const*, kernel_stat*)
PUBLIC 2e9ec 0 std::vector<unsigned int, google_breakpad::PageStdAllocator<unsigned int> >::~vector()
PUBLIC 2ea54 0 void std::_Destroy<unsigned int*, google_breakpad::PageStdAllocator<unsigned int> >(unsigned int*, unsigned int*, google_breakpad::PageStdAllocator<unsigned int>&)
PUBLIC 2eabc 0 std::_Vector_base<unsigned int, google_breakpad::PageStdAllocator<unsigned int> >::_M_get_Tp_allocator()
PUBLIC 2ead0 0 std::_Vector_base<unsigned int, google_breakpad::PageStdAllocator<unsigned int> >::~_Vector_base()
PUBLIC 2eb48 0 void std::allocator_traits<google_breakpad::PageStdAllocator<unsigned int> >::destroy<unsigned int>(google_breakpad::PageStdAllocator<unsigned int>&, unsigned int*)
PUBLIC 2eb70 0 unsigned int* std::__addressof<unsigned int>(unsigned int&)
PUBLIC 2eb84 0 _ZNSt16allocator_traitsIN15google_breakpad16PageStdAllocatorIjEEE10_S_destroyIjEENSt9enable_ifIXsr6__and_INS3_16__destroy_helperIT_E4typeEEE5valueEvE4typeERS2_PS7_
PUBLIC 2ebac 0 void __gnu_cxx::new_allocator<unsigned int>::destroy<unsigned int>(unsigned int*)
PUBLIC 2ebc0 0 std::_Vector_base<unsigned int, google_breakpad::PageStdAllocator<unsigned int> >::_M_deallocate(unsigned int*, unsigned int)
PUBLIC 2ec08 0 std::_Vector_base<unsigned int, google_breakpad::PageStdAllocator<unsigned int> >::_Vector_impl::~_Vector_impl()
PUBLIC 2ec40 0 std::allocator_traits<google_breakpad::PageStdAllocator<unsigned int> >::deallocate(google_breakpad::PageStdAllocator<unsigned int>&, unsigned int*, unsigned int)
PUBLIC 2ec70 0 google_breakpad::PageStdAllocator<unsigned int>::deallocate(unsigned int*, unsigned int)
PUBLIC 2ec88 0 std::allocator<unsigned int>::~allocator()
PUBLIC 2ecc0 0 __gnu_cxx::new_allocator<unsigned int>::~new_allocator()
PUBLIC 2ecd4 0 std::vector<google_breakpad::MappingInfo*, google_breakpad::PageStdAllocator<google_breakpad::MappingInfo*> >::~vector()
PUBLIC 2ed3c 0 void std::_Destroy<google_breakpad::MappingInfo**, google_breakpad::PageStdAllocator<google_breakpad::MappingInfo*> >(google_breakpad::MappingInfo**, google_breakpad::MappingInfo**, google_breakpad::PageStdAllocator<google_breakpad::MappingInfo*>&)
PUBLIC 2eda4 0 std::_Vector_base<google_breakpad::MappingInfo*, google_breakpad::PageStdAllocator<google_breakpad::MappingInfo*> >::_M_get_Tp_allocator()
PUBLIC 2edb8 0 std::_Vector_base<google_breakpad::MappingInfo*, google_breakpad::PageStdAllocator<google_breakpad::MappingInfo*> >::~_Vector_base()
PUBLIC 2ee30 0 void std::allocator_traits<google_breakpad::PageStdAllocator<google_breakpad::MappingInfo*> >::destroy<google_breakpad::MappingInfo*>(google_breakpad::PageStdAllocator<google_breakpad::MappingInfo*>&, google_breakpad::MappingInfo**)
PUBLIC 2ee58 0 google_breakpad::MappingInfo** std::__addressof<google_breakpad::MappingInfo*>(google_breakpad::MappingInfo*&)
PUBLIC 2ee6c 0 _ZNSt16allocator_traitsIN15google_breakpad16PageStdAllocatorIPNS0_11MappingInfoEEEE10_S_destroyIS3_EENSt9enable_ifIXsr6__and_INS5_16__destroy_helperIT_E4typeEEE5valueEvE4typeERS4_PS9_
PUBLIC 2ee94 0 void __gnu_cxx::new_allocator<google_breakpad::MappingInfo*>::destroy<google_breakpad::MappingInfo*>(google_breakpad::MappingInfo**)
PUBLIC 2eea8 0 std::_Vector_base<google_breakpad::MappingInfo*, google_breakpad::PageStdAllocator<google_breakpad::MappingInfo*> >::_M_deallocate(google_breakpad::MappingInfo**, unsigned int)
PUBLIC 2eef0 0 std::_Vector_base<google_breakpad::MappingInfo*, google_breakpad::PageStdAllocator<google_breakpad::MappingInfo*> >::_Vector_impl::~_Vector_impl()
PUBLIC 2ef28 0 std::allocator_traits<google_breakpad::PageStdAllocator<google_breakpad::MappingInfo*> >::deallocate(google_breakpad::PageStdAllocator<google_breakpad::MappingInfo*>&, google_breakpad::MappingInfo**, unsigned int)
PUBLIC 2ef58 0 google_breakpad::PageStdAllocator<google_breakpad::MappingInfo*>::deallocate(google_breakpad::MappingInfo**, unsigned int)
PUBLIC 2ef70 0 std::allocator<google_breakpad::MappingInfo*>::~allocator()
PUBLIC 2efa8 0 __gnu_cxx::new_allocator<google_breakpad::MappingInfo*>::~new_allocator()
PUBLIC 2efbc 0 std::vector<int, google_breakpad::PageStdAllocator<int> >::~vector()
PUBLIC 2f024 0 void std::_Destroy<int*, google_breakpad::PageStdAllocator<int> >(int*, int*, google_breakpad::PageStdAllocator<int>&)
PUBLIC 2f08c 0 std::_Vector_base<int, google_breakpad::PageStdAllocator<int> >::_M_get_Tp_allocator()
PUBLIC 2f0a0 0 std::_Vector_base<int, google_breakpad::PageStdAllocator<int> >::~_Vector_base()
PUBLIC 2f118 0 void std::allocator_traits<google_breakpad::PageStdAllocator<int> >::destroy<int>(google_breakpad::PageStdAllocator<int>&, int*)
PUBLIC 2f140 0 int* std::__addressof<int>(int&)
PUBLIC 2f154 0 _ZNSt16allocator_traitsIN15google_breakpad16PageStdAllocatorIiEEE10_S_destroyIiEENSt9enable_ifIXsr6__and_INS3_16__destroy_helperIT_E4typeEEE5valueEvE4typeERS2_PS7_
PUBLIC 2f17c 0 void __gnu_cxx::new_allocator<int>::destroy<int>(int*)
PUBLIC 2f190 0 std::_Vector_base<int, google_breakpad::PageStdAllocator<int> >::_M_deallocate(int*, unsigned int)
PUBLIC 2f1d8 0 std::_Vector_base<int, google_breakpad::PageStdAllocator<int> >::_Vector_impl::~_Vector_impl()
PUBLIC 2f210 0 std::allocator_traits<google_breakpad::PageStdAllocator<int> >::deallocate(google_breakpad::PageStdAllocator<int>&, int*, unsigned int)
PUBLIC 2f240 0 google_breakpad::PageStdAllocator<int>::deallocate(int*, unsigned int)
PUBLIC 2f258 0 std::allocator<int>::~allocator()
PUBLIC 2f290 0 __gnu_cxx::new_allocator<int>::~new_allocator()
PUBLIC 2f2a4 0 sys_munmap(void*, unsigned int)
PUBLIC 2f330 0 sys_mmap(void*, unsigned int, int, int, int, long long)
PUBLIC 2f3f0 0 sys__mmap2(void*, unsigned int, int, int, int, long)
PUBLIC 2f4c4 0 google_breakpad::MemoryRange::data() const
PUBLIC 2f4dc 0 google_breakpad::MemoryRange::length() const
PUBLIC 2f4f4 0 google_breakpad::(anonymous namespace)::ElfFileSoNameFromMappedFile(void const*, char*, unsigned int)
PUBLIC 2f74c 0 google_breakpad::PageStdAllocator<int>::PageStdAllocator(google_breakpad::PageAllocator&)
PUBLIC 2f79c 0 std::vector<int, google_breakpad::PageStdAllocator<int> >::vector(google_breakpad::PageStdAllocator<int> const&)
PUBLIC 2f7e0 0 google_breakpad::PageStdAllocator<int>::~PageStdAllocator()
PUBLIC 2f818 0 std::vector<int, google_breakpad::PageStdAllocator<int> >::reserve(unsigned int)
PUBLIC 2f958 0 std::allocator<int>::allocator()
PUBLIC 2f990 0 __gnu_cxx::new_allocator<int>::new_allocator()
PUBLIC 2f9a4 0 std::_Vector_base<int, google_breakpad::PageStdAllocator<int> >::_Vector_base(google_breakpad::PageStdAllocator<int> const&)
PUBLIC 2f9dc 0 std::_Vector_base<int, google_breakpad::PageStdAllocator<int> >::_Vector_impl::_Vector_impl(google_breakpad::PageStdAllocator<int> const&)
PUBLIC 2fa30 0 google_breakpad::PageStdAllocator<int>::PageStdAllocator(google_breakpad::PageStdAllocator<int> const&)
PUBLIC 2fa90 0 std::allocator<int>::allocator(std::allocator<int> const&)
PUBLIC 2fad4 0 __gnu_cxx::new_allocator<int>::new_allocator(__gnu_cxx::new_allocator<int> const&)
PUBLIC 2faec 0 std::vector<int, google_breakpad::PageStdAllocator<int> >::max_size() const
PUBLIC 2fb10 0 std::vector<int, google_breakpad::PageStdAllocator<int> >::capacity() const
PUBLIC 2fb4c 0 std::vector<int, google_breakpad::PageStdAllocator<int> >::size() const
PUBLIC 2fb88 0 int* std::vector<int, google_breakpad::PageStdAllocator<int> >::_M_allocate_and_copy<std::move_iterator<int*> >(unsigned int, std::move_iterator<int*>, std::move_iterator<int*>)
PUBLIC 2fc40 0 std::move_iterator<int*> std::__make_move_if_noexcept_iterator<int*, std::move_iterator<int*> >(int*)
PUBLIC 2fcb4 0 std::allocator_traits<google_breakpad::PageStdAllocator<int> >::max_size(google_breakpad::PageStdAllocator<int> const&)
PUBLIC 2fcd8 0 std::_Vector_base<int, google_breakpad::PageStdAllocator<int> >::_M_get_Tp_allocator() const
PUBLIC 2fcec 0 unsigned int std::allocator_traits<google_breakpad::PageStdAllocator<int> >::_S_max_size<google_breakpad::PageStdAllocator<int> const, void>(google_breakpad::PageStdAllocator<int> const&, int)
PUBLIC 2fd10 0 __gnu_cxx::new_allocator<int>::max_size() const
PUBLIC 2fd2c 0 std::_Vector_base<int, google_breakpad::PageStdAllocator<int> >::_M_allocate(unsigned int)
PUBLIC 2fd80 0 int* std::__uninitialized_copy_a<std::move_iterator<int*>, int*, google_breakpad::PageStdAllocator<int> >(std::move_iterator<int*>, std::move_iterator<int*>, int*, google_breakpad::PageStdAllocator<int>&)
PUBLIC 2fe58 0 std::allocator_traits<google_breakpad::PageStdAllocator<int> >::allocate(google_breakpad::PageStdAllocator<int>&, unsigned int)
PUBLIC 2fe84 0 google_breakpad::PageStdAllocator<int>::allocate(unsigned int, void const*)
PUBLIC 2fef8 0 bool std::operator!=<int*>(std::move_iterator<int*> const&, std::move_iterator<int*> const&)
PUBLIC 2ff2c 0 _ZNSt16allocator_traitsIN15google_breakpad16PageStdAllocatorIiEEE9constructIiJiEEEDTcl12_S_constructfp_fp0_spclsr3stdE7forwardIT0_Efp1_EEERS2_PT_DpOS5_
PUBLIC 2ff80 0 std::move_iterator<int*>::operator*() const
PUBLIC 2ffa4 0 std::move_iterator<int*>::operator++()
PUBLIC 2ffc4 0 bool std::operator==<int*>(std::move_iterator<int*> const&, std::move_iterator<int*> const&)
PUBLIC 3000c 0 std::move_iterator<int*>::base() const
PUBLIC 30024 0 _ZNSt16allocator_traitsIN15google_breakpad16PageStdAllocatorIiEEE12_S_constructIiJiEEENSt9enable_ifIXsr6__and_INS3_18__construct_helperIT_JDpT0_EE4typeEEE5valueEvE4typeERS2_PS7_DpOS8_
PUBLIC 30078 0 int&& std::forward<int>(std::remove_reference<int>::type&)
PUBLIC 3008c 0 void __gnu_cxx::new_allocator<int>::construct<int, int>(int*, int&&)
PUBLIC 300cc 0 std::remove_reference<int&>::type&& std::move<int&>(int&)
PUBLIC 300e0 0 std::move_iterator<int*>::move_iterator(int*)
PUBLIC 30100 0 google_breakpad::PageStdAllocator<google_breakpad::MappingInfo*>::PageStdAllocator(google_breakpad::PageAllocator&)
PUBLIC 30150 0 std::vector<google_breakpad::MappingInfo*, google_breakpad::PageStdAllocator<google_breakpad::MappingInfo*> >::vector(google_breakpad::PageStdAllocator<google_breakpad::MappingInfo*> const&)
PUBLIC 30194 0 google_breakpad::PageStdAllocator<google_breakpad::MappingInfo*>::~PageStdAllocator()
PUBLIC 301cc 0 std::vector<google_breakpad::MappingInfo*, google_breakpad::PageStdAllocator<google_breakpad::MappingInfo*> >::reserve(unsigned int)
PUBLIC 3030c 0 std::allocator<google_breakpad::MappingInfo*>::allocator()
PUBLIC 30344 0 __gnu_cxx::new_allocator<google_breakpad::MappingInfo*>::new_allocator()
PUBLIC 30358 0 std::_Vector_base<google_breakpad::MappingInfo*, google_breakpad::PageStdAllocator<google_breakpad::MappingInfo*> >::_Vector_base(google_breakpad::PageStdAllocator<google_breakpad::MappingInfo*> const&)
PUBLIC 30390 0 std::_Vector_base<google_breakpad::MappingInfo*, google_breakpad::PageStdAllocator<google_breakpad::MappingInfo*> >::_Vector_impl::_Vector_impl(google_breakpad::PageStdAllocator<google_breakpad::MappingInfo*> const&)
PUBLIC 303e4 0 google_breakpad::PageStdAllocator<google_breakpad::MappingInfo*>::PageStdAllocator(google_breakpad::PageStdAllocator<google_breakpad::MappingInfo*> const&)
PUBLIC 30444 0 std::allocator<google_breakpad::MappingInfo*>::allocator(std::allocator<google_breakpad::MappingInfo*> const&)
PUBLIC 30488 0 __gnu_cxx::new_allocator<google_breakpad::MappingInfo*>::new_allocator(__gnu_cxx::new_allocator<google_breakpad::MappingInfo*> const&)
PUBLIC 304a0 0 std::vector<google_breakpad::MappingInfo*, google_breakpad::PageStdAllocator<google_breakpad::MappingInfo*> >::max_size() const
PUBLIC 304c4 0 std::vector<google_breakpad::MappingInfo*, google_breakpad::PageStdAllocator<google_breakpad::MappingInfo*> >::capacity() const
PUBLIC 30500 0 google_breakpad::MappingInfo** std::vector<google_breakpad::MappingInfo*, google_breakpad::PageStdAllocator<google_breakpad::MappingInfo*> >::_M_allocate_and_copy<std::move_iterator<google_breakpad::MappingInfo**> >(unsigned int, std::move_iterator<google_breakpad::MappingInfo**>, std::move_iterator<google_breakpad::MappingInfo**>)
PUBLIC 305b8 0 std::move_iterator<google_breakpad::MappingInfo**> std::__make_move_if_noexcept_iterator<google_breakpad::MappingInfo**, std::move_iterator<google_breakpad::MappingInfo**> >(google_breakpad::MappingInfo**)
PUBLIC 3062c 0 std::allocator_traits<google_breakpad::PageStdAllocator<google_breakpad::MappingInfo*> >::max_size(google_breakpad::PageStdAllocator<google_breakpad::MappingInfo*> const&)
PUBLIC 30650 0 std::_Vector_base<google_breakpad::MappingInfo*, google_breakpad::PageStdAllocator<google_breakpad::MappingInfo*> >::_M_get_Tp_allocator() const
PUBLIC 30664 0 unsigned int std::allocator_traits<google_breakpad::PageStdAllocator<google_breakpad::MappingInfo*> >::_S_max_size<google_breakpad::PageStdAllocator<google_breakpad::MappingInfo*> const, void>(google_breakpad::PageStdAllocator<google_breakpad::MappingInfo*> const&, int)
PUBLIC 30688 0 __gnu_cxx::new_allocator<google_breakpad::MappingInfo*>::max_size() const
PUBLIC 306a4 0 std::_Vector_base<google_breakpad::MappingInfo*, google_breakpad::PageStdAllocator<google_breakpad::MappingInfo*> >::_M_allocate(unsigned int)
PUBLIC 306f8 0 google_breakpad::MappingInfo** std::__uninitialized_copy_a<std::move_iterator<google_breakpad::MappingInfo**>, google_breakpad::MappingInfo**, google_breakpad::PageStdAllocator<google_breakpad::MappingInfo*> >(std::move_iterator<google_breakpad::MappingInfo**>, std::move_iterator<google_breakpad::MappingInfo**>, google_breakpad::MappingInfo**, google_breakpad::PageStdAllocator<google_breakpad::MappingInfo*>&)
PUBLIC 307d0 0 std::allocator_traits<google_breakpad::PageStdAllocator<google_breakpad::MappingInfo*> >::allocate(google_breakpad::PageStdAllocator<google_breakpad::MappingInfo*>&, unsigned int)
PUBLIC 307fc 0 google_breakpad::PageStdAllocator<google_breakpad::MappingInfo*>::allocate(unsigned int, void const*)
PUBLIC 30870 0 bool std::operator!=<google_breakpad::MappingInfo**>(std::move_iterator<google_breakpad::MappingInfo**> const&, std::move_iterator<google_breakpad::MappingInfo**> const&)
PUBLIC 308a4 0 _ZNSt16allocator_traitsIN15google_breakpad16PageStdAllocatorIPNS0_11MappingInfoEEEE9constructIS3_JS3_EEEDTcl12_S_constructfp_fp0_spclsr3stdE7forwardIT0_Efp1_EEERS4_PT_DpOS7_
PUBLIC 308f8 0 std::move_iterator<google_breakpad::MappingInfo**>::operator*() const
PUBLIC 3091c 0 std::move_iterator<google_breakpad::MappingInfo**>::operator++()
PUBLIC 3093c 0 bool std::operator==<google_breakpad::MappingInfo**>(std::move_iterator<google_breakpad::MappingInfo**> const&, std::move_iterator<google_breakpad::MappingInfo**> const&)
PUBLIC 30984 0 std::move_iterator<google_breakpad::MappingInfo**>::base() const
PUBLIC 3099c 0 _ZNSt16allocator_traitsIN15google_breakpad16PageStdAllocatorIPNS0_11MappingInfoEEEE12_S_constructIS3_JS3_EEENSt9enable_ifIXsr6__and_INS5_18__construct_helperIT_JDpT0_EE4typeEEE5valueEvE4typeERS4_PS9_DpOSA_
PUBLIC 309f0 0 google_breakpad::MappingInfo*&& std::forward<google_breakpad::MappingInfo*>(std::remove_reference<google_breakpad::MappingInfo*>::type&)
PUBLIC 30a04 0 void __gnu_cxx::new_allocator<google_breakpad::MappingInfo*>::construct<google_breakpad::MappingInfo*, google_breakpad::MappingInfo*>(google_breakpad::MappingInfo**, google_breakpad::MappingInfo*&&)
PUBLIC 30a44 0 std::remove_reference<google_breakpad::MappingInfo*&>::type&& std::move<google_breakpad::MappingInfo*&>(google_breakpad::MappingInfo*&)
PUBLIC 30a58 0 std::move_iterator<google_breakpad::MappingInfo**>::move_iterator(google_breakpad::MappingInfo**)
PUBLIC 30a78 0 google_breakpad::PageStdAllocator<unsigned int>::PageStdAllocator(google_breakpad::PageAllocator&)
PUBLIC 30ac8 0 std::vector<unsigned int, google_breakpad::PageStdAllocator<unsigned int> >::vector(google_breakpad::PageStdAllocator<unsigned int> const&)
PUBLIC 30b0c 0 google_breakpad::PageStdAllocator<unsigned int>::~PageStdAllocator()
PUBLIC 30b44 0 std::vector<unsigned int, google_breakpad::PageStdAllocator<unsigned int> >::reserve(unsigned int)
PUBLIC 30c84 0 std::allocator<unsigned int>::allocator()
PUBLIC 30cbc 0 __gnu_cxx::new_allocator<unsigned int>::new_allocator()
PUBLIC 30cd0 0 std::_Vector_base<unsigned int, google_breakpad::PageStdAllocator<unsigned int> >::_Vector_base(google_breakpad::PageStdAllocator<unsigned int> const&)
PUBLIC 30d08 0 std::_Vector_base<unsigned int, google_breakpad::PageStdAllocator<unsigned int> >::_Vector_impl::_Vector_impl(google_breakpad::PageStdAllocator<unsigned int> const&)
PUBLIC 30d5c 0 google_breakpad::PageStdAllocator<unsigned int>::PageStdAllocator(google_breakpad::PageStdAllocator<unsigned int> const&)
PUBLIC 30dbc 0 std::allocator<unsigned int>::allocator(std::allocator<unsigned int> const&)
PUBLIC 30e00 0 __gnu_cxx::new_allocator<unsigned int>::new_allocator(__gnu_cxx::new_allocator<unsigned int> const&)
PUBLIC 30e18 0 std::vector<unsigned int, google_breakpad::PageStdAllocator<unsigned int> >::max_size() const
PUBLIC 30e3c 0 std::vector<unsigned int, google_breakpad::PageStdAllocator<unsigned int> >::capacity() const
PUBLIC 30e78 0 std::vector<unsigned int, google_breakpad::PageStdAllocator<unsigned int> >::size() const
PUBLIC 30eb4 0 unsigned int* std::vector<unsigned int, google_breakpad::PageStdAllocator<unsigned int> >::_M_allocate_and_copy<std::move_iterator<unsigned int*> >(unsigned int, std::move_iterator<unsigned int*>, std::move_iterator<unsigned int*>)
PUBLIC 30f6c 0 std::move_iterator<unsigned int*> std::__make_move_if_noexcept_iterator<unsigned int*, std::move_iterator<unsigned int*> >(unsigned int*)
PUBLIC 30fe0 0 std::allocator_traits<google_breakpad::PageStdAllocator<unsigned int> >::max_size(google_breakpad::PageStdAllocator<unsigned int> const&)
PUBLIC 31004 0 std::_Vector_base<unsigned int, google_breakpad::PageStdAllocator<unsigned int> >::_M_get_Tp_allocator() const
PUBLIC 31018 0 unsigned int std::allocator_traits<google_breakpad::PageStdAllocator<unsigned int> >::_S_max_size<google_breakpad::PageStdAllocator<unsigned int> const, void>(google_breakpad::PageStdAllocator<unsigned int> const&, int)
PUBLIC 3103c 0 __gnu_cxx::new_allocator<unsigned int>::max_size() const
PUBLIC 31058 0 std::_Vector_base<unsigned int, google_breakpad::PageStdAllocator<unsigned int> >::_M_allocate(unsigned int)
PUBLIC 310ac 0 unsigned int* std::__uninitialized_copy_a<std::move_iterator<unsigned int*>, unsigned int*, google_breakpad::PageStdAllocator<unsigned int> >(std::move_iterator<unsigned int*>, std::move_iterator<unsigned int*>, unsigned int*, google_breakpad::PageStdAllocator<unsigned int>&)
PUBLIC 31184 0 std::allocator_traits<google_breakpad::PageStdAllocator<unsigned int> >::allocate(google_breakpad::PageStdAllocator<unsigned int>&, unsigned int)
PUBLIC 311b0 0 google_breakpad::PageStdAllocator<unsigned int>::allocate(unsigned int, void const*)
PUBLIC 31224 0 bool std::operator!=<unsigned int*>(std::move_iterator<unsigned int*> const&, std::move_iterator<unsigned int*> const&)
PUBLIC 31258 0 _ZNSt16allocator_traitsIN15google_breakpad16PageStdAllocatorIjEEE9constructIjJjEEEDTcl12_S_constructfp_fp0_spclsr3stdE7forwardIT0_Efp1_EEERS2_PT_DpOS5_
PUBLIC 312ac 0 std::move_iterator<unsigned int*>::operator*() const
PUBLIC 312d0 0 std::move_iterator<unsigned int*>::operator++()
PUBLIC 312f0 0 bool std::operator==<unsigned int*>(std::move_iterator<unsigned int*> const&, std::move_iterator<unsigned int*> const&)
PUBLIC 31338 0 std::move_iterator<unsigned int*>::base() const
PUBLIC 31350 0 _ZNSt16allocator_traitsIN15google_breakpad16PageStdAllocatorIjEEE12_S_constructIjJjEEENSt9enable_ifIXsr6__and_INS3_18__construct_helperIT_JDpT0_EE4typeEEE5valueEvE4typeERS2_PS7_DpOS8_
PUBLIC 313a4 0 unsigned int&& std::forward<unsigned int>(std::remove_reference<unsigned int>::type&)
PUBLIC 313b8 0 void __gnu_cxx::new_allocator<unsigned int>::construct<unsigned int, unsigned int>(unsigned int*, unsigned int&&)
PUBLIC 313f8 0 std::remove_reference<unsigned int&>::type&& std::move<unsigned int&>(unsigned int&)
PUBLIC 3140c 0 std::move_iterator<unsigned int*>::move_iterator(unsigned int*)
PUBLIC 3142c 0 std::vector<unsigned int, google_breakpad::PageStdAllocator<unsigned int> >::_M_default_append(unsigned int)
PUBLIC 31634 0 std::vector<unsigned int, google_breakpad::PageStdAllocator<unsigned int> >::_M_erase_at_end(unsigned int*)
PUBLIC 316a4 0 void std::__uninitialized_default_n_a<unsigned int*, unsigned int, google_breakpad::PageStdAllocator<unsigned int> >(unsigned int*, unsigned int, google_breakpad::PageStdAllocator<unsigned int>&)
PUBLIC 31720 0 std::vector<unsigned int, google_breakpad::PageStdAllocator<unsigned int> >::_M_check_len(unsigned int, char const*) const
PUBLIC 31850 0 unsigned int* std::__uninitialized_move_if_noexcept_a<unsigned int*, unsigned int*, google_breakpad::PageStdAllocator<unsigned int> >(unsigned int*, unsigned int*, unsigned int*, google_breakpad::PageStdAllocator<unsigned int>&)
PUBLIC 318a8 0 _ZNSt16allocator_traitsIN15google_breakpad16PageStdAllocatorIjEEE9constructIjJEEEDTcl12_S_constructfp_fp0_spclsr3stdE7forwardIT0_Efp1_EEERS2_PT_DpOS5_
PUBLIC 318d0 0 _ZNSt16allocator_traitsIN15google_breakpad16PageStdAllocatorIjEEE12_S_constructIjJEEENSt9enable_ifIXsr6__and_INS3_18__construct_helperIT_JDpT0_EE4typeEEE5valueEvE4typeERS2_PS7_DpOS8_
PUBLIC 318f8 0 void __gnu_cxx::new_allocator<unsigned int>::construct<unsigned int>(unsigned int*)
PUBLIC 31918 0 bool __gnu_cxx::operator==<google_breakpad::MappingInfo* const*, std::vector<google_breakpad::MappingInfo*, google_breakpad::PageStdAllocator<google_breakpad::MappingInfo*> > >(__gnu_cxx::__normal_iterator<google_breakpad::MappingInfo* const*, std::vector<google_breakpad::MappingInfo*, google_breakpad::PageStdAllocator<google_breakpad::MappingInfo*> > > const&, __gnu_cxx::__normal_iterator<google_breakpad::MappingInfo* const*, std::vector<google_breakpad::MappingInfo*, google_breakpad::PageStdAllocator<google_breakpad::MappingInfo*> > > const&)
PUBLIC 31968 0 std::vector<google_breakpad::MappingInfo*, google_breakpad::PageStdAllocator<google_breakpad::MappingInfo*> >::begin() const
PUBLIC 319e4 0 std::vector<google_breakpad::MappingInfo*, google_breakpad::PageStdAllocator<google_breakpad::MappingInfo*> >::end() const
PUBLIC 31a60 0 __gnu_cxx::__normal_iterator<google_breakpad::MappingInfo* const*, std::vector<google_breakpad::MappingInfo*, google_breakpad::PageStdAllocator<google_breakpad::MappingInfo*> > >::base() const
PUBLIC 31a74 0 __gnu_cxx::__normal_iterator<google_breakpad::MappingInfo* const*, std::vector<google_breakpad::MappingInfo*, google_breakpad::PageStdAllocator<google_breakpad::MappingInfo*> > >::__normal_iterator(google_breakpad::MappingInfo* const* const&)
PUBLIC 31a98 0 std::vector<google_breakpad::MappingInfo*, google_breakpad::PageStdAllocator<google_breakpad::MappingInfo*> >::end()
PUBLIC 31b10 0 __gnu_cxx::__normal_iterator<google_breakpad::MappingInfo**, std::vector<google_breakpad::MappingInfo*, google_breakpad::PageStdAllocator<google_breakpad::MappingInfo*> > >::operator-(int) const
PUBLIC 31ba4 0 __gnu_cxx::__normal_iterator<google_breakpad::MappingInfo**, std::vector<google_breakpad::MappingInfo*, google_breakpad::PageStdAllocator<google_breakpad::MappingInfo*> > >::operator*() const
PUBLIC 31bbc 0 __gnu_cxx::__normal_iterator<google_breakpad::MappingInfo**, std::vector<google_breakpad::MappingInfo*, google_breakpad::PageStdAllocator<google_breakpad::MappingInfo*> > >::__normal_iterator(google_breakpad::MappingInfo** const&)
PUBLIC 31be0 0 std::vector<google_breakpad::MappingInfo*, google_breakpad::PageStdAllocator<google_breakpad::MappingInfo*> >::_M_default_append(unsigned int)
PUBLIC 31de8 0 std::vector<google_breakpad::MappingInfo*, google_breakpad::PageStdAllocator<google_breakpad::MappingInfo*> >::_M_erase_at_end(google_breakpad::MappingInfo**)
PUBLIC 31e58 0 void std::__uninitialized_default_n_a<google_breakpad::MappingInfo**, unsigned int, google_breakpad::PageStdAllocator<google_breakpad::MappingInfo*> >(google_breakpad::MappingInfo**, unsigned int, google_breakpad::PageStdAllocator<google_breakpad::MappingInfo*>&)
PUBLIC 31ed4 0 std::vector<google_breakpad::MappingInfo*, google_breakpad::PageStdAllocator<google_breakpad::MappingInfo*> >::_M_check_len(unsigned int, char const*) const
PUBLIC 32004 0 google_breakpad::MappingInfo** std::__uninitialized_move_if_noexcept_a<google_breakpad::MappingInfo**, google_breakpad::MappingInfo**, google_breakpad::PageStdAllocator<google_breakpad::MappingInfo*> >(google_breakpad::MappingInfo**, google_breakpad::MappingInfo**, google_breakpad::MappingInfo**, google_breakpad::PageStdAllocator<google_breakpad::MappingInfo*>&)
PUBLIC 3205c 0 _ZNSt16allocator_traitsIN15google_breakpad16PageStdAllocatorIPNS0_11MappingInfoEEEE9constructIS3_JEEEDTcl12_S_constructfp_fp0_spclsr3stdE7forwardIT0_Efp1_EEERS4_PT_DpOS7_
PUBLIC 32084 0 _ZNSt16allocator_traitsIN15google_breakpad16PageStdAllocatorIPNS0_11MappingInfoEEEE12_S_constructIS3_JEEENSt9enable_ifIXsr6__and_INS5_18__construct_helperIT_JDpT0_EE4typeEEE5valueEvE4typeERS4_PS9_DpOSA_
PUBLIC 320ac 0 void __gnu_cxx::new_allocator<google_breakpad::MappingInfo*>::construct<google_breakpad::MappingInfo*>(google_breakpad::MappingInfo**)
PUBLIC 320cc 0 _ZNSt16allocator_traitsIN15google_breakpad16PageStdAllocatorIPNS0_11MappingInfoEEEE9constructIS3_JRKS3_EEEDTcl12_S_constructfp_fp0_spclsr3stdE7forwardIT0_Efp1_EEERS4_PT_DpOS9_
PUBLIC 32120 0 void std::vector<google_breakpad::MappingInfo*, google_breakpad::PageStdAllocator<google_breakpad::MappingInfo*> >::_M_emplace_back_aux<google_breakpad::MappingInfo* const&>(google_breakpad::MappingInfo* const&)
PUBLIC 322a4 0 _ZNSt16allocator_traitsIN15google_breakpad16PageStdAllocatorIPNS0_11MappingInfoEEEE12_S_constructIS3_JRKS3_EEENSt9enable_ifIXsr6__and_INS5_18__construct_helperIT_JDpT0_EE4typeEEE5valueEvE4typeERS4_PSB_DpOSC_
PUBLIC 322f8 0 google_breakpad::MappingInfo* const& std::forward<google_breakpad::MappingInfo* const&>(std::remove_reference<google_breakpad::MappingInfo* const&>::type&)
PUBLIC 3230c 0 void __gnu_cxx::new_allocator<google_breakpad::MappingInfo*>::construct<google_breakpad::MappingInfo*, google_breakpad::MappingInfo* const&>(google_breakpad::MappingInfo**, google_breakpad::MappingInfo* const&)
PUBLIC 3234c 0 google_breakpad::LinuxPtraceDumper::LinuxPtraceDumper(int)
PUBLIC 323b8 0 google_breakpad::LinuxPtraceDumper::BuildProcPath(char*, int, char const*) const
PUBLIC 32550 0 google_breakpad::LinuxPtraceDumper::CopyFromProcess(void*, int, void const*, unsigned int)
PUBLIC 3269c 0 sys_ptrace(int, int, void*, void*)
PUBLIC 32748 0 google_breakpad::LinuxPtraceDumper::GetThreadInfoByIndex(unsigned int, google_breakpad::ThreadInfo*)
PUBLIC 32a38 0 std::vector<int, google_breakpad::PageStdAllocator<int> >::operator[](unsigned int)
PUBLIC 32a68 0 sys_open(char const*, int, int)
PUBLIC 32b04 0 sys_close(int)
PUBLIC 32b80 0 google_breakpad::LinuxPtraceDumper::IsPostMortem() const
PUBLIC 32b98 0 google_breakpad::LinuxPtraceDumper::ThreadsSuspend()
PUBLIC 32d28 0 SuspendThread(int)
PUBLIC 32e10 0 std::vector<int, google_breakpad::PageStdAllocator<int> >::resize(unsigned int)
PUBLIC 32ebc 0 google_breakpad::LinuxPtraceDumper::ThreadsResume()
PUBLIC 32f98 0 ResumeThread(int)
PUBLIC 32fe4 0 google_breakpad::LinuxPtraceDumper::EnumerateThreads()
PUBLIC 331a4 0 google_breakpad::DirectoryReader::DirectoryReader(int)
PUBLIC 331cc 0 google_breakpad::DirectoryReader::GetNextEntry(char const**)
PUBLIC 33304 0 std::vector<int, google_breakpad::PageStdAllocator<int> >::push_back(int const&)
PUBLIC 3336c 0 google_breakpad::DirectoryReader::PopEntry()
PUBLIC 333e0 0 google_breakpad::LinuxPtraceDumper::~LinuxPtraceDumper()
PUBLIC 33414 0 sys_mmap(void*, unsigned int, int, int, int, long long)
PUBLIC 334d4 0 sys__mmap2(void*, unsigned int, int, int, int, long)
PUBLIC 335a8 0 sys_read(int, void*, unsigned int)
PUBLIC 33644 0 sys_waitpid(int, int*, int)
PUBLIC 33678 0 sys_wait4(int, int*, int, kernel_rusage*)
PUBLIC 33724 0 sys_getdents(int, kernel_dirent*, int)
PUBLIC 337c0 0 std::vector<int, google_breakpad::PageStdAllocator<int> >::_M_default_append(unsigned int)
PUBLIC 339c8 0 std::vector<int, google_breakpad::PageStdAllocator<int> >::_M_erase_at_end(int*)
PUBLIC 33a38 0 void std::__uninitialized_default_n_a<int*, unsigned int, google_breakpad::PageStdAllocator<int> >(int*, unsigned int, google_breakpad::PageStdAllocator<int>&)
PUBLIC 33ab4 0 std::vector<int, google_breakpad::PageStdAllocator<int> >::_M_check_len(unsigned int, char const*) const
PUBLIC 33be4 0 int* std::__uninitialized_move_if_noexcept_a<int*, int*, google_breakpad::PageStdAllocator<int> >(int*, int*, int*, google_breakpad::PageStdAllocator<int>&)
PUBLIC 33c3c 0 _ZNSt16allocator_traitsIN15google_breakpad16PageStdAllocatorIiEEE9constructIiJEEEDTcl12_S_constructfp_fp0_spclsr3stdE7forwardIT0_Efp1_EEERS2_PT_DpOS5_
PUBLIC 33c64 0 _ZNSt16allocator_traitsIN15google_breakpad16PageStdAllocatorIiEEE12_S_constructIiJEEENSt9enable_ifIXsr6__and_INS3_18__construct_helperIT_JDpT0_EE4typeEEE5valueEvE4typeERS2_PS7_DpOS8_
PUBLIC 33c8c 0 void __gnu_cxx::new_allocator<int>::construct<int>(int*)
PUBLIC 33cac 0 _ZNSt16allocator_traitsIN15google_breakpad16PageStdAllocatorIiEEE9constructIiJRKiEEEDTcl12_S_constructfp_fp0_spclsr3stdE7forwardIT0_Efp1_EEERS2_PT_DpOS7_
PUBLIC 33d00 0 void std::vector<int, google_breakpad::PageStdAllocator<int> >::_M_emplace_back_aux<int const&>(int const&)
PUBLIC 33e84 0 _ZNSt16allocator_traitsIN15google_breakpad16PageStdAllocatorIiEEE12_S_constructIiJRKiEEENSt9enable_ifIXsr6__and_INS3_18__construct_helperIT_JDpT0_EE4typeEEE5valueEvE4typeERS2_PS9_DpOSA_
PUBLIC 33ed8 0 int const& std::forward<int const&>(std::remove_reference<int const&>::type&)
PUBLIC 33eec 0 void __gnu_cxx::new_allocator<int>::construct<int, int const&>(int*, int const&)
PUBLIC 33f2c 0 google_breakpad::WriteMinidump(char const*, int, void const*, unsigned int)
PUBLIC 34044 0 (anonymous namespace)::WriteMinidumpImpl(char const*, int, long, int, void const*, unsigned int, std::list<google_breakpad::MappingEntry, std::allocator<google_breakpad::MappingEntry> > const&, std::list<google_breakpad::AppMemory, std::allocator<google_breakpad::AppMemory> > const&)
PUBLIC 34200 0 google_breakpad::WriteMinidump(int, int, void const*, unsigned int)
PUBLIC 34308 0 google_breakpad::WriteMinidump(char const*, int, int)
PUBLIC 34474 0 (anonymous namespace)::MinidumpWriter::MinidumpWriter(char const*, int, google_breakpad::ExceptionHandler::CrashContext const*, std::list<google_breakpad::MappingEntry, std::allocator<google_breakpad::MappingEntry> > const&, std::list<google_breakpad::AppMemory, std::allocator<google_breakpad::AppMemory> > const&, google_breakpad::LinuxDumper*)
PUBLIC 34614 0 (anonymous namespace)::MinidumpWriter::Init()
PUBLIC 34710 0 (anonymous namespace)::MinidumpWriter::Dump()
PUBLIC 34e0c 0 (anonymous namespace)::MinidumpWriter::~MinidumpWriter()
PUBLIC 34e98 0 google_breakpad::WriteMinidump(char const*, int, void const*, unsigned int, std::list<google_breakpad::MappingEntry, std::allocator<google_breakpad::MappingEntry> > const&, std::list<google_breakpad::AppMemory, std::allocator<google_breakpad::AppMemory> > const&)
PUBLIC 34f18 0 google_breakpad::WriteMinidump(int, int, void const*, unsigned int, std::list<google_breakpad::MappingEntry, std::allocator<google_breakpad::MappingEntry> > const&, std::list<google_breakpad::AppMemory, std::allocator<google_breakpad::AppMemory> > const&)
PUBLIC 34f9c 0 google_breakpad::WriteMinidump(char const*, long, int, void const*, unsigned int, std::list<google_breakpad::MappingEntry, std::allocator<google_breakpad::MappingEntry> > const&, std::list<google_breakpad::AppMemory, std::allocator<google_breakpad::AppMemory> > const&)
PUBLIC 3501c 0 google_breakpad::WriteMinidump(int, long, int, void const*, unsigned int, std::list<google_breakpad::MappingEntry, std::allocator<google_breakpad::MappingEntry> > const&, std::list<google_breakpad::AppMemory, std::allocator<google_breakpad::AppMemory> > const&)
PUBLIC 3509c 0 google_breakpad::WriteMinidump(char const*, std::list<google_breakpad::MappingEntry, std::allocator<google_breakpad::MappingEntry> > const&, std::list<google_breakpad::AppMemory, std::allocator<google_breakpad::AppMemory> > const&, google_breakpad::LinuxDumper*)
PUBLIC 351a8 0 (anonymous namespace)::MinidumpWriter::set_minidump_size_limit(long)
PUBLIC 351c8 0 google_breakpad::wasteful_vector<MDMemoryDescriptor>::wasteful_vector(google_breakpad::PageAllocator*, unsigned int)
PUBLIC 35280 0 google_breakpad::PageStdAllocator<MDMemoryDescriptor>::PageStdAllocator(google_breakpad::PageAllocator&)
PUBLIC 352d0 0 std::vector<MDMemoryDescriptor, google_breakpad::PageStdAllocator<MDMemoryDescriptor> >::vector(google_breakpad::PageStdAllocator<MDMemoryDescriptor> const&)
PUBLIC 35314 0 google_breakpad::PageStdAllocator<MDMemoryDescriptor>::~PageStdAllocator()
PUBLIC 3534c 0 std::vector<MDMemoryDescriptor, google_breakpad::PageStdAllocator<MDMemoryDescriptor> >::reserve(unsigned int)
PUBLIC 3548c 0 std::allocator<MDMemoryDescriptor>::allocator()
PUBLIC 354c4 0 __gnu_cxx::new_allocator<MDMemoryDescriptor>::new_allocator()
PUBLIC 354d8 0 std::_Vector_base<MDMemoryDescriptor, google_breakpad::PageStdAllocator<MDMemoryDescriptor> >::_Vector_base(google_breakpad::PageStdAllocator<MDMemoryDescriptor> const&)
PUBLIC 35510 0 std::_Vector_base<MDMemoryDescriptor, google_breakpad::PageStdAllocator<MDMemoryDescriptor> >::_Vector_impl::_Vector_impl(google_breakpad::PageStdAllocator<MDMemoryDescriptor> const&)
PUBLIC 35564 0 google_breakpad::PageStdAllocator<MDMemoryDescriptor>::PageStdAllocator(google_breakpad::PageStdAllocator<MDMemoryDescriptor> const&)
PUBLIC 355c4 0 std::allocator<MDMemoryDescriptor>::allocator(std::allocator<MDMemoryDescriptor> const&)
PUBLIC 35608 0 __gnu_cxx::new_allocator<MDMemoryDescriptor>::new_allocator(__gnu_cxx::new_allocator<MDMemoryDescriptor> const&)
PUBLIC 35620 0 std::allocator<MDMemoryDescriptor>::~allocator()
PUBLIC 35658 0 __gnu_cxx::new_allocator<MDMemoryDescriptor>::~new_allocator()
PUBLIC 3566c 0 std::vector<MDMemoryDescriptor, google_breakpad::PageStdAllocator<MDMemoryDescriptor> >::max_size() const
PUBLIC 35690 0 std::vector<MDMemoryDescriptor, google_breakpad::PageStdAllocator<MDMemoryDescriptor> >::capacity() const
PUBLIC 356cc 0 std::vector<MDMemoryDescriptor, google_breakpad::PageStdAllocator<MDMemoryDescriptor> >::size() const
PUBLIC 35708 0 MDMemoryDescriptor* std::vector<MDMemoryDescriptor, google_breakpad::PageStdAllocator<MDMemoryDescriptor> >::_M_allocate_and_copy<std::move_iterator<MDMemoryDescriptor*> >(unsigned int, std::move_iterator<MDMemoryDescriptor*>, std::move_iterator<MDMemoryDescriptor*>)
PUBLIC 357c0 0 std::move_iterator<MDMemoryDescriptor*> std::__make_move_if_noexcept_iterator<MDMemoryDescriptor*, std::move_iterator<MDMemoryDescriptor*> >(MDMemoryDescriptor*)
PUBLIC 35834 0 void std::_Destroy<MDMemoryDescriptor*, google_breakpad::PageStdAllocator<MDMemoryDescriptor> >(MDMemoryDescriptor*, MDMemoryDescriptor*, google_breakpad::PageStdAllocator<MDMemoryDescriptor>&)
PUBLIC 3589c 0 std::_Vector_base<MDMemoryDescriptor, google_breakpad::PageStdAllocator<MDMemoryDescriptor> >::_M_get_Tp_allocator()
PUBLIC 358b0 0 std::_Vector_base<MDMemoryDescriptor, google_breakpad::PageStdAllocator<MDMemoryDescriptor> >::_M_deallocate(MDMemoryDescriptor*, unsigned int)
PUBLIC 358f8 0 std::allocator_traits<google_breakpad::PageStdAllocator<MDMemoryDescriptor> >::max_size(google_breakpad::PageStdAllocator<MDMemoryDescriptor> const&)
PUBLIC 3591c 0 std::_Vector_base<MDMemoryDescriptor, google_breakpad::PageStdAllocator<MDMemoryDescriptor> >::_M_get_Tp_allocator() const
PUBLIC 35930 0 unsigned int std::allocator_traits<google_breakpad::PageStdAllocator<MDMemoryDescriptor> >::_S_max_size<google_breakpad::PageStdAllocator<MDMemoryDescriptor> const, void>(google_breakpad::PageStdAllocator<MDMemoryDescriptor> const&, int)
PUBLIC 35954 0 __gnu_cxx::new_allocator<MDMemoryDescriptor>::max_size() const
PUBLIC 35970 0 std::_Vector_base<MDMemoryDescriptor, google_breakpad::PageStdAllocator<MDMemoryDescriptor> >::_M_allocate(unsigned int)
PUBLIC 359c4 0 MDMemoryDescriptor* std::__uninitialized_copy_a<std::move_iterator<MDMemoryDescriptor*>, MDMemoryDescriptor*, google_breakpad::PageStdAllocator<MDMemoryDescriptor> >(std::move_iterator<MDMemoryDescriptor*>, std::move_iterator<MDMemoryDescriptor*>, MDMemoryDescriptor*, google_breakpad::PageStdAllocator<MDMemoryDescriptor>&)
PUBLIC 35a9c 0 std::allocator_traits<google_breakpad::PageStdAllocator<MDMemoryDescriptor> >::allocate(google_breakpad::PageStdAllocator<MDMemoryDescriptor>&, unsigned int)
PUBLIC 35ac8 0 google_breakpad::PageStdAllocator<MDMemoryDescriptor>::allocate(unsigned int, void const*)
PUBLIC 35b3c 0 sys_mmap(void*, unsigned int, int, int, int, long long)
PUBLIC 35bfc 0 sys__mmap2(void*, unsigned int, int, int, int, long)
PUBLIC 35cd0 0 bool std::operator!=<MDMemoryDescriptor*>(std::move_iterator<MDMemoryDescriptor*> const&, std::move_iterator<MDMemoryDescriptor*> const&)
PUBLIC 35d04 0 _ZNSt16allocator_traitsIN15google_breakpad16PageStdAllocatorI18MDMemoryDescriptorEEE9constructIS2_JS2_EEEDTcl12_S_constructfp_fp0_spclsr3stdE7forwardIT0_Efp1_EEERS3_PT_DpOS6_
PUBLIC 35d58 0 MDMemoryDescriptor* std::__addressof<MDMemoryDescriptor>(MDMemoryDescriptor&)
PUBLIC 35d6c 0 std::move_iterator<MDMemoryDescriptor*>::operator*() const
PUBLIC 35d90 0 std::move_iterator<MDMemoryDescriptor*>::operator++()
PUBLIC 35db0 0 bool std::operator==<MDMemoryDescriptor*>(std::move_iterator<MDMemoryDescriptor*> const&, std::move_iterator<MDMemoryDescriptor*> const&)
PUBLIC 35df8 0 std::move_iterator<MDMemoryDescriptor*>::base() const
PUBLIC 35e10 0 _ZNSt16allocator_traitsIN15google_breakpad16PageStdAllocatorI18MDMemoryDescriptorEEE12_S_constructIS2_JS2_EEENSt9enable_ifIXsr6__and_INS4_18__construct_helperIT_JDpT0_EE4typeEEE5valueEvE4typeERS3_PS8_DpOS9_
PUBLIC 35e64 0 MDMemoryDescriptor&& std::forward<MDMemoryDescriptor>(std::remove_reference<MDMemoryDescriptor>::type&)
PUBLIC 35e78 0 void __gnu_cxx::new_allocator<MDMemoryDescriptor>::construct<MDMemoryDescriptor, MDMemoryDescriptor>(MDMemoryDescriptor*, MDMemoryDescriptor&&)
PUBLIC 35ed0 0 std::remove_reference<MDMemoryDescriptor&>::type&& std::move<MDMemoryDescriptor&>(MDMemoryDescriptor&)
PUBLIC 35ee4 0 std::move_iterator<MDMemoryDescriptor*>::move_iterator(MDMemoryDescriptor*)
PUBLIC 35f04 0 void std::allocator_traits<google_breakpad::PageStdAllocator<MDMemoryDescriptor> >::destroy<MDMemoryDescriptor>(google_breakpad::PageStdAllocator<MDMemoryDescriptor>&, MDMemoryDescriptor*)
PUBLIC 35f2c 0 _ZNSt16allocator_traitsIN15google_breakpad16PageStdAllocatorI18MDMemoryDescriptorEEE10_S_destroyIS2_EENSt9enable_ifIXsr6__and_INS4_16__destroy_helperIT_E4typeEEE5valueEvE4typeERS3_PS8_
PUBLIC 35f54 0 void __gnu_cxx::new_allocator<MDMemoryDescriptor>::destroy<MDMemoryDescriptor>(MDMemoryDescriptor*)
PUBLIC 35f68 0 std::allocator_traits<google_breakpad::PageStdAllocator<MDMemoryDescriptor> >::deallocate(google_breakpad::PageStdAllocator<MDMemoryDescriptor>&, MDMemoryDescriptor*, unsigned int)
PUBLIC 35f98 0 google_breakpad::PageStdAllocator<MDMemoryDescriptor>::deallocate(MDMemoryDescriptor*, unsigned int)
PUBLIC 35fb0 0 google_breakpad::TypedMDRVA<MDRawDirectory>::TypedMDRVA(google_breakpad::MinidumpFileWriter*)
PUBLIC 36028 0 google_breakpad::TypedMDRVA<MDRawHeader>::TypedMDRVA(google_breakpad::MinidumpFileWriter*)
PUBLIC 360a0 0 google_breakpad::TypedMDRVA<MDRawHeader>::Allocate()
PUBLIC 360e4 0 google_breakpad::TypedMDRVA<MDRawDirectory>::AllocateArray(unsigned int)
PUBLIC 3616c 0 google_breakpad::TypedMDRVA<MDRawHeader>::get()
PUBLIC 36184 0 google_breakpad::UntypedMDRVA::position() const
PUBLIC 3619c 0 google_breakpad::TypedMDRVA<MDRawHeader>::~TypedMDRVA()
PUBLIC 361dc 0 (anonymous namespace)::MinidumpWriter::WriteThreadListStream(MDRawDirectory*)
PUBLIC 36a50 0 google_breakpad::TypedMDRVA<MDRawDirectory>::CopyIndex(unsigned int, MDRawDirectory*)
PUBLIC 36b18 0 (anonymous namespace)::MinidumpWriter::WriteMappings(MDRawDirectory*)
PUBLIC 36f38 0 (anonymous namespace)::MinidumpWriter::WriteAppMemory()
PUBLIC 37164 0 (anonymous namespace)::MinidumpWriter::WriteMemoryListStream(MDRawDirectory*)
PUBLIC 37378 0 (anonymous namespace)::MinidumpWriter::WriteExceptionStream(MDRawDirectory*)
PUBLIC 3752c 0 (anonymous namespace)::MinidumpWriter::WriteSystemInfoStream(MDRawDirectory*)
PUBLIC 37694 0 (anonymous namespace)::MinidumpWriter::WriteFile(MDLocationDescriptor*, char const*)
PUBLIC 379b8 0 (anonymous namespace)::MinidumpWriter::NullifyDirectoryEntry(MDRawDirectory*)
PUBLIC 379e8 0 (anonymous namespace)::MinidumpWriter::WriteProcFile(MDLocationDescriptor*, int, char const*)
PUBLIC 37abc 0 (anonymous namespace)::MinidumpWriter::GetCrashThread() const
PUBLIC 37ae0 0 (anonymous namespace)::MinidumpWriter::WriteDSODebugStream(MDRawDirectory*)
PUBLIC 383f4 0 google_breakpad::TypedMDRVA<MDRawDirectory>::~TypedMDRVA()
PUBLIC 38434 0 google_breakpad::MinidumpFileWriter::position() const
PUBLIC 3844c 0 google_breakpad::minidump_size<MDRawHeader>::size()
PUBLIC 38454 0 google_breakpad::minidump_size<MDRawDirectory>::size()
PUBLIC 3845c 0 google_breakpad::TypedMDRVA<MDRawHeader>::Flush()
PUBLIC 384b4 0 google_breakpad::LinuxDumper::threads()
PUBLIC 384cc 0 google_breakpad::TypedMDRVA<unsigned int>::TypedMDRVA(google_breakpad::MinidumpFileWriter*)
PUBLIC 3851c 0 google_breakpad::TypedMDRVA<unsigned int>::AllocateObjectAndArray(unsigned int, unsigned int)
PUBLIC 385bc 0 google_breakpad::UntypedMDRVA::location() const
PUBLIC 385e0 0 google_breakpad::TypedMDRVA<unsigned int>::get()
PUBLIC 385f8 0 std::vector<int, google_breakpad::PageStdAllocator<int> >::operator[](unsigned int) const
PUBLIC 38628 0 (anonymous namespace)::MinidumpWriter::FillThreadStack(MDRawThread*, unsigned int, int, unsigned char**)
PUBLIC 388a0 0 google_breakpad::UntypedMDRVA::UntypedMDRVA(google_breakpad::MinidumpFileWriter*)
PUBLIC 388ec 0 (anonymous namespace)::MinidumpWriter::Alloc(unsigned int)
PUBLIC 3891c 0 google_breakpad::UntypedMDRVA::Copy(void const*, unsigned int)
PUBLIC 38954 0 std::vector<MDMemoryDescriptor, google_breakpad::PageStdAllocator<MDMemoryDescriptor> >::push_back(MDMemoryDescriptor const&)
PUBLIC 389bc 0 google_breakpad::TypedMDRVA<MDRawContextARM>::TypedMDRVA(google_breakpad::MinidumpFileWriter*)
PUBLIC 38a34 0 google_breakpad::TypedMDRVA<MDRawContextARM>::Allocate()
PUBLIC 38a78 0 google_breakpad::TypedMDRVA<MDRawContextARM>::get()
PUBLIC 38a90 0 google_breakpad::TypedMDRVA<MDRawContextARM>::~TypedMDRVA()
PUBLIC 38ad0 0 google_breakpad::TypedMDRVA<unsigned int>::CopyIndexAfterObject(unsigned int, void const*, unsigned int)
PUBLIC 38b80 0 google_breakpad::TypedMDRVA<unsigned int>::~TypedMDRVA()
PUBLIC 38bc0 0 google_breakpad::minidump_size<unsigned int>::size()
PUBLIC 38bc8 0 _ZNSt16allocator_traitsIN15google_breakpad16PageStdAllocatorI18MDMemoryDescriptorEEE9constructIS2_JRKS2_EEEDTcl12_S_constructfp_fp0_spclsr3stdE7forwardIT0_Efp1_EEERS3_PT_DpOS8_
PUBLIC 38c1c 0 void std::vector<MDMemoryDescriptor, google_breakpad::PageStdAllocator<MDMemoryDescriptor> >::_M_emplace_back_aux<MDMemoryDescriptor const&>(MDMemoryDescriptor const&)
PUBLIC 38da0 0 _ZNSt16allocator_traitsIN15google_breakpad16PageStdAllocatorI18MDMemoryDescriptorEEE12_S_constructIS2_JRKS2_EEENSt9enable_ifIXsr6__and_INS4_18__construct_helperIT_JDpT0_EE4typeEEE5valueEvE4typeERS3_PSA_DpOSB_
PUBLIC 38df4 0 MDMemoryDescriptor const& std::forward<MDMemoryDescriptor const&>(std::remove_reference<MDMemoryDescriptor const&>::type&)
PUBLIC 38e08 0 void __gnu_cxx::new_allocator<MDMemoryDescriptor>::construct<MDMemoryDescriptor, MDMemoryDescriptor const&>(MDMemoryDescriptor*, MDMemoryDescriptor const&)
PUBLIC 38e60 0 std::vector<MDMemoryDescriptor, google_breakpad::PageStdAllocator<MDMemoryDescriptor> >::_M_check_len(unsigned int, char const*) const
PUBLIC 38f90 0 MDMemoryDescriptor* std::__uninitialized_move_if_noexcept_a<MDMemoryDescriptor*, MDMemoryDescriptor*, google_breakpad::PageStdAllocator<MDMemoryDescriptor> >(MDMemoryDescriptor*, MDMemoryDescriptor*, MDMemoryDescriptor*, google_breakpad::PageStdAllocator<MDMemoryDescriptor>&)
PUBLIC 38fe8 0 google_breakpad::minidump_size<MDRawContextARM>::size()
PUBLIC 38ff0 0 google_breakpad::TypedMDRVA<MDRawContextARM>::Flush()
PUBLIC 39048 0 google_breakpad::TypedMDRVA<unsigned int>::Flush()
PUBLIC 390a0 0 std::list<google_breakpad::MappingEntry, std::allocator<google_breakpad::MappingEntry> >::size() const
PUBLIC 390e4 0 (anonymous namespace)::MinidumpWriter::ShouldIncludeMapping(google_breakpad::MappingInfo const&)
PUBLIC 39158 0 (anonymous namespace)::MinidumpWriter::HaveMappingInfo(google_breakpad::MappingInfo const&)
PUBLIC 3929c 0 google_breakpad::TypedMDRVA<unsigned int>::Allocate()
PUBLIC 392e0 0 (anonymous namespace)::MinidumpWriter::FillRawModule(google_breakpad::MappingInfo const&, bool, unsigned int, MDRawModule*, unsigned char const*)
PUBLIC 3962c 0 std::iterator_traits<std::_List_const_iterator<google_breakpad::MappingEntry> >::difference_type std::distance<std::_List_const_iterator<google_breakpad::MappingEntry> >(std::_List_const_iterator<google_breakpad::MappingEntry>, std::_List_const_iterator<google_breakpad::MappingEntry>)
PUBLIC 396a8 0 std::iterator_traits<std::_List_const_iterator<google_breakpad::MappingEntry> >::difference_type std::__distance<std::_List_const_iterator<google_breakpad::MappingEntry> >(std::_List_const_iterator<google_breakpad::MappingEntry>, std::_List_const_iterator<google_breakpad::MappingEntry>, std::input_iterator_tag)
PUBLIC 3973c 0 std::iterator_traits<std::_List_const_iterator<google_breakpad::MappingEntry> >::iterator_category std::__iterator_category<std::_List_const_iterator<google_breakpad::MappingEntry> >(std::_List_const_iterator<google_breakpad::MappingEntry> const&)
PUBLIC 3974c 0 std::vector<unsigned char, google_breakpad::PageStdAllocator<unsigned char> >::empty() const
PUBLIC 397d4 0 bool __gnu_cxx::operator==<unsigned char const*, std::vector<unsigned char, google_breakpad::PageStdAllocator<unsigned char> > >(__gnu_cxx::__normal_iterator<unsigned char const*, std::vector<unsigned char, google_breakpad::PageStdAllocator<unsigned char> > > const&, __gnu_cxx::__normal_iterator<unsigned char const*, std::vector<unsigned char, google_breakpad::PageStdAllocator<unsigned char> > > const&)
PUBLIC 39824 0 std::vector<unsigned char, google_breakpad::PageStdAllocator<unsigned char> >::begin() const
PUBLIC 398a0 0 std::vector<unsigned char, google_breakpad::PageStdAllocator<unsigned char> >::end() const
PUBLIC 3991c 0 std::list<google_breakpad::AppMemory, std::allocator<google_breakpad::AppMemory> >::begin() const
PUBLIC 39994 0 std::_List_const_iterator<google_breakpad::AppMemory>::operator!=(std::_List_const_iterator<google_breakpad::AppMemory> const&) const
PUBLIC 399c8 0 std::list<google_breakpad::AppMemory, std::allocator<google_breakpad::AppMemory> >::end() const
PUBLIC 39a3c 0 std::_List_const_iterator<google_breakpad::AppMemory>::operator->() const
PUBLIC 39a64 0 std::_List_const_iterator<google_breakpad::AppMemory>::operator++()
PUBLIC 39a84 0 std::_List_const_iterator<google_breakpad::AppMemory>::_List_const_iterator(std::__detail::_List_node_base const*)
PUBLIC 39aa4 0 google_breakpad::AppMemory const* std::__addressof<google_breakpad::AppMemory const>(google_breakpad::AppMemory const&)
PUBLIC 39ab8 0 std::vector<MDMemoryDescriptor, google_breakpad::PageStdAllocator<MDMemoryDescriptor> >::operator[](unsigned int)
PUBLIC 39ae8 0 google_breakpad::TypedMDRVA<MDRawExceptionStream>::TypedMDRVA(google_breakpad::MinidumpFileWriter*)
PUBLIC 39b60 0 google_breakpad::TypedMDRVA<MDRawExceptionStream>::Allocate()
PUBLIC 39ba4 0 google_breakpad::TypedMDRVA<MDRawExceptionStream>::get()
PUBLIC 39bbc 0 google_breakpad::LinuxDumper::crash_signal() const
PUBLIC 39bd4 0 google_breakpad::LinuxDumper::crash_address() const
PUBLIC 39bec 0 google_breakpad::TypedMDRVA<MDRawExceptionStream>::~TypedMDRVA()
PUBLIC 39c2c 0 google_breakpad::minidump_size<MDRawExceptionStream>::size()
PUBLIC 39c34 0 google_breakpad::TypedMDRVA<MDRawExceptionStream>::Flush()
PUBLIC 39c8c 0 google_breakpad::TypedMDRVA<MDRawSystemInfo>::TypedMDRVA(google_breakpad::MinidumpFileWriter*)
PUBLIC 39d04 0 google_breakpad::TypedMDRVA<MDRawSystemInfo>::Allocate()
PUBLIC 39d48 0 google_breakpad::TypedMDRVA<MDRawSystemInfo>::get()
PUBLIC 39d60 0 (anonymous namespace)::MinidumpWriter::WriteCPUInformation(MDRawSystemInfo*)
PUBLIC 3a3cc 0 (anonymous namespace)::MinidumpWriter::WriteOSInformation(MDRawSystemInfo*)
PUBLIC 3a634 0 google_breakpad::TypedMDRVA<MDRawSystemInfo>::~TypedMDRVA()
PUBLIC 3a674 0 google_breakpad::minidump_size<MDRawSystemInfo>::size()
PUBLIC 3a67c 0 google_breakpad::CpuSet::CpuSet()
PUBLIC 3a6b8 0 sys_open(char const*, int, int)
PUBLIC 3a754 0 google_breakpad::CpuSet::ParseSysFile(int)
PUBLIC 3a9ec 0 sys_close(int)
PUBLIC 3aa68 0 google_breakpad::CpuSet::IntersectWith(google_breakpad::CpuSet const&)
PUBLIC 3aadc 0 google_breakpad::CpuSet::GetCount()
PUBLIC 3ab94 0 google_breakpad::ProcCpuInfoReader::ProcCpuInfoReader(int)
PUBLIC 3abd4 0 google_breakpad::ProcCpuInfoReader::GetNextField(char const**)
PUBLIC 3addc 0 google_breakpad::ProcCpuInfoReader::GetValue()
PUBLIC 3ae44 0 google_breakpad::ProcCpuInfoReader::GetValueAndLen(unsigned int*)
PUBLIC 3aebc 0 sys_read(int, void*, unsigned int)
PUBLIC 3af58 0 google_breakpad::CpuSet::SetBit(unsigned int)
PUBLIC 3afc4 0 getpagesize()
PUBLIC 3afcc 0 sys_munmap(void*, unsigned int)
PUBLIC 3b058 0 google_breakpad::TypedMDRVA<MDRawSystemInfo>::Flush()
PUBLIC 3b0b0 0 google_breakpad::LinuxDumper::auxv()
PUBLIC 3b0c8 0 std::vector<unsigned int, google_breakpad::PageStdAllocator<unsigned int> >::operator[](unsigned int) const
PUBLIC 3b0f8 0 google_breakpad::TypedMDRVA<MDRawLinkMap32>::TypedMDRVA(google_breakpad::MinidumpFileWriter*)
PUBLIC 3b170 0 google_breakpad::TypedMDRVA<MDRawLinkMap32>::AllocateArray(unsigned int)
PUBLIC 3b1f8 0 google_breakpad::TypedMDRVA<MDRawLinkMap32>::CopyIndex(unsigned int, MDRawLinkMap32*)
PUBLIC 3b2c0 0 google_breakpad::TypedMDRVA<MDRawLinkMap32>::~TypedMDRVA()
PUBLIC 3b300 0 google_breakpad::TypedMDRVA<MDRawDebug32>::TypedMDRVA(google_breakpad::MinidumpFileWriter*)
PUBLIC 3b378 0 google_breakpad::TypedMDRVA<MDRawDebug32>::AllocateObjectAndArray(unsigned int, unsigned int)
PUBLIC 3b418 0 google_breakpad::TypedMDRVA<MDRawDebug32>::get()
PUBLIC 3b430 0 google_breakpad::wasteful_vector<char>::wasteful_vector(google_breakpad::PageAllocator*, unsigned int)
PUBLIC 3b4e8 0 std::vector<char, google_breakpad::PageStdAllocator<char> >::resize(unsigned int)
PUBLIC 3b584 0 std::vector<char, google_breakpad::PageStdAllocator<char> >::operator[](unsigned int)
PUBLIC 3b5a8 0 google_breakpad::TypedMDRVA<MDRawDebug32>::CopyIndexAfterObject(unsigned int, void const*, unsigned int)
PUBLIC 3b658 0 google_breakpad::wasteful_vector<char>::~wasteful_vector()
PUBLIC 3b690 0 google_breakpad::TypedMDRVA<MDRawDebug32>::~TypedMDRVA()
PUBLIC 3b6d0 0 google_breakpad::minidump_size<MDRawLinkMap32>::size()
PUBLIC 3b6d8 0 google_breakpad::TypedMDRVA<MDRawLinkMap32>::Flush()
PUBLIC 3b730 0 google_breakpad::minidump_size<MDRawDebug32>::size()
PUBLIC 3b738 0 google_breakpad::PageStdAllocator<char>::PageStdAllocator(google_breakpad::PageAllocator&)
PUBLIC 3b788 0 std::vector<char, google_breakpad::PageStdAllocator<char> >::vector(google_breakpad::PageStdAllocator<char> const&)
PUBLIC 3b7cc 0 google_breakpad::PageStdAllocator<char>::~PageStdAllocator()
PUBLIC 3b804 0 std::vector<char, google_breakpad::PageStdAllocator<char> >::reserve(unsigned int)
PUBLIC 3b940 0 std::_Vector_base<char, google_breakpad::PageStdAllocator<char> >::_Vector_base(google_breakpad::PageStdAllocator<char> const&)
PUBLIC 3b978 0 std::_Vector_base<char, google_breakpad::PageStdAllocator<char> >::_Vector_impl::_Vector_impl(google_breakpad::PageStdAllocator<char> const&)
PUBLIC 3b9cc 0 google_breakpad::PageStdAllocator<char>::PageStdAllocator(google_breakpad::PageStdAllocator<char> const&)
PUBLIC 3ba2c 0 std::vector<char, google_breakpad::PageStdAllocator<char> >::max_size() const
PUBLIC 3ba50 0 std::vector<char, google_breakpad::PageStdAllocator<char> >::capacity() const
PUBLIC 3ba70 0 std::vector<char, google_breakpad::PageStdAllocator<char> >::size() const
PUBLIC 3ba90 0 char* std::vector<char, google_breakpad::PageStdAllocator<char> >::_M_allocate_and_copy<std::move_iterator<char*> >(unsigned int, std::move_iterator<char*>, std::move_iterator<char*>)
PUBLIC 3bb48 0 std::move_iterator<char*> std::__make_move_if_noexcept_iterator<char*, std::move_iterator<char*> >(char*)
PUBLIC 3bbbc 0 void std::_Destroy<char*, google_breakpad::PageStdAllocator<char> >(char*, char*, google_breakpad::PageStdAllocator<char>&)
PUBLIC 3bc24 0 std::_Vector_base<char, google_breakpad::PageStdAllocator<char> >::_M_get_Tp_allocator()
PUBLIC 3bc38 0 std::_Vector_base<char, google_breakpad::PageStdAllocator<char> >::_M_deallocate(char*, unsigned int)
PUBLIC 3bc80 0 std::allocator_traits<google_breakpad::PageStdAllocator<char> >::max_size(google_breakpad::PageStdAllocator<char> const&)
PUBLIC 3bca4 0 std::_Vector_base<char, google_breakpad::PageStdAllocator<char> >::_M_get_Tp_allocator() const
PUBLIC 3bcb8 0 unsigned int std::allocator_traits<google_breakpad::PageStdAllocator<char> >::_S_max_size<google_breakpad::PageStdAllocator<char> const, void>(google_breakpad::PageStdAllocator<char> const&, int)
PUBLIC 3bcdc 0 __gnu_cxx::new_allocator<char>::max_size() const
PUBLIC 3bcf4 0 std::_Vector_base<char, google_breakpad::PageStdAllocator<char> >::_M_allocate(unsigned int)
PUBLIC 3bd48 0 char* std::__uninitialized_copy_a<std::move_iterator<char*>, char*, google_breakpad::PageStdAllocator<char> >(std::move_iterator<char*>, std::move_iterator<char*>, char*, google_breakpad::PageStdAllocator<char>&)
PUBLIC 3be20 0 std::allocator_traits<google_breakpad::PageStdAllocator<char> >::allocate(google_breakpad::PageStdAllocator<char>&, unsigned int)
PUBLIC 3be4c 0 google_breakpad::PageStdAllocator<char>::allocate(unsigned int, void const*)
PUBLIC 3bec4 0 bool std::operator!=<char*>(std::move_iterator<char*> const&, std::move_iterator<char*> const&)
PUBLIC 3bef8 0 _ZNSt16allocator_traitsIN15google_breakpad16PageStdAllocatorIcEEE9constructIcJcEEEDTcl12_S_constructfp_fp0_spclsr3stdE7forwardIT0_Efp1_EEERS2_PT_DpOS5_
PUBLIC 3bf4c 0 char* std::__addressof<char>(char&)
PUBLIC 3bf60 0 std::move_iterator<char*>::operator*() const
PUBLIC 3bf84 0 std::move_iterator<char*>::operator++()
PUBLIC 3bfa4 0 bool std::operator==<char*>(std::move_iterator<char*> const&, std::move_iterator<char*> const&)
PUBLIC 3bfec 0 std::move_iterator<char*>::base() const
PUBLIC 3c004 0 _ZNSt16allocator_traitsIN15google_breakpad16PageStdAllocatorIcEEE12_S_constructIcJcEEENSt9enable_ifIXsr6__and_INS3_18__construct_helperIT_JDpT0_EE4typeEEE5valueEvE4typeERS2_PS7_DpOS8_
PUBLIC 3c058 0 char&& std::forward<char>(std::remove_reference<char>::type&)
PUBLIC 3c06c 0 void __gnu_cxx::new_allocator<char>::construct<char, char>(char*, char&&)
PUBLIC 3c0ac 0 std::remove_reference<char&>::type&& std::move<char&>(char&)
PUBLIC 3c0c0 0 std::move_iterator<char*>::move_iterator(char*)
PUBLIC 3c0e0 0 void std::allocator_traits<google_breakpad::PageStdAllocator<char> >::destroy<char>(google_breakpad::PageStdAllocator<char>&, char*)
PUBLIC 3c108 0 _ZNSt16allocator_traitsIN15google_breakpad16PageStdAllocatorIcEEE10_S_destroyIcEENSt9enable_ifIXsr6__and_INS3_16__destroy_helperIT_E4typeEEE5valueEvE4typeERS2_PS7_
PUBLIC 3c130 0 void __gnu_cxx::new_allocator<char>::destroy<char>(char*)
PUBLIC 3c144 0 std::allocator_traits<google_breakpad::PageStdAllocator<char> >::deallocate(google_breakpad::PageStdAllocator<char>&, char*, unsigned int)
PUBLIC 3c174 0 google_breakpad::PageStdAllocator<char>::deallocate(char*, unsigned int)
PUBLIC 3c18c 0 std::vector<char, google_breakpad::PageStdAllocator<char> >::_M_default_append(unsigned int)
PUBLIC 3c37c 0 std::vector<char, google_breakpad::PageStdAllocator<char> >::_M_erase_at_end(char*)
PUBLIC 3c3ec 0 void std::__uninitialized_default_n_a<char*, unsigned int, google_breakpad::PageStdAllocator<char> >(char*, unsigned int, google_breakpad::PageStdAllocator<char>&)
PUBLIC 3c468 0 std::vector<char, google_breakpad::PageStdAllocator<char> >::_M_check_len(unsigned int, char const*) const
PUBLIC 3c598 0 char* std::__uninitialized_move_if_noexcept_a<char*, char*, google_breakpad::PageStdAllocator<char> >(char*, char*, char*, google_breakpad::PageStdAllocator<char>&)
PUBLIC 3c5f0 0 _ZNSt16allocator_traitsIN15google_breakpad16PageStdAllocatorIcEEE9constructIcJEEEDTcl12_S_constructfp_fp0_spclsr3stdE7forwardIT0_Efp1_EEERS2_PT_DpOS5_
PUBLIC 3c618 0 _ZNSt16allocator_traitsIN15google_breakpad16PageStdAllocatorIcEEE12_S_constructIcJEEENSt9enable_ifIXsr6__and_INS3_18__construct_helperIT_JDpT0_EE4typeEEE5valueEvE4typeERS2_PS7_DpOS8_
PUBLIC 3c640 0 void __gnu_cxx::new_allocator<char>::construct<char>(char*)
PUBLIC 3c660 0 std::vector<char, google_breakpad::PageStdAllocator<char> >::~vector()
PUBLIC 3c6c8 0 std::_Vector_base<char, google_breakpad::PageStdAllocator<char> >::~_Vector_base()
PUBLIC 3c710 0 std::_Vector_base<char, google_breakpad::PageStdAllocator<char> >::_Vector_impl::~_Vector_impl()
PUBLIC 3c748 0 google_breakpad::TypedMDRVA<MDRawDebug32>::Flush()
PUBLIC 3c7a0 0 google_breakpad::TypedMDRVA<MDRawDirectory>::Flush()
PUBLIC 3c7f8 0 google_breakpad::wasteful_vector<MDMemoryDescriptor>::~wasteful_vector()
PUBLIC 3c830 0 std::vector<MDMemoryDescriptor, google_breakpad::PageStdAllocator<MDMemoryDescriptor> >::~vector()
PUBLIC 3c898 0 std::_Vector_base<MDMemoryDescriptor, google_breakpad::PageStdAllocator<MDMemoryDescriptor> >::~_Vector_base()
PUBLIC 3c910 0 std::_Vector_base<MDMemoryDescriptor, google_breakpad::PageStdAllocator<MDMemoryDescriptor> >::_Vector_impl::~_Vector_impl()
PUBLIC 3c948 0 google_breakpad::MinidumpFileWriter::MinidumpFileWriter()
PUBLIC 3c978 0 google_breakpad::MinidumpFileWriter::~MinidumpFileWriter()
PUBLIC 3c9b8 0 google_breakpad::MinidumpFileWriter::Close()
PUBLIC 3ca64 0 google_breakpad::MinidumpFileWriter::Open(char const*)
PUBLIC 3caf0 0 sys_open(char const*, int, int)
PUBLIC 3cb8c 0 google_breakpad::MinidumpFileWriter::SetFile(int)
PUBLIC 3cc08 0 (anonymous namespace)::CheckNeedsFTruncateWorkAround(int)
PUBLIC 3ccb4 0 (anonymous namespace)::NeedsFTruncateWorkAround()
PUBLIC 3cccc 0 sys_close(int)
PUBLIC 3cd48 0 google_breakpad::MinidumpFileWriter::CopyStringToMDString(wchar_t const*, unsigned int, google_breakpad::TypedMDRVA<MDString>*)
PUBLIC 3cea0 0 google_breakpad::TypedMDRVA<MDString>::CopyIndexAfterObject(unsigned int, void const*, unsigned int)
PUBLIC 3cf50 0 google_breakpad::MinidumpFileWriter::CopyStringToMDString(char const*, unsigned int, google_breakpad::TypedMDRVA<MDString>*)
PUBLIC 3d0b4 0 google_breakpad::MinidumpFileWriter::WriteString(wchar_t const*, unsigned int, MDLocationDescriptor*)
PUBLIC 3d0f0 0 bool google_breakpad::MinidumpFileWriter::WriteStringCore<wchar_t>(wchar_t const*, unsigned int, MDLocationDescriptor*)
PUBLIC 3d394 0 google_breakpad::MinidumpFileWriter::WriteString(char const*, unsigned int, MDLocationDescriptor*)
PUBLIC 3d3d0 0 bool google_breakpad::MinidumpFileWriter::WriteStringCore<char>(char const*, unsigned int, MDLocationDescriptor*)
PUBLIC 3d66c 0 google_breakpad::MinidumpFileWriter::WriteMemory(void const*, unsigned int, MDMemoryDescriptor*)
PUBLIC 3d828 0 google_breakpad::UntypedMDRVA::Allocate(unsigned int)
PUBLIC 3d8bc 0 google_breakpad::UntypedMDRVA::size() const
PUBLIC 3d8d4 0 google_breakpad::MinidumpFileWriter::Allocate(unsigned int)
PUBLIC 3da78 0 getpagesize()
PUBLIC 3da80 0 google_breakpad::MinidumpFileWriter::Copy(unsigned int, void const*, int)
PUBLIC 3dbfc 0 sys_lseek(int, long, int)
PUBLIC 3dc98 0 sys_write(int, void const*, unsigned int)
PUBLIC 3dd34 0 google_breakpad::UntypedMDRVA::Copy(unsigned int, void const*, unsigned int)
PUBLIC 3de4c 0 google_breakpad::minidump_size<MDString>::size()
PUBLIC 3de54 0 google_breakpad::TypedMDRVA<MDString>::TypedMDRVA(google_breakpad::MinidumpFileWriter*)
PUBLIC 3decc 0 google_breakpad::TypedMDRVA<MDString>::AllocateObjectAndArray(unsigned int, unsigned int)
PUBLIC 3df6c 0 google_breakpad::TypedMDRVA<MDString>::get()
PUBLIC 3df84 0 google_breakpad::TypedMDRVA<MDString>::~TypedMDRVA()
PUBLIC 3dfc4 0 google_breakpad::TypedMDRVA<MDString>::Flush()
PUBLIC 3e01c 0 breakpad_getcontext
PUBLIC 3e058 0 google_breakpad::UTF8ToUTF16(char const*, std::vector<unsigned short, std::allocator<unsigned short> >*)
PUBLIC 3e218 0 std::vector<unsigned short, std::allocator<unsigned short> >::clear()
PUBLIC 3e23c 0 std::vector<unsigned short, std::allocator<unsigned short> >::insert(__gnu_cxx::__normal_iterator<unsigned short const*, std::vector<unsigned short, std::allocator<unsigned short> > >, unsigned int, unsigned short const&)
PUBLIC 3e320 0 std::vector<unsigned short, std::allocator<unsigned short> >::begin()
PUBLIC 3e394 0 _ZN9__gnu_cxx17__normal_iteratorIPKtSt6vectorItSaItEEEC2IPtEERKNS0_IT_NS_11__enable_ifIXsr3std10__are_sameIS9_S8_EE7__valueES5_E6__typeEEE
PUBLIC 3e3d4 0 std::vector<unsigned short, std::allocator<unsigned short> >::operator[](unsigned int)
PUBLIC 3e404 0 std::vector<unsigned short, std::allocator<unsigned short> >::capacity() const
PUBLIC 3e440 0 std::vector<unsigned short, std::allocator<unsigned short> >::resize(unsigned int)
PUBLIC 3e4ec 0 google_breakpad::UTF8ToUTF16Char(char const*, int, unsigned short*)
PUBLIC 3e614 0 google_breakpad::UTF32ToUTF16(wchar_t const*, std::vector<unsigned short, std::allocator<unsigned short> >*)
PUBLIC 3e7d4 0 google_breakpad::UTF32ToUTF16Char(wchar_t, unsigned short*)
PUBLIC 3e8b0 0 google_breakpad::UTF16ToUTF8(std::vector<unsigned short, std::allocator<unsigned short> > const&, bool)
PUBLIC 3eb9c 0 std::vector<unsigned short, std::allocator<unsigned short> >::operator[](unsigned int) const
PUBLIC 3ebcc 0 google_breakpad::scoped_array<unsigned short>::scoped_array(unsigned short*)
PUBLIC 3ebec 0 google_breakpad::scoped_array<unsigned short>::reset(unsigned short*)
PUBLIC 3ec4c 0 std::vector<unsigned short, std::allocator<unsigned short> >::size() const
PUBLIC 3ec88 0 google_breakpad::scoped_array<unsigned short>::get() const
PUBLIC 3eca0 0 std::vector<unsigned short, std::allocator<unsigned short> >::begin() const
PUBLIC 3ed1c 0 bool __gnu_cxx::operator!=<unsigned short const*, std::vector<unsigned short, std::allocator<unsigned short> > >(__gnu_cxx::__normal_iterator<unsigned short const*, std::vector<unsigned short, std::allocator<unsigned short> > > const&, __gnu_cxx::__normal_iterator<unsigned short const*, std::vector<unsigned short, std::allocator<unsigned short> > > const&)
PUBLIC 3ed6c 0 std::vector<unsigned short, std::allocator<unsigned short> >::end() const
PUBLIC 3ede8 0 google_breakpad::Swap(unsigned short)
PUBLIC 3ee1c 0 __gnu_cxx::__normal_iterator<unsigned short const*, std::vector<unsigned short, std::allocator<unsigned short> > >::operator*() const
PUBLIC 3ee34 0 __gnu_cxx::__normal_iterator<unsigned short const*, std::vector<unsigned short, std::allocator<unsigned short> > >::operator++()
PUBLIC 3ee54 0 google_breakpad::scoped_array<unsigned char>::scoped_array(unsigned char*)
PUBLIC 3ee74 0 google_breakpad::scoped_array<unsigned char>::get() const
PUBLIC 3ee8c 0 google_breakpad::scoped_array<unsigned char>::~scoped_array()
PUBLIC 3eecc 0 google_breakpad::scoped_array<unsigned short>::~scoped_array()
PUBLIC 3ef0c 0 std::vector<unsigned short, std::allocator<unsigned short> >::_M_erase_at_end(unsigned short*)
PUBLIC 3ef7c 0 void std::_Destroy<unsigned short*, unsigned short>(unsigned short*, unsigned short*, std::allocator<unsigned short>&)
PUBLIC 3efa8 0 std::_Vector_base<unsigned short, std::allocator<unsigned short> >::_M_get_Tp_allocator()
PUBLIC 3efbc 0 void std::_Destroy<unsigned short*>(unsigned short*, unsigned short*)
PUBLIC 3efe4 0 void std::_Destroy_aux<true>::__destroy<unsigned short*>(unsigned short*, unsigned short*)
PUBLIC 3eff8 0 __gnu_cxx::__normal_iterator<unsigned short*, std::vector<unsigned short, std::allocator<unsigned short> > >::__normal_iterator(unsigned short* const&)
PUBLIC 3f01c 0 __gnu_cxx::__normal_iterator<unsigned short const*, std::vector<unsigned short, std::allocator<unsigned short> > >::difference_type __gnu_cxx::operator-<unsigned short const*, std::vector<unsigned short, std::allocator<unsigned short> > >(__gnu_cxx::__normal_iterator<unsigned short const*, std::vector<unsigned short, std::allocator<unsigned short> > > const&, __gnu_cxx::__normal_iterator<unsigned short const*, std::vector<unsigned short, std::allocator<unsigned short> > > const&)
PUBLIC 3f074 0 std::vector<unsigned short, std::allocator<unsigned short> >::cbegin() const
PUBLIC 3f0f0 0 std::vector<unsigned short, std::allocator<unsigned short> >::_M_fill_insert(__gnu_cxx::__normal_iterator<unsigned short*, std::vector<unsigned short, std::allocator<unsigned short> > >, unsigned int, unsigned short const&)
PUBLIC 3f570 0 __gnu_cxx::__normal_iterator<unsigned short*, std::vector<unsigned short, std::allocator<unsigned short> > >::operator+(int) const
PUBLIC 3f604 0 __gnu_cxx::__normal_iterator<unsigned short const*, std::vector<unsigned short, std::allocator<unsigned short> > >::base() const
PUBLIC 3f618 0 __gnu_cxx::__normal_iterator<unsigned short const*, std::vector<unsigned short, std::allocator<unsigned short> > >::__normal_iterator(unsigned short const* const&)
PUBLIC 3f63c 0 __gnu_cxx::__normal_iterator<unsigned short*, std::vector<unsigned short, std::allocator<unsigned short> > >::difference_type __gnu_cxx::operator-<unsigned short*, std::vector<unsigned short, std::allocator<unsigned short> > >(__gnu_cxx::__normal_iterator<unsigned short*, std::vector<unsigned short, std::allocator<unsigned short> > > const&, __gnu_cxx::__normal_iterator<unsigned short*, std::vector<unsigned short, std::allocator<unsigned short> > > const&)
PUBLIC 3f694 0 std::vector<unsigned short, std::allocator<unsigned short> >::end()
PUBLIC 3f70c 0 unsigned short* std::__uninitialized_move_a<unsigned short*, unsigned short*, std::allocator<unsigned short> >(unsigned short*, unsigned short*, unsigned short*, std::allocator<unsigned short>&)
PUBLIC 3f764 0 unsigned short* std::move_backward<unsigned short*, unsigned short*>(unsigned short*, unsigned short*, unsigned short*)
PUBLIC 3f7b4 0 __gnu_cxx::__normal_iterator<unsigned short*, std::vector<unsigned short, std::allocator<unsigned short> > >::base() const
PUBLIC 3f7c8 0 void std::fill<unsigned short*, unsigned short>(unsigned short*, unsigned short*, unsigned short const&)
PUBLIC 3f818 0 void std::__uninitialized_fill_n_a<unsigned short*, unsigned int, unsigned short, unsigned short>(unsigned short*, unsigned int, unsigned short const&, std::allocator<unsigned short>&)
PUBLIC 3f84c 0 std::vector<unsigned short, std::allocator<unsigned short> >::_M_check_len(unsigned int, char const*) const
PUBLIC 3f97c 0 std::_Vector_base<unsigned short, std::allocator<unsigned short> >::_M_allocate(unsigned int)
PUBLIC 3f9d0 0 unsigned short* std::__uninitialized_move_if_noexcept_a<unsigned short*, unsigned short*, std::allocator<unsigned short> >(unsigned short*, unsigned short*, unsigned short*, std::allocator<unsigned short>&)
PUBLIC 3fa28 0 std::_Vector_base<unsigned short, std::allocator<unsigned short> >::_M_deallocate(unsigned short*, unsigned int)
PUBLIC 3fa70 0 unsigned short* std::__uninitialized_copy_a<std::move_iterator<unsigned short*>, unsigned short*, unsigned short>(std::move_iterator<unsigned short*>, std::move_iterator<unsigned short*>, unsigned short*, std::allocator<unsigned short>&)
PUBLIC 3faf8 0 std::move_iterator<unsigned short*> std::make_move_iterator<unsigned short*>(unsigned short*)
PUBLIC 3fb6c 0 unsigned short* std::uninitialized_copy<std::move_iterator<unsigned short*>, unsigned short*>(std::move_iterator<unsigned short*>, std::move_iterator<unsigned short*>, unsigned short*)
PUBLIC 3fbf8 0 unsigned short* std::__uninitialized_copy<true>::__uninit_copy<std::move_iterator<unsigned short*>, unsigned short*>(std::move_iterator<unsigned short*>, std::move_iterator<unsigned short*>, unsigned short*)
PUBLIC 3fc7c 0 unsigned short* std::copy<std::move_iterator<unsigned short*>, unsigned short*>(std::move_iterator<unsigned short*>, std::move_iterator<unsigned short*>, unsigned short*)
PUBLIC 3fd10 0 unsigned short* std::__copy_move_a2<true, unsigned short*, unsigned short*>(unsigned short*, unsigned short*, unsigned short*)
PUBLIC 3fd70 0 std::_Miter_base<std::move_iterator<unsigned short*> >::iterator_type std::__miter_base<std::move_iterator<unsigned short*> >(std::move_iterator<unsigned short*>)
PUBLIC 3fdcc 0 unsigned short* std::__copy_move_a<true, unsigned short*, unsigned short*>(unsigned short*, unsigned short*, unsigned short*)
PUBLIC 3fe04 0 std::_Niter_base<unsigned short*>::iterator_type std::__niter_base<unsigned short*>(unsigned short*)
PUBLIC 3fe24 0 unsigned short* std::__copy_move<true, true, std::random_access_iterator_tag>::__copy_m<unsigned short>(unsigned short const*, unsigned short const*, unsigned short*)
PUBLIC 3feb4 0 std::_Iter_base<unsigned short*, false>::_S_base(unsigned short*)
PUBLIC 3fec8 0 std::_Iter_base<std::move_iterator<unsigned short*>, true>::_S_base(std::move_iterator<unsigned short*>)
PUBLIC 3ff28 0 std::move_iterator<unsigned short*>::base() const
PUBLIC 3ff40 0 std::move_iterator<unsigned short*>::move_iterator(unsigned short*)
PUBLIC 3ff60 0 unsigned short* std::__copy_move_backward_a2<true, unsigned short*, unsigned short*>(unsigned short*, unsigned short*, unsigned short*)
PUBLIC 3ffc0 0 std::_Miter_base<unsigned short*>::iterator_type std::__miter_base<unsigned short*>(unsigned short*)
PUBLIC 3ffe0 0 unsigned short* std::__copy_move_backward_a<true, unsigned short*, unsigned short*>(unsigned short*, unsigned short*, unsigned short*)
PUBLIC 40018 0 unsigned short* std::__copy_move_backward<true, true, std::random_access_iterator_tag>::__copy_move_b<unsigned short>(unsigned short const*, unsigned short const*, unsigned short*)
PUBLIC 400b0 0 _ZSt8__fill_aIPttEN9__gnu_cxx11__enable_ifIXsr11__is_scalarIT0_EE7__valueEvE6__typeET_S6_RKS3_
PUBLIC 40100 0 void std::uninitialized_fill_n<unsigned short*, unsigned int, unsigned short>(unsigned short*, unsigned int, unsigned short const&)
PUBLIC 40138 0 void std::__uninitialized_fill_n<true>::__uninit_fill_n<unsigned short*, unsigned int, unsigned short>(unsigned short*, unsigned int, unsigned short const&)
PUBLIC 4016c 0 unsigned short* std::fill_n<unsigned short*, unsigned int, unsigned short>(unsigned short*, unsigned int, unsigned short const&)
PUBLIC 401a0 0 _ZSt10__fill_n_aIPtjtEN9__gnu_cxx11__enable_ifIXsr11__is_scalarIT1_EE7__valueET_E6__typeES4_T0_RKS3_
PUBLIC 40208 0 std::vector<unsigned short, std::allocator<unsigned short> >::max_size() const
PUBLIC 4022c 0 std::allocator_traits<std::allocator<unsigned short> >::max_size(std::allocator<unsigned short> const&)
PUBLIC 40250 0 std::_Vector_base<unsigned short, std::allocator<unsigned short> >::_M_get_Tp_allocator() const
PUBLIC 40264 0 unsigned int std::allocator_traits<std::allocator<unsigned short> >::_S_max_size<std::allocator<unsigned short> const, void>(std::allocator<unsigned short> const&, int)
PUBLIC 40288 0 __gnu_cxx::new_allocator<unsigned short>::max_size() const
PUBLIC 402a4 0 std::allocator_traits<std::allocator<unsigned short> >::allocate(std::allocator<unsigned short>&, unsigned int)
PUBLIC 402d0 0 __gnu_cxx::new_allocator<unsigned short>::allocate(unsigned int, void const*)
PUBLIC 40328 0 std::move_iterator<unsigned short*> std::__make_move_if_noexcept_iterator<unsigned short*, std::move_iterator<unsigned short*> >(unsigned short*)
PUBLIC 4039c 0 std::allocator_traits<std::allocator<unsigned short> >::deallocate(std::allocator<unsigned short>&, unsigned short*, unsigned int)
PUBLIC 403cc 0 __gnu_cxx::new_allocator<unsigned short>::deallocate(unsigned short*, unsigned int)
PUBLIC 403f4 0 std::vector<unsigned short, std::allocator<unsigned short> >::_M_default_append(unsigned int)
PUBLIC 405fc 0 void std::__uninitialized_default_n_a<unsigned short*, unsigned int, unsigned short>(unsigned short*, unsigned int, std::allocator<unsigned short>&)
PUBLIC 40628 0 void std::__uninitialized_default_n<unsigned short*, unsigned int>(unsigned short*, unsigned int)
PUBLIC 40658 0 void std::__uninitialized_default_n_1<true>::__uninit_default_n<unsigned short*, unsigned int>(unsigned short*, unsigned int)
PUBLIC 406c4 0 google_breakpad::IsValidElf(void const*)
PUBLIC 40704 0 google_breakpad::ElfClass(void const*)
PUBLIC 40724 0 google_breakpad::FindElfSection(void const*, char const*, unsigned int, void const**, unsigned int*, int*)
PUBLIC 4092c 0 void google_breakpad::(anonymous namespace)::FindElfClassSection<google_breakpad::ElfClass32>(char const*, char const*, google_breakpad::ElfClass32::Word, void const**, unsigned int*)
PUBLIC 40b7c 0 void google_breakpad::(anonymous namespace)::FindElfClassSection<google_breakpad::ElfClass64>(char const*, char const*, google_breakpad::ElfClass64::Word, void const**, unsigned int*)
PUBLIC 40dd8 0 google_breakpad::FindElfSegment(void const*, unsigned int, void const**, unsigned int*, int*)
PUBLIC 40fc8 0 void google_breakpad::(anonymous namespace)::FindElfClassSegment<google_breakpad::ElfClass32>(char const*, google_breakpad::ElfClass32::Word, void const**, unsigned int*)
PUBLIC 411f0 0 void google_breakpad::(anonymous namespace)::FindElfClassSegment<google_breakpad::ElfClass64>(char const*, google_breakpad::ElfClass64::Word, void const**, unsigned int*)
PUBLIC 41418 0 Elf32_Shdr const* google_breakpad::GetOffset<google_breakpad::ElfClass32, Elf32_Shdr>(google_breakpad::ElfClass32::Ehdr const*, google_breakpad::ElfClass32::Off)
PUBLIC 41438 0 char const* google_breakpad::GetOffset<google_breakpad::ElfClass32, char>(google_breakpad::ElfClass32::Ehdr const*, google_breakpad::ElfClass32::Off)
PUBLIC 41458 0 google_breakpad::ElfClass32::Shdr const* google_breakpad::FindElfSectionByName<google_breakpad::ElfClass32>(char const*, google_breakpad::ElfClass32::Word, google_breakpad::ElfClass32::Shdr const*, char const*, char const*, int)
PUBLIC 41634 0 Elf64_Shdr const* google_breakpad::GetOffset<google_breakpad::ElfClass64, Elf64_Shdr>(google_breakpad::ElfClass64::Ehdr const*, google_breakpad::ElfClass64::Off)
PUBLIC 41654 0 char const* google_breakpad::GetOffset<google_breakpad::ElfClass64, char>(google_breakpad::ElfClass64::Ehdr const*, google_breakpad::ElfClass64::Off)
PUBLIC 41674 0 google_breakpad::ElfClass64::Shdr const* google_breakpad::FindElfSectionByName<google_breakpad::ElfClass64>(char const*, google_breakpad::ElfClass64::Word, google_breakpad::ElfClass64::Shdr const*, char const*, char const*, int)
PUBLIC 41848 0 Elf32_Phdr const* google_breakpad::GetOffset<google_breakpad::ElfClass32, Elf32_Phdr>(google_breakpad::ElfClass32::Ehdr const*, google_breakpad::ElfClass32::Off)
PUBLIC 41868 0 Elf64_Phdr const* google_breakpad::GetOffset<google_breakpad::ElfClass64, Elf64_Phdr>(google_breakpad::ElfClass64::Ehdr const*, google_breakpad::ElfClass64::Off)
PUBLIC 41888 0 google_breakpad::FileID::FileID(char const*)
PUBLIC 41924 0 google_breakpad::FileID::ElfFileIdentifierFromMappedFile(void const*, google_breakpad::wasteful_vector<unsigned char>&)
PUBLIC 41980 0 google_breakpad::FindElfBuildIDNote(void const*, google_breakpad::wasteful_vector<unsigned char>&)
PUBLIC 41ad8 0 google_breakpad::HashElfTextSection(void const*, google_breakpad::wasteful_vector<unsigned char>&)
PUBLIC 41c7c 0 google_breakpad::FileID::ElfFileIdentifier(google_breakpad::wasteful_vector<unsigned char>&)
PUBLIC 41d5c 0 google_breakpad::FileID::ConvertIdentifierToUUIDString(google_breakpad::wasteful_vector<unsigned char> const&)
PUBLIC 41ea0 0 std::vector<unsigned char, google_breakpad::PageStdAllocator<unsigned char> >::operator[](unsigned int) const
PUBLIC 41ec4 0 google_breakpad::bytes_to_hex_string(unsigned char const*, unsigned int)
PUBLIC 41fb8 0 google_breakpad::FileID::ConvertIdentifierToString(google_breakpad::wasteful_vector<unsigned char> const&)
PUBLIC 42010 0 bool google_breakpad::ElfClassBuildIDNoteIdentifier<google_breakpad::ElfClass32>(void const*, unsigned int, google_breakpad::wasteful_vector<unsigned char>&)
PUBLIC 4218c 0 bool google_breakpad::ElfClassBuildIDNoteIdentifier<google_breakpad::ElfClass64>(void const*, unsigned int, google_breakpad::wasteful_vector<unsigned char>&)
PUBLIC 42308 0 sys_mmap(void*, unsigned int, int, int, int, long long)
PUBLIC 423c8 0 sys__mmap2(void*, unsigned int, int, int, int, long)
PUBLIC 4249c 0 std::vector<unsigned char, google_breakpad::PageStdAllocator<unsigned char> >::resize(unsigned int)
PUBLIC 42538 0 std::vector<unsigned char, google_breakpad::PageStdAllocator<unsigned char> >::_M_default_append(unsigned int)
PUBLIC 42728 0 std::vector<unsigned char, google_breakpad::PageStdAllocator<unsigned char> >::_M_erase_at_end(unsigned char*)
PUBLIC 42798 0 void std::__uninitialized_default_n_a<unsigned char*, unsigned int, google_breakpad::PageStdAllocator<unsigned char> >(unsigned char*, unsigned int, google_breakpad::PageStdAllocator<unsigned char>&)
PUBLIC 42814 0 _ZNSt16allocator_traitsIN15google_breakpad16PageStdAllocatorIhEEE9constructIhJEEEDTcl12_S_constructfp_fp0_spclsr3stdE7forwardIT0_Efp1_EEERS2_PT_DpOS5_
PUBLIC 4283c 0 _ZNSt16allocator_traitsIN15google_breakpad16PageStdAllocatorIhEEE12_S_constructIhJEEENSt9enable_ifIXsr6__and_INS3_18__construct_helperIT_JDpT0_EE4typeEEE5valueEvE4typeERS2_PS7_DpOS8_
PUBLIC 42864 0 void __gnu_cxx::new_allocator<unsigned char>::construct<unsigned char>(unsigned char*)
PUBLIC 42884 0 CreateGUID(MDGUID*)
PUBLIC 428a8 0 GUIDGenerator::CreateGUID(MDGUID*)
PUBLIC 4293c 0 GUIDToString(MDGUID const*, char*, int)
PUBLIC 42a80 0 GUIDGenerator::BytesToUInt32(unsigned char const*)
PUBLIC 42ae0 0 GUIDGenerator::InitOnce()
PUBLIC 42b14 0 random()
PUBLIC 42b24 0 GUIDGenerator::UInt32ToBytes(unsigned char*, unsigned int)
PUBLIC 42b9c 0 GUIDGenerator::InitOnceImpl()
PUBLIC 42bb4 0 srandom(unsigned int)
PUBLIC 42bd4 0 my_strlen
PUBLIC 42c18 0 my_strcmp
PUBLIC 42cb8 0 my_strncmp
PUBLIC 42d88 0 my_strtoui
PUBLIC 42e8c 0 my_uint_len
PUBLIC 42f1c 0 my_uitos
PUBLIC 42fb8 0 my_strchr
PUBLIC 43048 0 my_strrchr
PUBLIC 430a4 0 my_memchr
PUBLIC 43124 0 my_read_hex_ptr
PUBLIC 43268 0 my_read_decimal_ptr
PUBLIC 432f8 0 my_memset
PUBLIC 43348 0 my_strlcpy
PUBLIC 433f8 0 my_strlcat
PUBLIC 434d4 0 my_isspace
PUBLIC 43548 0 google_breakpad::MemoryMappedFile::MemoryMappedFile()
PUBLIC 43578 0 google_breakpad::MemoryRange::MemoryRange()
PUBLIC 43598 0 google_breakpad::MemoryMappedFile::MemoryMappedFile(char const*, unsigned int)
PUBLIC 435e8 0 google_breakpad::MemoryMappedFile::Map(char const*, unsigned int)
PUBLIC 437bc 0 google_breakpad::MemoryMappedFile::~MemoryMappedFile()
PUBLIC 437e4 0 google_breakpad::MemoryMappedFile::Unmap()
PUBLIC 4385c 0 sys_open(char const*, int, int)
PUBLIC 438f8 0 sys_fstat64(int, kernel_stat64*)
PUBLIC 43984 0 sys_close(int)
PUBLIC 43a00 0 sys_mmap(void*, unsigned int, int, int, int, long long)
PUBLIC 43ac0 0 google_breakpad::MemoryRange::Set(void const*, unsigned int)
PUBLIC 43b1c 0 sys_munmap(void*, unsigned int)
PUBLIC 43ba8 0 sys__mmap2(void*, unsigned int, int, int, int, long)
PUBLIC 43c7c 0 google_breakpad::SafeReadLink(char const*, char*, unsigned int)
PUBLIC 43d04 0 sys_readlink(char const*, char*, unsigned int)
PUBLIC 43da0 0 google_breakpad::CrashGenerationClient::TryCreate(int)
PUBLIC 43df4 0 google_breakpad::(anonymous namespace)::CrashGenerationClientImpl::CrashGenerationClientImpl(int)
PUBLIC 43e4c 0 google_breakpad::CrashGenerationClient::CrashGenerationClient()
PUBLIC 43e74 0 google_breakpad::(anonymous namespace)::CrashGenerationClientImpl::~CrashGenerationClientImpl()
PUBLIC 43eac 0 google_breakpad::(anonymous namespace)::CrashGenerationClientImpl::~CrashGenerationClientImpl()
PUBLIC 43ee0 0 google_breakpad::(anonymous namespace)::CrashGenerationClientImpl::RequestDump(void const*, unsigned int)
PUBLIC 44174 0 google_breakpad::CrashGenerationClient::~CrashGenerationClient()
PUBLIC 44188 0 google_breakpad::CrashGenerationClient::~CrashGenerationClient()
PUBLIC 441bc 0 sys_pipe(int*)
PUBLIC 44238 0 sys_sendmsg(int, kernel_msghdr const*, int)
PUBLIC 442d4 0 sys_close(int)
PUBLIC 44350 0 sys_read(int, void*, unsigned int)
PUBLIC 443ec 0 google_breakpad::ThreadInfo::GetInstructionPointer() const
PUBLIC 44404 0 google_breakpad::ThreadInfo::FillCPUContext(MDRawContextARM*) const
PUBLIC 44488 0 google_breakpad::ThreadInfo::GetGeneralPurposeRegisters(void**, unsigned int*)
PUBLIC 4453c 0 google_breakpad::ThreadInfo::GetFloatingPointRegisters(void**, unsigned int*)
PUBLIC 445f0 0 google_breakpad::UContextReader::GetStackPointer(ucontext const*)
PUBLIC 44608 0 google_breakpad::UContextReader::GetInstructionPointer(ucontext const*)
PUBLIC 44620 0 google_breakpad::UContextReader::FillCPUContext(MDRawContextARM*, ucontext const*)
PUBLIC 447b0 0 ConvertUTF32toUTF16
PUBLIC 449a4 0 ConvertUTF16toUTF32
PUBLIC 44b98 0 ConvertUTF16toUTF8
PUBLIC 44f5c 0 isLegalUTF8Sequence
PUBLIC 44fd4 0 isLegalUTF8
PUBLIC 45228 0 ConvertUTF8toUTF16
PUBLIC 45654 0 ConvertUTF32toUTF8
PUBLIC 45948 0 ConvertUTF8toUTF32
PUBLIC 45ca5 0 operator delete(void*)
PUBLIC 45ca9 0 operator delete[](void*)
PUBLIC 45cad 0 __cxa_guard_acquire
PUBLIC 45dd1 0 __cxa_guard_abort
PUBLIC 45e25 0 __cxa_guard_release
PUBLIC 45e79 0 __gnu_cxx::recursive_init_error::~recursive_init_error()
PUBLIC 45e95 0 __gnu_cxx::recursive_init_error::~recursive_init_error()
PUBLIC 45ea9 0 operator new(unsigned int)
PUBLIC 45efd 0 operator new[](unsigned int)
PUBLIC 45f11 0 __cxa_pure_virtual
PUBLIC 45f29 0 __cxa_deleted_virtual
PUBLIC 45f41 0 __cxxabiv1::__si_class_type_info::~__si_class_type_info()
PUBLIC 45f5d 0 __cxxabiv1::__si_class_type_info::~__si_class_type_info()
PUBLIC 45f71 0 __cxxabiv1::__si_class_type_info::__do_find_public_src(int, void const*, __cxxabiv1::__class_type_info const*, void const*) const
PUBLIC 45fad 0 __cxxabiv1::__si_class_type_info::__do_dyncast(int, __cxxabiv1::__class_type_info::__sub_kind, __cxxabiv1::__class_type_info const*, void const*, __cxxabiv1::__class_type_info const*, void const*, __cxxabiv1::__class_type_info::__dyncast_result&) const
PUBLIC 4603d 0 __cxxabiv1::__si_class_type_info::__do_upcast(__cxxabiv1::__class_type_info const*, void const*, __cxxabiv1::__class_type_info::__upcast_result&) const
PUBLIC 46069 0 std::type_info::~type_info()
PUBLIC 4606d 0 std::type_info::__is_pointer_p() const
PUBLIC 46071 0 std::type_info::__is_function_p() const
PUBLIC 46075 0 std::type_info::__do_upcast(__cxxabiv1::__class_type_info const*, void**) const
PUBLIC 46079 0 std::type_info::~type_info()
PUBLIC 46085 0 std::type_info::__do_catch(std::type_info const*, void**, unsigned int) const
PUBLIC 460b1 0 std::type_info::operator==(std::type_info const&) const
PUBLIC 460dd 0 std::allocator<char>::allocator()
PUBLIC 460e1 0 std::allocator<char>::allocator(std::allocator<char> const&)
PUBLIC 460e5 0 std::allocator<char>::~allocator()
PUBLIC 460e9 0 std::allocator<wchar_t>::allocator()
PUBLIC 460ed 0 std::allocator<wchar_t>::allocator(std::allocator<wchar_t> const&)
PUBLIC 460f1 0 std::allocator<wchar_t>::~allocator()
PUBLIC 460f5 0 std::__detail::_List_node_base::swap(std::__detail::_List_node_base&, std::__detail::_List_node_base&)
PUBLIC 46145 0 std::__detail::_List_node_base::_M_transfer(std::__detail::_List_node_base*, std::__detail::_List_node_base*)
PUBLIC 46165 0 std::__detail::_List_node_base::_M_reverse()
PUBLIC 46179 0 std::__detail::_List_node_base::_M_hook(std::__detail::_List_node_base*)
PUBLIC 46189 0 std::__detail::_List_node_base::_M_unhook()
PUBLIC 46195 0 std::string::_Rep::_M_dispose(std::allocator<char> const&) [clone .part.0]
PUBLIC 461dd 0 std::__throw_bad_exception()
PUBLIC 4620d 0 std::__throw_bad_alloc()
PUBLIC 4623d 0 std::__throw_bad_cast()
PUBLIC 4626d 0 std::__throw_bad_typeid()
PUBLIC 4629d 0 std::__throw_logic_error(char const*)
PUBLIC 4631d 0 std::__throw_domain_error(char const*)
PUBLIC 4639d 0 std::__throw_invalid_argument(char const*)
PUBLIC 4641d 0 std::__throw_length_error(char const*)
PUBLIC 4649d 0 std::__throw_out_of_range(char const*)
PUBLIC 4651d 0 std::__throw_out_of_range_fmt(char const*, ...)
PUBLIC 465c5 0 std::__throw_runtime_error(char const*)
PUBLIC 46645 0 std::__throw_range_error(char const*)
PUBLIC 466c5 0 std::__throw_overflow_error(char const*)
PUBLIC 46745 0 std::__throw_underflow_error(char const*)
PUBLIC 467c5 0 std::__throw_ios_failure(char const*)
PUBLIC 4682d 0 std::__throw_system_error(int)
PUBLIC 468c5 0 std::__throw_future_error(int)
PUBLIC 46961 0 std::__throw_bad_function_call()
PUBLIC 46991 0 std::__throw_regex_error(std::regex_constants::error_type)
PUBLIC 469c9 0 std::bad_function_call::what() const
PUBLIC 469d5 0 std::bad_function_call::~bad_function_call()
PUBLIC 469ed 0 std::bad_function_call::~bad_function_call()
PUBLIC 46a0d 0 (anonymous namespace)::future_error_category::name() const
PUBLIC 46a19 0 (anonymous namespace)::future_error_category::~future_error_category()
PUBLIC 46a31 0 (anonymous namespace)::future_error_category::~future_error_category()
PUBLIC 46a51 0 std::future_error::~future_error()
PUBLIC 46a69 0 std::future_error::~future_error()
PUBLIC 46a89 0 (anonymous namespace)::future_error_category::message(int) const
PUBLIC 46b5d 0 std::future_error::what() const
PUBLIC 46bc9 0 std::future_category()
PUBLIC 46c15 0 std::__future_base::_Result_base::_Result_base()
PUBLIC 46c31 0 std::__future_base::_Result_base::~_Result_base()
PUBLIC 46c4d 0 std::__future_base::_Result_base::~_Result_base()
PUBLIC 46c6d 0 std::regex_error::~regex_error()
PUBLIC 46c85 0 std::regex_error::~regex_error()
PUBLIC 46ca5 0 std::regex_error::regex_error(std::regex_constants::error_type)
PUBLIC 46d79 0 __gnu_cxx::__throw_insufficient_space(char const*, char const*)
PUBLIC 46dc9 0 __gnu_cxx::__concat_size_t(char*, unsigned int, unsigned int)
PUBLIC 46e45 0 __gnu_cxx::__snprintf_lite(char*, unsigned int, char const*, std::__va_list)
PUBLIC 46ecd 0 std::string::_Rep::_M_dispose(std::allocator<char> const&) [clone .part.12]
PUBLIC 46f15 0 std::string::_M_data() const
PUBLIC 46f19 0 std::string::_M_data(char*)
PUBLIC 46f21 0 std::string::_M_rep() const
PUBLIC 46f29 0 std::string::_M_ibegin() const
PUBLIC 46f2d 0 std::string::_M_iend() const
PUBLIC 46f39 0 std::string::_M_check(unsigned int, char const*) const
PUBLIC 46f5d 0 std::string::_M_check_length(unsigned int, unsigned int, char const*) const
PUBLIC 46f7d 0 std::string::_M_limit(unsigned int, unsigned int) const
PUBLIC 46f8d 0 std::string::_M_disjunct(char const*) const
PUBLIC 46fa9 0 std::string::_M_copy(char*, char const*, unsigned int)
PUBLIC 46fbd 0 std::string::_M_move(char*, char const*, unsigned int)
PUBLIC 46fd1 0 std::string::_M_assign(char*, unsigned int, char)
PUBLIC 46fe5 0 std::string::_S_copy_chars(char*, __gnu_cxx::__normal_iterator<char*, std::string>, __gnu_cxx::__normal_iterator<char*, std::string>)
PUBLIC 46ffd 0 std::string::_S_copy_chars(char*, __gnu_cxx::__normal_iterator<char const*, std::string>, __gnu_cxx::__normal_iterator<char const*, std::string>)
PUBLIC 47015 0 std::string::_S_copy_chars(char*, char*, char*)
PUBLIC 4702d 0 std::string::_S_copy_chars(char*, char const*, char const*)
PUBLIC 47045 0 std::string::_S_compare(unsigned int, unsigned int)
PUBLIC 47049 0 std::string::_S_empty_rep()
PUBLIC 47055 0 std::basic_string<char, std::char_traits<char>, std::allocator<char> >::basic_string()
PUBLIC 47065 0 std::basic_string<char, std::char_traits<char>, std::allocator<char> >::basic_string(std::allocator<char> const&)
PUBLIC 47075 0 std::basic_string<char, std::char_traits<char>, std::allocator<char> >::basic_string(unsigned int, char, std::allocator<char> const&)
PUBLIC 47121 0 std::basic_string<char, std::char_traits<char>, std::allocator<char> >::basic_string(std::string&&)
PUBLIC 47135 0 std::basic_string<char, std::char_traits<char>, std::allocator<char> >::~basic_string()
PUBLIC 4718d 0 std::string::operator=(std::string&&)
PUBLIC 471b9 0 std::string::begin() const
PUBLIC 471bd 0 std::string::end() const
PUBLIC 471c9 0 std::string::rbegin() const
PUBLIC 471d5 0 std::string::rend() const
PUBLIC 471dd 0 std::string::cbegin() const
PUBLIC 471e1 0 std::string::cend() const
PUBLIC 471ed 0 std::string::crbegin() const
PUBLIC 471f9 0 std::string::crend() const
PUBLIC 47201 0 std::string::size() const
PUBLIC 47209 0 std::string::length() const
PUBLIC 47211 0 std::string::max_size() const
PUBLIC 4721d 0 std::string::capacity() const
PUBLIC 47225 0 std::string::reserve(unsigned int)
PUBLIC 4732d 0 std::string::shrink_to_fit()
PUBLIC 47355 0 std::string::append(char const*, unsigned int) [clone .part.18]
PUBLIC 473fd 0 std::string::append(unsigned int, char) [clone .part.19]
PUBLIC 4747d 0 std::string::empty() const
PUBLIC 4748d 0 std::string::operator[](unsigned int) const
PUBLIC 47495 0 std::string::at(unsigned int) const
PUBLIC 474b1 0 std::string::front() const
PUBLIC 474b5 0 std::string::back() const
PUBLIC 474c1 0 std::string::operator+=(char const*)
PUBLIC 474dd 0 std::string::operator+=(char)
PUBLIC 4752d 0 std::string::operator+=(std::initializer_list<char>)
PUBLIC 47549 0 std::string::append(std::string const&)
PUBLIC 475b9 0 std::string::operator+=(std::string const&)
PUBLIC 475bd 0 std::string::append(std::string const&, unsigned int, unsigned int)
PUBLIC 47661 0 std::string::append(char const*, unsigned int)
PUBLIC 47671 0 std::string::append(char const*)
PUBLIC 4768d 0 std::string::append(unsigned int, char)
PUBLIC 4769d 0 std::string::append(std::initializer_list<char>)
PUBLIC 476b9 0 std::string::push_back(char)
PUBLIC 47709 0 std::string::assign(std::string&&)
PUBLIC 47735 0 std::string::_S_construct_aux_2(unsigned int, char, std::allocator<char> const&)
PUBLIC 477d5 0 std::string::_S_construct(unsigned int, char, std::allocator<char> const&)
PUBLIC 47875 0 std::string::copy(char*, unsigned int, unsigned int) const
PUBLIC 478c1 0 std::string::swap(std::string&)
PUBLIC 478ed 0 std::string::c_str() const
PUBLIC 478f1 0 std::string::data() const
PUBLIC 478f5 0 std::string::get_allocator() const
PUBLIC 478f9 0 std::string::find(char const*, unsigned int, unsigned int) const
PUBLIC 47961 0 std::string::find(std::string const&, unsigned int) const
PUBLIC 479cd 0 std::string::find(char const*, unsigned int) const
PUBLIC 47a3d 0 std::string::find(char, unsigned int) const
PUBLIC 47a61 0 std::string::rfind(std::string const&, unsigned int) const
PUBLIC 47aa1 0 std::string::rfind(char const*, unsigned int, unsigned int) const
PUBLIC 47add 0 std::string::rfind(char const*, unsigned int) const
PUBLIC 47b29 0 std::string::rfind(char, unsigned int) const
PUBLIC 47b5d 0 std::string::find_first_of(char const*, unsigned int, unsigned int) const
PUBLIC 47b99 0 std::string::find_first_of(std::string const&, unsigned int) const
PUBLIC 47ba5 0 std::string::find_first_of(char const*, unsigned int) const
PUBLIC 47bc5 0 std::string::find_first_of(char, unsigned int) const
PUBLIC 47be9 0 std::string::find_last_of(std::string const&, unsigned int) const
PUBLIC 47c2d 0 std::string::find_last_of(char const*, unsigned int, unsigned int) const
PUBLIC 47c71 0 std::string::find_last_of(char const*, unsigned int) const
PUBLIC 47cbd 0 std::string::find_last_of(char, unsigned int) const
PUBLIC 47cf1 0 std::string::find_first_not_of(std::string const&, unsigned int) const
PUBLIC 47d31 0 std::string::find_first_not_of(char const*, unsigned int, unsigned int) const
PUBLIC 47d6d 0 std::string::find_first_not_of(char const*, unsigned int) const
PUBLIC 47db1 0 std::string::find_first_not_of(char, unsigned int) const
PUBLIC 47ded 0 std::string::find_last_not_of(std::string const&, unsigned int) const
PUBLIC 47e2d 0 std::string::find_last_not_of(char const*, unsigned int, unsigned int) const
PUBLIC 47e69 0 std::string::find_last_not_of(char const*, unsigned int) const
PUBLIC 47ead 0 std::string::find_last_not_of(char, unsigned int) const
PUBLIC 47ee9 0 std::string::compare(std::string const&) const
PUBLIC 47f09 0 std::string::compare(unsigned int, unsigned int, std::string const&) const
PUBLIC 47f51 0 std::string::compare(unsigned int, unsigned int, std::string const&, unsigned int, unsigned int) const
PUBLIC 47fc5 0 std::string::compare(char const*) const
PUBLIC 47fed 0 std::string::compare(unsigned int, unsigned int, char const*) const
PUBLIC 48041 0 std::string::compare(unsigned int, unsigned int, char const*, unsigned int) const
PUBLIC 48085 0 std::string::_Alloc_hider::_Alloc_hider(char*, std::allocator<char> const&)
PUBLIC 48089 0 std::string::_Rep::_S_empty_rep()
PUBLIC 48095 0 std::string::_Rep::_M_is_leaked() const
PUBLIC 4809d 0 std::string::_Rep::_M_is_shared() const
PUBLIC 480a9 0 std::string::_Rep::_M_set_leaked()
PUBLIC 480b1 0 std::string::_Rep::_M_set_sharable()
PUBLIC 480b9 0 std::string::_Rep::_M_set_length_and_sharable(unsigned int)
PUBLIC 480d5 0 std::string::_Rep::_M_refdata()
PUBLIC 480d9 0 std::string::_Rep::_S_create(unsigned int, unsigned int, std::allocator<char> const&)
PUBLIC 48139 0 std::string::_M_mutate(unsigned int, unsigned int, unsigned int)
PUBLIC 48269 0 std::string::_M_leak_hard()
PUBLIC 4829d 0 std::string::_M_leak()
PUBLIC 482d5 0 std::string::clear()
PUBLIC 482e5 0 std::string::erase(unsigned int, unsigned int)
PUBLIC 4831d 0 std::string::erase(__gnu_cxx::__normal_iterator<char*, std::string>)
PUBLIC 4833d 0 std::string::erase(__gnu_cxx::__normal_iterator<char*, std::string>, __gnu_cxx::__normal_iterator<char*, std::string>)
PUBLIC 48365 0 std::string::_M_replace_aux(unsigned int, unsigned int, unsigned int, char)
PUBLIC 483b9 0 std::string::_M_replace_safe(unsigned int, unsigned int, char const*, unsigned int)
PUBLIC 483e9 0 std::string::assign(char const*, unsigned int)
PUBLIC 48491 0 std::string::operator=(std::initializer_list<char>)
PUBLIC 484ad 0 std::string::assign(std::string const&, unsigned int, unsigned int)
PUBLIC 484e5 0 std::string::assign(char const*)
PUBLIC 48501 0 std::string::operator=(char const*)
PUBLIC 4851d 0 std::string::assign(std::initializer_list<char>)
PUBLIC 48531 0 std::string::insert(unsigned int, char const*, unsigned int)
PUBLIC 48641 0 std::string::insert(__gnu_cxx::__normal_iterator<char*, std::string>, std::initializer_list<char>)
PUBLIC 48661 0 std::string::insert(unsigned int, std::string const&, unsigned int, unsigned int)
PUBLIC 4869d 0 std::string::insert(unsigned int, char const*)
PUBLIC 486bd 0 std::string::insert(unsigned int, std::string const&)
PUBLIC 486c9 0 std::string::pop_back()
PUBLIC 486f5 0 std::string::resize(unsigned int, char)
PUBLIC 48735 0 std::string::resize(unsigned int)
PUBLIC 4873d 0 std::string::front()
PUBLIC 48775 0 std::string::operator[](unsigned int)
PUBLIC 487b1 0 std::string::rend()
PUBLIC 487f1 0 std::string::begin()
PUBLIC 48829 0 std::string::end()
PUBLIC 48865 0 std::string::rbegin()
PUBLIC 488a9 0 std::string::back()
PUBLIC 488e9 0 std::string::at(unsigned int)
PUBLIC 48939 0 std::string::operator=(char)
PUBLIC 48955 0 std::string::insert(__gnu_cxx::__normal_iterator<char*, std::string>, char)
PUBLIC 48999 0 std::string::assign(unsigned int, char)
PUBLIC 489e1 0 std::string::insert(unsigned int, unsigned int, char)
PUBLIC 48a49 0 std::string::replace(__gnu_cxx::__normal_iterator<char*, std::string>, __gnu_cxx::__normal_iterator<char*, std::string>, unsigned int, char)
PUBLIC 48aa1 0 std::string::replace(unsigned int, unsigned int, unsigned int, char)
PUBLIC 48b1d 0 std::string::insert(__gnu_cxx::__normal_iterator<char*, std::string>, unsigned int, char)
PUBLIC 48b79 0 std::string::_Rep::_M_grab(std::allocator<char> const&, std::allocator<char> const&)
PUBLIC 48c09 0 std::string::_Rep::_M_dispose(std::allocator<char> const&)
PUBLIC 48c59 0 std::string::_Rep::_M_destroy(std::allocator<char> const&)
PUBLIC 48c5d 0 std::string::_Rep::_M_refcopy()
PUBLIC 48c9d 0 std::string::_Rep::_M_clone(std::allocator<char> const&, unsigned int)
PUBLIC 48d4d 0 std::basic_string<char, std::char_traits<char>, std::allocator<char> >::basic_string(std::string const&)
PUBLIC 48db5 0 std::string::assign(std::string const&)
PUBLIC 48e6d 0 std::string::operator=(std::string const&)
PUBLIC 48f25 0 std::basic_string<char, std::char_traits<char>, std::allocator<char> > std::operator+<char, std::char_traits<char>, std::allocator<char> >(char const*, std::basic_string<char, std::char_traits<char>, std::allocator<char> > const&)
PUBLIC 48f81 0 std::basic_string<char, std::char_traits<char>, std::allocator<char> > std::operator+<char, std::char_traits<char>, std::allocator<char> >(char, std::basic_string<char, std::char_traits<char>, std::allocator<char> > const&)
PUBLIC 48fd1 0 std::basic_string<char, std::char_traits<char>, std::allocator<char> > std::operator+<char, std::char_traits<char>, std::allocator<char> >(std::basic_string<char, std::char_traits<char>, std::allocator<char> > const&, std::basic_string<char, std::char_traits<char>, std::allocator<char> > const&)
PUBLIC 49055 0 std::basic_string<char, std::char_traits<char>, std::allocator<char> >::basic_string<__gnu_cxx::__normal_iterator<char*, std::string> >(__gnu_cxx::__normal_iterator<char*, std::string>, __gnu_cxx::__normal_iterator<char*, std::string>, std::allocator<char> const&)
PUBLIC 49115 0 char* std::string::_S_construct<__gnu_cxx::__normal_iterator<char*, std::string> >(__gnu_cxx::__normal_iterator<char*, std::string>, __gnu_cxx::__normal_iterator<char*, std::string>, std::allocator<char> const&, std::forward_iterator_tag)
PUBLIC 491c9 0 char* std::string::_S_construct<char*>(char*, char*, std::allocator<char> const&, std::forward_iterator_tag)
PUBLIC 49299 0 std::basic_string<char, std::char_traits<char>, std::allocator<char> >::basic_string(std::string const&, unsigned int, unsigned int)
PUBLIC 492e1 0 std::string::substr(unsigned int, unsigned int) const
PUBLIC 4930d 0 std::basic_string<char, std::char_traits<char>, std::allocator<char> >::basic_string(std::string const&, unsigned int, unsigned int, std::allocator<char> const&)
PUBLIC 49351 0 std::basic_string<char, std::char_traits<char>, std::allocator<char> >::basic_string<char*>(char*, char*, std::allocator<char> const&)
PUBLIC 49369 0 char* std::string::_S_construct<char const*>(char const*, char const*, std::allocator<char> const&, std::forward_iterator_tag)
PUBLIC 49439 0 std::basic_string<char, std::char_traits<char>, std::allocator<char> >::basic_string(char const*, unsigned int, std::allocator<char> const&)
PUBLIC 49455 0 std::string::replace(unsigned int, unsigned int, char const*, unsigned int)
PUBLIC 495dd 0 std::string::replace(unsigned int, unsigned int, std::string const&)
PUBLIC 495f1 0 std::string::replace(unsigned int, unsigned int, std::string const&, unsigned int, unsigned int)
PUBLIC 4962d 0 std::string::replace(unsigned int, unsigned int, char const*)
PUBLIC 49651 0 std::string::replace(__gnu_cxx::__normal_iterator<char*, std::string>, __gnu_cxx::__normal_iterator<char*, std::string>, char const*, unsigned int)
PUBLIC 49661 0 std::string::replace(__gnu_cxx::__normal_iterator<char*, std::string>, __gnu_cxx::__normal_iterator<char*, std::string>, std::string const&)
PUBLIC 4967d 0 std::string::replace(__gnu_cxx::__normal_iterator<char*, std::string>, __gnu_cxx::__normal_iterator<char*, std::string>, char const*)
PUBLIC 496a5 0 std::string::replace(__gnu_cxx::__normal_iterator<char*, std::string>, __gnu_cxx::__normal_iterator<char*, std::string>, char*, char*)
PUBLIC 496b9 0 std::string::replace(__gnu_cxx::__normal_iterator<char*, std::string>, __gnu_cxx::__normal_iterator<char*, std::string>, char const*, char const*)
PUBLIC 496cd 0 std::string::replace(__gnu_cxx::__normal_iterator<char*, std::string>, __gnu_cxx::__normal_iterator<char*, std::string>, std::initializer_list<char>)
PUBLIC 496e5 0 std::string::replace(__gnu_cxx::__normal_iterator<char*, std::string>, __gnu_cxx::__normal_iterator<char*, std::string>, __gnu_cxx::__normal_iterator<char*, std::string>, __gnu_cxx::__normal_iterator<char*, std::string>)
PUBLIC 496f9 0 std::string::replace(__gnu_cxx::__normal_iterator<char*, std::string>, __gnu_cxx::__normal_iterator<char*, std::string>, __gnu_cxx::__normal_iterator<char const*, std::string>, __gnu_cxx::__normal_iterator<char const*, std::string>)
PUBLIC 4970d 0 std::basic_string<char, std::char_traits<char>, std::allocator<char> >::basic_string(char const*, std::allocator<char> const&)
PUBLIC 49735 0 std::basic_string<char, std::char_traits<char>, std::allocator<char> >::basic_string(std::initializer_list<char>, std::allocator<char> const&)
PUBLIC 49759 0 std::basic_string<char, std::char_traits<char>, std::allocator<char> >::basic_string<char const*>(char const*, char const*, std::allocator<char> const&)
PUBLIC 49771 0 bool __gnu_cxx::operator==<char*, std::string>(__gnu_cxx::__normal_iterator<char*, std::string> const&, __gnu_cxx::__normal_iterator<char*, std::string> const&)
PUBLIC 49781 0 bool __gnu_cxx::operator==<char const*, std::string>(__gnu_cxx::__normal_iterator<char const*, std::string> const&, __gnu_cxx::__normal_iterator<char const*, std::string> const&)
PUBLIC 49791 0 (anonymous namespace)::generic_error_category::name() const
PUBLIC 4979d 0 (anonymous namespace)::system_error_category::name() const
PUBLIC 497a9 0 std::error_category::default_error_condition(int) const
PUBLIC 497b1 0 std::error_category::equivalent(int, std::error_condition const&) const
PUBLIC 497e1 0 std::error_category::equivalent(std::error_code const&, int) const
PUBLIC 497f9 0 (anonymous namespace)::system_error_category::~system_error_category()
PUBLIC 497fd 0 (anonymous namespace)::generic_error_category::~generic_error_category()
PUBLIC 49801 0 (anonymous namespace)::system_error_category::~system_error_category()
PUBLIC 4980d 0 (anonymous namespace)::generic_error_category::~generic_error_category()
PUBLIC 49819 0 (anonymous namespace)::system_error_category::message(int) const
PUBLIC 49835 0 (anonymous namespace)::generic_error_category::message(int) const
PUBLIC 49851 0 std::system_error::~system_error()
PUBLIC 49869 0 std::system_error::~system_error()
PUBLIC 49889 0 std::error_category::~error_category()
PUBLIC 4988d 0 std::error_category::~error_category()
PUBLIC 49899 0 std::system_category()
PUBLIC 498a5 0 std::generic_category()
PUBLIC 498b1 0 std::error_code::default_error_condition() const
PUBLIC 498c5 0 __aeabi_atexit
PUBLIC 498d1 0 std::bad_alloc::what() const
PUBLIC 498dd 0 std::bad_alloc::~bad_alloc()
PUBLIC 498f9 0 std::bad_alloc::~bad_alloc()
PUBLIC 4990d 0 std::bad_cast::what() const
PUBLIC 49919 0 std::bad_cast::~bad_cast()
PUBLIC 49935 0 std::bad_cast::~bad_cast()
PUBLIC 49949 0 std::bad_typeid::what() const
PUBLIC 49955 0 std::bad_typeid::~bad_typeid()
PUBLIC 49971 0 std::bad_typeid::~bad_typeid()
PUBLIC 49985 0 __cxxabiv1::__class_type_info::__do_upcast(__cxxabiv1::__class_type_info const*, void**) const
PUBLIC 499b9 0 __cxxabiv1::__class_type_info::__do_find_public_src(int, void const*, __cxxabiv1::__class_type_info const*, void const*) const
PUBLIC 499c5 0 __cxxabiv1::__class_type_info::~__class_type_info()
PUBLIC 499e1 0 __cxxabiv1::__class_type_info::~__class_type_info()
PUBLIC 499f5 0 __cxxabiv1::__class_type_info::__do_upcast(__cxxabiv1::__class_type_info const*, void const*, __cxxabiv1::__class_type_info::__upcast_result&) const
PUBLIC 49a0d 0 __cxxabiv1::__class_type_info::__do_catch(std::type_info const*, void**, unsigned int) const
PUBLIC 49a39 0 __cxxabiv1::__class_type_info::__do_dyncast(int, __cxxabiv1::__class_type_info::__sub_kind, __cxxabiv1::__class_type_info const*, void const*, __cxxabiv1::__class_type_info const*, void const*, __cxxabiv1::__class_type_info::__dyncast_result&) const
PUBLIC 49a79 0 __gnu_cxx::__concurrence_lock_error::what() const
PUBLIC 49a85 0 __gnu_cxx::__concurrence_unlock_error::what() const
PUBLIC 49a91 0 __gnu_cxx::__concurrence_lock_error::~__concurrence_lock_error()
PUBLIC 49aa9 0 __gnu_cxx::__concurrence_unlock_error::~__concurrence_unlock_error()
PUBLIC 49ac1 0 __gnu_cxx::__concurrence_lock_error::~__concurrence_lock_error()
PUBLIC 49ae1 0 __gnu_cxx::__concurrence_unlock_error::~__concurrence_unlock_error()
PUBLIC 49b01 0 __gnu_cxx::__throw_concurrence_lock_error()
PUBLIC 49b29 0 __gnu_cxx::__throw_concurrence_unlock_error()
PUBLIC 49b51 0 __cxa_allocate_exception
PUBLIC 49bf9 0 __cxa_free_exception
PUBLIC 49c95 0 __cxa_allocate_dependent_exception
PUBLIC 49d35 0 __cxa_free_dependent_exception
PUBLIC 49dd5 0 __cxa_end_cleanup
PUBLIC 49de1 0 __cxa_type_match
PUBLIC 49e9d 0 __cxa_begin_cleanup
PUBLIC 49f01 0 __gnu_end_cleanup
PUBLIC 49f71 0 __cxxabiv1::__is_gxx_exception_class(char*)
PUBLIC 49fad 0 __cxa_call_terminate
PUBLIC 49fcd 0 __cxa_call_unexpected
PUBLIC 4a0cd 0 __cxa_get_exception_ptr
PUBLIC 4a0d1 0 __cxa_begin_catch
PUBLIC 4a161 0 __cxa_end_catch
PUBLIC 4a1ed 0 std::uncaught_exception()
PUBLIC 4a1fd 0 std::exception::~exception()
PUBLIC 4a201 0 std::bad_exception::~bad_exception()
PUBLIC 4a21d 0 std::exception::what() const
PUBLIC 4a229 0 std::bad_exception::what() const
PUBLIC 4a235 0 std::exception::~exception()
PUBLIC 4a249 0 std::bad_exception::~bad_exception()
PUBLIC 4a25d 0 __cxxabiv1::__forced_unwind::~__forced_unwind()
PUBLIC 4a261 0 __cxxabiv1::__forced_unwind::~__forced_unwind()
PUBLIC 4a275 0 __cxxabiv1::__foreign_exception::~__foreign_exception()
PUBLIC 4a279 0 __cxxabiv1::__foreign_exception::~__foreign_exception()
PUBLIC 4a28d 0 __eh_globals_init::~__eh_globals_init()
PUBLIC 4a2a5 0 eh_globals_dtor(void*)
PUBLIC 4a2c9 0 __cxa_get_globals_fast
PUBLIC 4a2f5 0 __cxa_get_globals
PUBLIC 4a351 0 read_sleb128(unsigned char const*, long*)
PUBLIC 4a381 0 read_encoded_value_with_base(unsigned char, unsigned int, unsigned char const*, unsigned int*)
PUBLIC 4a429 0 base_of_encoded_value(unsigned char, _Unwind_Context*)
PUBLIC 4a475 0 parse_lsda_header(_Unwind_Context*, unsigned char const*, lsda_header_info*)
PUBLIC 4a501 0 __gxx_personality_v0
PUBLIC 4a949 0 std::__exception_ptr::exception_ptr::_M_safe_bool_dummy()
PUBLIC 4a94d 0 __gxx_dependent_exception_cleanup(_Unwind_Reason_Code, _Unwind_Control_Block*)
PUBLIC 4a99d 0 std::__exception_ptr::exception_ptr::exception_ptr()
PUBLIC 4a9a5 0 std::__exception_ptr::exception_ptr::exception_ptr(void (std::__exception_ptr::exception_ptr::*)())
PUBLIC 4a9bd 0 std::__exception_ptr::exception_ptr::_M_addref()
PUBLIC 4a9dd 0 std::__exception_ptr::exception_ptr::exception_ptr(void*)
PUBLIC 4a9ed 0 std::__exception_ptr::exception_ptr::exception_ptr(std::__exception_ptr::exception_ptr const&)
PUBLIC 4a9fd 0 std::__exception_ptr::exception_ptr::_M_release()
PUBLIC 4aa39 0 std::__exception_ptr::exception_ptr::~exception_ptr()
PUBLIC 4aa45 0 std::__exception_ptr::exception_ptr::_M_get() const
PUBLIC 4aa49 0 std::__exception_ptr::exception_ptr::swap(std::__exception_ptr::exception_ptr&)
PUBLIC 4aa55 0 std::__exception_ptr::exception_ptr::operator=(std::__exception_ptr::exception_ptr const&)
PUBLIC 4aa79 0 std::__exception_ptr::exception_ptr::operator!() const
PUBLIC 4aa85 0 std::__exception_ptr::exception_ptr::operator void (std::__exception_ptr::exception_ptr::*)()() const
PUBLIC 4aaa1 0 std::__exception_ptr::exception_ptr::__cxa_exception_type() const
PUBLIC 4aaa9 0 std::__exception_ptr::operator==(std::__exception_ptr::exception_ptr const&, std::__exception_ptr::exception_ptr const&)
PUBLIC 4aab9 0 std::__exception_ptr::operator!=(std::__exception_ptr::exception_ptr const&, std::__exception_ptr::exception_ptr const&)
PUBLIC 4aac9 0 std::current_exception()
PUBLIC 4ab35 0 std::rethrow_exception(std::__exception_ptr::exception_ptr)
PUBLIC 4abb5 0 __cxxabiv1::__terminate(void (*)())
PUBLIC 4abdd 0 std::set_terminate(void (*)())
PUBLIC 4ac09 0 std::get_terminate()
PUBLIC 4ac25 0 std::terminate()
PUBLIC 4ac31 0 __cxxabiv1::__unexpected(void (*)())
PUBLIC 4ac3d 0 std::set_unexpected(void (*)())
PUBLIC 4ac69 0 std::get_unexpected()
PUBLIC 4ac85 0 std::unexpected()
PUBLIC 4ac91 0 __gxx_exception_cleanup(_Unwind_Reason_Code, _Unwind_Control_Block*)
PUBLIC 4acd9 0 __cxa_throw
PUBLIC 4ad59 0 __cxa_rethrow
PUBLIC 4adcd 0 std::set_new_handler(void (*)())
PUBLIC 4aded 0 std::get_new_handler()
PUBLIC 4adfd 0 std::ios_base::failure::what() const
PUBLIC 4ae01 0 std::ios_base::failure::~failure()
PUBLIC 4ae75 0 std::ios_base::failure::~failure()
PUBLIC 4aeed 0 std::ios_base::failure::failure(std::string const&)
PUBLIC 4af21 0 std::__num_base::_S_format_float(std::ios_base const&, char*, char)
PUBLIC 4af9d 0 std::__verify_grouping(char const*, unsigned int, std::string const&)
PUBLIC 4b02d 0 std::logic_error::what() const
PUBLIC 4b031 0 std::runtime_error::what() const
PUBLIC 4b035 0 std::logic_error::~logic_error()
PUBLIC 4b0a9 0 std::runtime_error::~runtime_error()
PUBLIC 4b11d 0 std::overflow_error::~overflow_error()
PUBLIC 4b191 0 std::underflow_error::~underflow_error()
PUBLIC 4b205 0 std::range_error::~range_error()
PUBLIC 4b279 0 std::invalid_argument::~invalid_argument()
PUBLIC 4b2ed 0 std::domain_error::~domain_error()
PUBLIC 4b361 0 std::length_error::~length_error()
PUBLIC 4b3d5 0 std::out_of_range::~out_of_range()
PUBLIC 4b449 0 std::runtime_error::~runtime_error()
PUBLIC 4b4c1 0 std::underflow_error::~underflow_error()
PUBLIC 4b539 0 std::range_error::~range_error()
PUBLIC 4b5b1 0 std::overflow_error::~overflow_error()
PUBLIC 4b629 0 std::logic_error::~logic_error()
PUBLIC 4b6a1 0 std::invalid_argument::~invalid_argument()
PUBLIC 4b719 0 std::out_of_range::~out_of_range()
PUBLIC 4b791 0 std::domain_error::~domain_error()
PUBLIC 4b809 0 std::length_error::~length_error()
PUBLIC 4b881 0 std::logic_error::logic_error(std::string const&)
PUBLIC 4b8a5 0 std::domain_error::domain_error(std::string const&)
PUBLIC 4b8d5 0 std::invalid_argument::invalid_argument(std::string const&)
PUBLIC 4b905 0 std::length_error::length_error(std::string const&)
PUBLIC 4b935 0 std::out_of_range::out_of_range(std::string const&)
PUBLIC 4b965 0 std::runtime_error::runtime_error(std::string const&)
PUBLIC 4b989 0 std::range_error::range_error(std::string const&)
PUBLIC 4b9b9 0 std::overflow_error::overflow_error(std::string const&)
PUBLIC 4b9e9 0 std::underflow_error::underflow_error(std::string const&)
PUBLIC 4ba19 0 __gnu_cxx::__verbose_terminate_handler()
PUBLIC 4bb45 0 d_make_comp
PUBLIC 4bb95 0 d_make_name
PUBLIC 4bbd1 0 d_cv_qualifiers
PUBLIC 4bcb1 0 d_substitution
PUBLIC 4be75 0 d_count_templates_scopes
PUBLIC 4bec9 0 d_append_char
PUBLIC 4bf11 0 d_number.isra.0
PUBLIC 4bf65 0 d_lookup_template_argument.isra.6
PUBLIC 4bfb1 0 d_find_pack
PUBLIC 4bff9 0 d_growable_string_callback_adapter
PUBLIC 4c081 0 d_append_string
PUBLIC 4c0fd 0 d_identifier
PUBLIC 4c1b1 0 d_source_name
PUBLIC 4c211 0 d_compact_number
PUBLIC 4c265 0 d_discriminator
PUBLIC 4c2cd 0 d_template_param
PUBLIC 4c355 0 d_call_offset
PUBLIC 4c3d5 0 d_template_args
PUBLIC 4d17d 0 d_exprlist
PUBLIC 4d629 0 d_type
PUBLIC 4e4bd 0 d_parmlist
PUBLIC 4e55d 0 d_operator_name
PUBLIC 4e679 0 d_unqualified_name
PUBLIC 4e9b9 0 d_name
PUBLIC 4ed5d 0 d_encoding
PUBLIC 4f1a9 0 d_expr_primary
PUBLIC 4f26d 0 d_expression_1
PUBLIC 4f67d 0 d_function_type
PUBLIC 4f71d 0 d_vector_type
PUBLIC 51209 0 d_print_comp
PUBLIC 543d1 0 d_print_mod
PUBLIC 54a65 0 d_print_mod_list
PUBLIC 54dc5 0 d_print_array_type.isra.10
PUBLIC 54fcd 0 d_print_function_type.isra.11
PUBLIC 55219 0 d_print_expr_op
PUBLIC 5529d 0 d_print_subexpr
PUBLIC 5535d 0 d_demangle_callback.constprop.16
PUBLIC 556b9 0 __cxa_demangle
PUBLIC 55789 0 __gcclibcxx_demangle_callback
PUBLIC 557ad 0 __cxa_current_exception_type
PUBLIC 557c8 0 __aeabi_uidiv
PUBLIC 55870 0 __aeabi_uidivmod
PUBLIC 55890 0 __aeabi_idiv
PUBLIC 5596c 0 __aeabi_idivmod
PUBLIC 5598c 0 __umodsi3
PUBLIC 55a38 0 __aeabi_uldivmod
PUBLIC 55a74 0 __aeabi_idiv0
PUBLIC 55a84 0 __gnu_ldivmod_helper
PUBLIC 55ac0 0 __gnu_uldivmod_helper
PUBLIC 55afc 0 selfrel_offset31
PUBLIC 55b14 0 search_EIT_table
PUBLIC 55bb8 0 __gnu_unwind_get_pr_addr
PUBLIC 55c08 0 get_eit_entry
PUBLIC 55d0c 0 restore_non_core_regs
PUBLIC 55d78 0 _Unwind_decode_typeinfo_ptr.isra.0
PUBLIC 55d8c 0 __gnu_unwind_24bit.isra.1
PUBLIC 55d94 0 _Unwind_DebugHook
PUBLIC 55d98 0 unwind_phase2
PUBLIC 55dfc 0 unwind_phase2_forced
PUBLIC 55f24 0 _Unwind_GetCFA
PUBLIC 55f2c 0 __gnu_Unwind_RaiseException
PUBLIC 55fd0 0 __gnu_Unwind_ForcedUnwind
PUBLIC 55fec 0 __gnu_Unwind_Resume
PUBLIC 56060 0 __gnu_Unwind_Resume_or_Rethrow
PUBLIC 56080 0 _Unwind_Complete
PUBLIC 56084 0 _Unwind_DeleteException
PUBLIC 5609c 0 _Unwind_VRS_Get
PUBLIC 560f8 0 _Unwind_GetGR
PUBLIC 56120 0 _Unwind_VRS_Set
PUBLIC 5617c 0 _Unwind_SetGR
PUBLIC 561a8 0 __gnu_Unwind_Backtrace
PUBLIC 56270 0 __gnu_unwind_pr_common
PUBLIC 56660 0 __aeabi_unwind_cpp_pr0
PUBLIC 56668 0 __aeabi_unwind_cpp_pr1
PUBLIC 56670 0 __aeabi_unwind_cpp_pr2
PUBLIC 56678 0 _Unwind_VRS_Pop
PUBLIC 569e4 0 restore_core_regs
PUBLIC 569f8 0 __gnu_Unwind_Restore_VFP
PUBLIC 56a00 0 __gnu_Unwind_Save_VFP
PUBLIC 56a08 0 __gnu_Unwind_Restore_VFP_D
PUBLIC 56a10 0 __gnu_Unwind_Save_VFP_D
PUBLIC 56a18 0 __gnu_Unwind_Restore_VFP_D_16_to_31
PUBLIC 56a20 0 __gnu_Unwind_Save_VFP_D_16_to_31
PUBLIC 56a28 0 __gnu_Unwind_Restore_WMMXD
PUBLIC 56a6c 0 __gnu_Unwind_Save_WMMXD
PUBLIC 56ab0 0 __gnu_Unwind_Restore_WMMXC
PUBLIC 56ac4 0 __gnu_Unwind_Save_WMMXC
PUBLIC 56ad8 0 _Unwind_RaiseException
PUBLIC 56afc 0 _Unwind_Resume
PUBLIC 56b20 0 _Unwind_Resume_or_Rethrow
PUBLIC 56b44 0 ___Unwind_ForcedUnwind
PUBLIC 56b68 0 ___Unwind_Backtrace
PUBLIC 56b8c 0 next_unwind_byte
PUBLIC 56bec 0 _Unwind_GetGR.constprop.0
PUBLIC 56c14 0 unwind_UCB_from_context
PUBLIC 56c18 0 __gnu_unwind_execute
PUBLIC 56fa0 0 __gnu_unwind_frame
PUBLIC 56fe0 0 _Unwind_GetRegionStart
PUBLIC 56ff0 0 _Unwind_GetLanguageSpecificData
PUBLIC 5700c 0 _Unwind_GetDataRelBase
PUBLIC 57014 0 _Unwind_GetTextRelBase
PUBLIC 5701c 0 __divdi3
PUBLIC 5719c 0 __udivdi3
PUBLIC 572a8 0 __aeabi_llsr
PUBLIC 572c4 0 __aeabi_llsl
STACK CFI INIT 21538 48 .cfa: sp 0 + .ra: lr
STACK CFI 2153a .cfa: sp 8 + .ra: .cfa -4 + ^ r7: .cfa -8 + ^
STACK CFI 2153c .cfa: r7 8 +
STACK CFI INIT 21580 e .cfa: sp 0 + .ra: lr
STACK CFI 21582 .cfa: sp 8 +
STACK CFI INIT 2158e e .cfa: sp 0 + .ra: lr
STACK CFI 21590 .cfa: sp 4 +
STACK CFI INIT 2159c 100 .cfa: sp 0 + .ra: lr
STACK CFI 2159e .cfa: sp 8 + .ra: .cfa -4 + ^ r7: .cfa -8 + ^
STACK CFI 215a0 .cfa: r7 8 +
STACK CFI INIT 2169c 90 .cfa: sp 0 + .ra: lr
STACK CFI 2169e .cfa: sp 8 + .ra: .cfa -4 + ^ r7: .cfa -8 + ^
STACK CFI 216a0 .cfa: r7 8 +
STACK CFI INIT 2172c 22 .cfa: sp 0 + .ra: lr
STACK CFI 2172e .cfa: sp 8 + .ra: .cfa -4 + ^ r7: .cfa -8 + ^
STACK CFI 21730 .cfa: r7 8 +
STACK CFI INIT 2174e 26 .cfa: sp 0 + .ra: lr
STACK CFI 21750 .cfa: sp 8 + .ra: .cfa -4 + ^ r7: .cfa -8 + ^
STACK CFI 21752 .cfa: r7 8 +
STACK CFI INIT 21774 1c .cfa: sp 0 + .ra: lr
STACK CFI 21776 .cfa: sp 8 +
STACK CFI INIT 21790 274 .cfa: sp 0 + .ra: lr
STACK CFI 21794 .cfa: sp 24 + .ra: .cfa -4 + ^ r10: .cfa -12 + ^ r11: .cfa -8 + ^ r4: .cfa -24 + ^ r5: .cfa -20 + ^ r6: .cfa -16 + ^
STACK CFI 21798 .cfa: r11 8 +
STACK CFI INIT 21a04 20 .cfa: sp 0 + .ra: lr
STACK CFI 21a08 .cfa: sp 8 +
STACK CFI INIT 21a24 38 .cfa: sp 0 + .ra: lr
STACK CFI 21a28 .cfa: sp 8 + .ra: .cfa -4 + ^ r11: .cfa -8 + ^
STACK CFI 21a2c .cfa: r11 8 +
STACK CFI INIT 21a5c 38 .cfa: sp 0 + .ra: lr
STACK CFI 21a60 .cfa: sp 8 + .ra: .cfa -4 + ^ r11: .cfa -8 + ^
STACK CFI 21a64 .cfa: r11 8 +
STACK CFI INIT 21a94 68 .cfa: sp 0 + .ra: lr
STACK CFI 21a98 .cfa: sp 8 + .ra: .cfa -4 + ^ r11: .cfa -8 + ^
STACK CFI 21a9c .cfa: r11 8 +
STACK CFI INIT 21afc 38 .cfa: sp 0 + .ra: lr
STACK CFI 21b00 .cfa: sp 8 + .ra: .cfa -4 + ^ r11: .cfa -8 + ^
STACK CFI 21b04 .cfa: r11 8 +
STACK CFI INIT 21b34 28 .cfa: sp 0 + .ra: lr
STACK CFI 21b38 .cfa: sp 4 +
STACK CFI INIT 21b5c 28 .cfa: sp 0 + .ra: lr
STACK CFI 21b60 .cfa: sp 4 +
STACK CFI INIT 21b84 38 .cfa: sp 0 + .ra: lr
STACK CFI 21b88 .cfa: sp 8 + .ra: .cfa -4 + ^ r11: .cfa -8 + ^
STACK CFI 21b8c .cfa: r11 8 +
STACK CFI INIT 21bbc 1f8 .cfa: sp 0 + .ra: lr
STACK CFI 21bc0 .cfa: sp 8 + .ra: .cfa -4 + ^ r11: .cfa -8 + ^
STACK CFI 21bc4 .cfa: r11 8 +
STACK CFI INIT 21db4 258 .cfa: sp 0 + .ra: lr
STACK CFI 21db8 .cfa: sp 8 + .ra: .cfa -4 + ^ r11: .cfa -8 + ^
STACK CFI 21dbc .cfa: r11 8 +
STACK CFI INIT 2200c 44 .cfa: sp 0 + .ra: lr
STACK CFI 22010 .cfa: sp 8 + .ra: .cfa -4 + ^ r11: .cfa -8 + ^
STACK CFI 22014 .cfa: r11 8 +
STACK CFI INIT 22050 1d0 .cfa: sp 0 + .ra: lr
STACK CFI 22054 .cfa: sp 8 + .ra: .cfa -4 + ^ r11: .cfa -8 + ^
STACK CFI 22058 .cfa: r11 8 +
STACK CFI INIT 22220 9c .cfa: sp 0 + .ra: lr
STACK CFI 22224 .cfa: sp 8 + .ra: .cfa -4 + ^ r11: .cfa -8 + ^
STACK CFI 22228 .cfa: r11 8 +
STACK CFI INIT 222bc 74 .cfa: sp 0 + .ra: lr
STACK CFI 222c0 .cfa: sp 8 + .ra: .cfa -4 + ^ r11: .cfa -8 + ^
STACK CFI 222c4 .cfa: r11 8 +
STACK CFI INIT 22330 78 .cfa: sp 0 + .ra: lr
STACK CFI 22334 .cfa: sp 8 + .ra: .cfa -4 + ^ r11: .cfa -8 + ^
STACK CFI 22338 .cfa: r11 8 +
STACK CFI INIT 223a8 b8 .cfa: sp 0 + .ra: lr
STACK CFI 223ac .cfa: sp 8 + .ra: .cfa -4 + ^ r11: .cfa -8 + ^
STACK CFI 223b0 .cfa: r11 8 +
STACK CFI INIT 22460 40 .cfa: sp 0 + .ra: lr
STACK CFI 22464 .cfa: sp 8 + .ra: .cfa -4 + ^ r11: .cfa -8 + ^
STACK CFI 22468 .cfa: r11 8 +
STACK CFI INIT 224a0 88 .cfa: sp 0 + .ra: lr
STACK CFI 224a4 .cfa: sp 8 + .ra: .cfa -4 + ^ r11: .cfa -8 + ^
STACK CFI 224a8 .cfa: r11 8 +
STACK CFI INIT 22528 68 .cfa: sp 0 + .ra: lr
STACK CFI 2252c .cfa: sp 8 + .ra: .cfa -4 + ^ r11: .cfa -8 + ^
STACK CFI 22530 .cfa: r11 8 +
STACK CFI INIT 22590 128 .cfa: sp 0 + .ra: lr
STACK CFI 22594 .cfa: sp 8 + .ra: .cfa -4 + ^ r11: .cfa -8 + ^
STACK CFI 22598 .cfa: r11 8 +
STACK CFI INIT 226b8 f8 .cfa: sp 0 + .ra: lr
STACK CFI 226bc .cfa: sp 8 + .ra: .cfa -4 + ^ r11: .cfa -8 + ^
STACK CFI 226c0 .cfa: r11 8 +
STACK CFI INIT 227b0 38 .cfa: sp 0 + .ra: lr
STACK CFI 227b4 .cfa: sp 8 + .ra: .cfa -4 + ^ r11: .cfa -8 + ^
STACK CFI 227b8 .cfa: r11 8 +
STACK CFI INIT 227e8 38 .cfa: sp 0 + .ra: lr
STACK CFI 227ec .cfa: sp 8 + .ra: .cfa -4 + ^ r11: .cfa -8 + ^
STACK CFI 227f0 .cfa: r11 8 +
STACK CFI INIT 0 4c .cfa: sp 0 + .ra: lr
STACK CFI 4 .cfa: sp 8 + .ra: .cfa -4 + ^ r11: .cfa -8 + ^
STACK CFI 8 .cfa: r11 8 +
STACK CFI INIT 22820 48 .cfa: sp 0 + .ra: lr
STACK CFI 22824 .cfa: sp 8 + .ra: .cfa -4 + ^ r11: .cfa -8 + ^
STACK CFI 22828 .cfa: r11 8 +
STACK CFI INIT 22868 40 .cfa: sp 0 + .ra: lr
STACK CFI 2286c .cfa: sp 8 + .ra: .cfa -4 + ^ r11: .cfa -8 + ^
STACK CFI 22870 .cfa: r11 8 +
STACK CFI INIT 228a8 6c .cfa: sp 0 + .ra: lr
STACK CFI 228ac .cfa: sp 16 +
STACK CFI INIT 22914 24c .cfa: sp 0 + .ra: lr
STACK CFI 22918 .cfa: sp 8 + .ra: .cfa -4 + ^ r11: .cfa -8 + ^
STACK CFI 2291c .cfa: r11 8 +
STACK CFI INIT 22b60 ac .cfa: sp 0 + .ra: lr
STACK CFI 22b64 .cfa: sp 8 + .ra: .cfa -4 + ^ r11: .cfa -8 + ^
STACK CFI 22b68 .cfa: r11 8 +
STACK CFI INIT 22c0c 3c .cfa: sp 0 + .ra: lr
STACK CFI 22c10 .cfa: sp 8 + .ra: .cfa -4 + ^ r11: .cfa -8 + ^
STACK CFI 22c14 .cfa: r11 8 +
STACK CFI INIT 22c48 30 .cfa: sp 0 + .ra: lr
STACK CFI 22c4c .cfa: sp 16 +
STACK CFI INIT 22c78 218 .cfa: sp 0 + .ra: lr
STACK CFI 22c7c .cfa: sp 16 + .ra: .cfa -4 + ^ r10: .cfa -12 + ^ r11: .cfa -8 + ^ r4: .cfa -16 + ^
STACK CFI 22c80 .cfa: r11 8 +
STACK CFI INIT 22e90 40 .cfa: sp 0 + .ra: lr
STACK CFI 22e94 .cfa: sp 8 + .ra: .cfa -4 + ^ r11: .cfa -8 + ^
STACK CFI 22e98 .cfa: r11 8 +
STACK CFI INIT 22ed0 64 .cfa: sp 0 + .ra: lr
STACK CFI 22ed4 .cfa: sp 8 + .ra: .cfa -4 + ^ r11: .cfa -8 + ^
STACK CFI 22ed8 .cfa: r11 8 +
STACK CFI INIT 22f34 130 .cfa: sp 0 + .ra: lr
STACK CFI 22f38 .cfa: sp 8 + .ra: .cfa -4 + ^ r11: .cfa -8 + ^
STACK CFI 22f3c .cfa: r11 8 +
STACK CFI INIT 23064 19c .cfa: sp 0 + .ra: lr
STACK CFI 23068 .cfa: sp 24 + .ra: .cfa -4 + ^ r11: .cfa -8 + ^ r4: .cfa -24 + ^ r5: .cfa -20 + ^ r6: .cfa -16 + ^ r7: .cfa -12 + ^
STACK CFI 2306c .cfa: r11 8 +
STACK CFI INIT 23200 c0 .cfa: sp 0 + .ra: lr
STACK CFI 23204 .cfa: sp 16 + .ra: .cfa -4 + ^ r10: .cfa -12 + ^ r11: .cfa -8 + ^ r4: .cfa -16 + ^
STACK CFI 23208 .cfa: r11 8 +
STACK CFI INIT 232c0 470 .cfa: sp 0 + .ra: lr
STACK CFI 232c4 .cfa: sp 8 + .ra: .cfa -4 + ^ r11: .cfa -8 + ^
STACK CFI 232c8 .cfa: r11 8 +
STACK CFI INIT 23730 cc .cfa: sp 0 + .ra: lr
STACK CFI 23734 .cfa: sp 16 + .ra: .cfa -4 + ^ r10: .cfa -12 + ^ r11: .cfa -8 + ^ r4: .cfa -16 + ^
STACK CFI 23738 .cfa: r11 8 +
STACK CFI INIT 237fc 68 .cfa: sp 0 + .ra: lr
STACK CFI 23800 .cfa: sp 8 + .ra: .cfa -4 + ^ r11: .cfa -8 + ^
STACK CFI 23804 .cfa: r11 8 +
STACK CFI INIT 23864 44 .cfa: sp 0 + .ra: lr
STACK CFI 23868 .cfa: sp 8 + .ra: .cfa -4 + ^ r11: .cfa -8 + ^
STACK CFI 2386c .cfa: r11 8 +
STACK CFI INIT 238a8 19c .cfa: sp 0 + .ra: lr
STACK CFI 238ac .cfa: sp 8 + .ra: .cfa -4 + ^ r11: .cfa -8 + ^
STACK CFI 238b0 .cfa: r11 8 +
STACK CFI INIT 23a44 7c .cfa: sp 0 + .ra: lr
STACK CFI 23a48 .cfa: sp 8 + .ra: .cfa -4 + ^ r11: .cfa -8 + ^
STACK CFI 23a4c .cfa: r11 8 +
STACK CFI INIT 23ac0 118 .cfa: sp 0 + .ra: lr
STACK CFI 23ac4 .cfa: sp 24 + .ra: .cfa -4 + ^ r10: .cfa -12 + ^ r11: .cfa -8 + ^ r4: .cfa -24 + ^ r5: .cfa -20 + ^ r7: .cfa -16 + ^
STACK CFI 23ac8 .cfa: r11 8 +
STACK CFI INIT 23bd8 7c .cfa: sp 0 + .ra: lr
STACK CFI 23bdc .cfa: sp 8 + .ra: .cfa -4 + ^ r11: .cfa -8 + ^
STACK CFI 23be0 .cfa: r11 8 +
STACK CFI INIT 23c54 104 .cfa: sp 0 + .ra: lr
STACK CFI 23c58 .cfa: sp 8 + .ra: .cfa -4 + ^ r11: .cfa -8 + ^
STACK CFI 23c5c .cfa: r11 8 +
STACK CFI INIT 23d58 34 .cfa: sp 0 + .ra: lr
STACK CFI 23d5c .cfa: sp 8 + .ra: .cfa -4 + ^ r11: .cfa -8 + ^
STACK CFI 23d60 .cfa: r11 8 +
STACK CFI INIT 23d8c 28 .cfa: sp 0 + .ra: lr
STACK CFI 23d90 .cfa: sp 8 + .ra: .cfa -4 + ^ r11: .cfa -8 + ^
STACK CFI 23d94 .cfa: r11 8 +
STACK CFI INIT 23db4 9c .cfa: sp 0 + .ra: lr
STACK CFI 23db8 .cfa: sp 8 + .ra: .cfa -4 + ^ r11: .cfa -8 + ^
STACK CFI 23dbc .cfa: r11 8 +
STACK CFI INIT 23e50 9c .cfa: sp 0 + .ra: lr
STACK CFI 23e54 .cfa: sp 8 + .ra: .cfa -4 + ^ r11: .cfa -8 + ^
STACK CFI 23e58 .cfa: r11 8 +
STACK CFI INIT 23eec 64 .cfa: sp 0 + .ra: lr
STACK CFI 23ef0 .cfa: sp 8 + .ra: .cfa -4 + ^ r11: .cfa -8 + ^
STACK CFI 23ef4 .cfa: r11 8 +
STACK CFI INIT 23f50 18 .cfa: sp 0 + .ra: lr
STACK CFI 23f54 .cfa: sp 4 +
STACK CFI INIT 23f68 18 .cfa: sp 0 + .ra: lr
STACK CFI 23f6c .cfa: sp 4 +
STACK CFI INIT 0 18 .cfa: sp 0 + .ra: lr
STACK CFI 4 .cfa: sp 4 +
STACK CFI INIT 23f80 e4 .cfa: sp 0 + .ra: lr
STACK CFI 23f84 .cfa: sp 16 + .ra: .cfa -4 + ^ r11: .cfa -8 + ^ r4: .cfa -16 + ^ r5: .cfa -12 + ^
STACK CFI 23f88 .cfa: r11 8 +
STACK CFI INIT 0 d0 .cfa: sp 0 + .ra: lr
STACK CFI 4 .cfa: sp 8 + .ra: .cfa -4 + ^ r11: .cfa -8 + ^
STACK CFI 8 .cfa: r11 8 +
STACK CFI INIT 24064 1b4 .cfa: sp 0 + .ra: lr
STACK CFI 24068 .cfa: sp 16 + .ra: .cfa -4 + ^ r11: .cfa -8 + ^ r4: .cfa -16 + ^ r5: .cfa -12 + ^
STACK CFI 2406c .cfa: r11 8 +
STACK CFI INIT 24218 10 .cfa: sp 0 + .ra: lr
STACK CFI 2421c .cfa: sp 4 +
STACK CFI INIT 24228 40 .cfa: sp 0 + .ra: lr
STACK CFI 2422c .cfa: sp 8 + .ra: .cfa -4 + ^ r11: .cfa -8 + ^
STACK CFI 24230 .cfa: r11 8 +
STACK CFI INIT 24268 178 .cfa: sp 0 + .ra: lr
STACK CFI 2426c .cfa: sp 24 + .ra: .cfa -4 + ^ r11: .cfa -8 + ^ r4: .cfa -24 + ^ r5: .cfa -20 + ^ r6: .cfa -16 + ^ r7: .cfa -12 + ^
STACK CFI 24270 .cfa: r11 8 +
STACK CFI INIT 243e0 44 .cfa: sp 0 + .ra: lr
STACK CFI 243e4 .cfa: sp 8 + .ra: .cfa -4 + ^ r11: .cfa -8 + ^
STACK CFI 243e8 .cfa: r11 8 +
STACK CFI INIT 24424 e8 .cfa: sp 0 + .ra: lr
STACK CFI 24428 .cfa: sp 8 + .ra: .cfa -4 + ^ r11: .cfa -8 + ^
STACK CFI 2442c .cfa: r11 8 +
STACK CFI INIT 2450c 9c .cfa: sp 0 + .ra: lr
STACK CFI 24510 .cfa: sp 8 + .ra: .cfa -4 + ^ r11: .cfa -8 + ^
STACK CFI 24514 .cfa: r11 8 +
STACK CFI INIT 245a8 78 .cfa: sp 0 + .ra: lr
STACK CFI 245ac .cfa: sp 8 + .ra: .cfa -4 + ^ r11: .cfa -8 + ^
STACK CFI 245b0 .cfa: r11 8 +
STACK CFI INIT 24620 74 .cfa: sp 0 + .ra: lr
STACK CFI 24624 .cfa: sp 8 + .ra: .cfa -4 + ^ r11: .cfa -8 + ^
STACK CFI 24628 .cfa: r11 8 +
STACK CFI INIT 24694 34 .cfa: sp 0 + .ra: lr
STACK CFI 24698 .cfa: sp 8 +
STACK CFI INIT 246c8 44 .cfa: sp 0 + .ra: lr
STACK CFI 246cc .cfa: sp 8 + .ra: .cfa -4 + ^ r11: .cfa -8 + ^
STACK CFI 246d0 .cfa: r11 8 +
STACK CFI INIT 2470c f0 .cfa: sp 0 + .ra: lr
STACK CFI 24710 .cfa: sp 8 + .ra: .cfa -4 + ^ r11: .cfa -8 + ^
STACK CFI 24714 .cfa: r11 8 +
STACK CFI INIT 247fc 94 .cfa: sp 0 + .ra: lr
STACK CFI 24800 .cfa: sp 8 + .ra: .cfa -4 + ^ r11: .cfa -8 + ^
STACK CFI 24804 .cfa: r11 8 +
STACK CFI INIT 24890 24 .cfa: sp 0 + .ra: lr
STACK CFI 24894 .cfa: sp 8 +
STACK CFI INIT 248b4 138 .cfa: sp 0 + .ra: lr
STACK CFI 248b8 .cfa: sp 16 + .ra: .cfa -4 + ^ r10: .cfa -12 + ^ r11: .cfa -8 + ^ r4: .cfa -16 + ^
STACK CFI 248bc .cfa: r11 8 +
STACK CFI INIT 249ec 18 .cfa: sp 0 + .ra: lr
STACK CFI 249f0 .cfa: sp 4 +
STACK CFI INIT 24a04 44 .cfa: sp 0 + .ra: lr
STACK CFI 24a08 .cfa: sp 12 +
STACK CFI INIT 24a48 8c .cfa: sp 0 + .ra: lr
STACK CFI 24a4c .cfa: sp 8 + .ra: .cfa -4 + ^ r11: .cfa -8 + ^
STACK CFI 24a50 .cfa: r11 8 +
STACK CFI INIT 24ad4 38 .cfa: sp 0 + .ra: lr
STACK CFI 24ad8 .cfa: sp 8 + .ra: .cfa -4 + ^ r11: .cfa -8 + ^
STACK CFI 24adc .cfa: r11 8 +
STACK CFI INIT 24b0c 6c .cfa: sp 0 + .ra: lr
STACK CFI 24b10 .cfa: sp 8 + .ra: .cfa -4 + ^ r11: .cfa -8 + ^
STACK CFI 24b14 .cfa: r11 8 +
STACK CFI INIT 24b78 38 .cfa: sp 0 + .ra: lr
STACK CFI 24b7c .cfa: sp 8 + .ra: .cfa -4 + ^ r11: .cfa -8 + ^
STACK CFI 24b80 .cfa: r11 8 +
STACK CFI INIT 24bb0 14 .cfa: sp 0 + .ra: lr
STACK CFI 24bb4 .cfa: sp 4 +
STACK CFI INIT 24bc4 14 .cfa: sp 0 + .ra: lr
STACK CFI 24bc8 .cfa: sp 8 +
STACK CFI INIT 24bd8 2c .cfa: sp 0 + .ra: lr
STACK CFI 24bdc .cfa: sp 8 + .ra: .cfa -4 + ^ r11: .cfa -8 + ^
STACK CFI 24be0 .cfa: r11 8 +
STACK CFI INIT 24c04 28 .cfa: sp 0 + .ra: lr
STACK CFI 24c08 .cfa: sp 8 + .ra: .cfa -4 + ^ r11: .cfa -8 + ^
STACK CFI 24c0c .cfa: r11 8 +
STACK CFI INIT 24c2c 38 .cfa: sp 0 + .ra: lr
STACK CFI 24c30 .cfa: sp 8 + .ra: .cfa -4 + ^ r11: .cfa -8 + ^
STACK CFI 24c34 .cfa: r11 8 +
STACK CFI INIT 24c64 14 .cfa: sp 0 + .ra: lr
STACK CFI 24c68 .cfa: sp 4 +
STACK CFI INIT 24c78 38 .cfa: sp 0 + .ra: lr
STACK CFI 24c7c .cfa: sp 8 + .ra: .cfa -4 + ^ r11: .cfa -8 + ^
STACK CFI 24c80 .cfa: r11 8 +
STACK CFI INIT 24cb0 6c .cfa: sp 0 + .ra: lr
STACK CFI 24cb4 .cfa: sp 8 + .ra: .cfa -4 + ^ r11: .cfa -8 + ^
STACK CFI 24cb8 .cfa: r11 8 +
STACK CFI INIT 24d1c 38 .cfa: sp 0 + .ra: lr
STACK CFI 24d20 .cfa: sp 8 + .ra: .cfa -4 + ^ r11: .cfa -8 + ^
STACK CFI 24d24 .cfa: r11 8 +
STACK CFI INIT 24d54 14 .cfa: sp 0 + .ra: lr
STACK CFI 24d58 .cfa: sp 4 +
STACK CFI INIT 24d68 14 .cfa: sp 0 + .ra: lr
STACK CFI 24d6c .cfa: sp 8 +
STACK CFI INIT 24d7c 2c .cfa: sp 0 + .ra: lr
STACK CFI 24d80 .cfa: sp 8 + .ra: .cfa -4 + ^ r11: .cfa -8 + ^
STACK CFI 24d84 .cfa: r11 8 +
STACK CFI INIT 24da8 28 .cfa: sp 0 + .ra: lr
STACK CFI 24dac .cfa: sp 8 + .ra: .cfa -4 + ^ r11: .cfa -8 + ^
STACK CFI 24db0 .cfa: r11 8 +
STACK CFI INIT 24dd0 38 .cfa: sp 0 + .ra: lr
STACK CFI 24dd4 .cfa: sp 8 + .ra: .cfa -4 + ^ r11: .cfa -8 + ^
STACK CFI 24dd8 .cfa: r11 8 +
STACK CFI INIT 24e08 14 .cfa: sp 0 + .ra: lr
STACK CFI 24e0c .cfa: sp 4 +
STACK CFI INIT 24e1c 40 .cfa: sp 0 + .ra: lr
STACK CFI 24e20 .cfa: sp 8 + .ra: .cfa -4 + ^ r11: .cfa -8 + ^
STACK CFI 24e24 .cfa: r11 8 +
STACK CFI INIT 24e5c ac .cfa: sp 0 + .ra: lr
STACK CFI 24e60 .cfa: sp 8 + .ra: .cfa -4 + ^ r11: .cfa -8 + ^
STACK CFI 24e64 .cfa: r11 8 +
STACK CFI INIT 24f08 8 .cfa: sp 0 + .ra: lr
STACK CFI INIT 24f10 e8 .cfa: sp 0 + .ra: lr
STACK CFI 24f14 .cfa: sp 24 + .ra: .cfa -4 + ^ r10: .cfa -12 + ^ r11: .cfa -8 + ^ r4: .cfa -24 + ^ r5: .cfa -20 + ^ r6: .cfa -16 + ^
STACK CFI 24f18 .cfa: r11 8 +
STACK CFI INIT 24ff8 c0 .cfa: sp 0 + .ra: lr
STACK CFI 24ffc .cfa: sp 16 + .ra: .cfa -4 + ^ r11: .cfa -8 + ^ r4: .cfa -16 + ^ r5: .cfa -12 + ^
STACK CFI 25000 .cfa: r11 8 +
STACK CFI INIT 250b8 d4 .cfa: sp 0 + .ra: lr
STACK CFI 250bc .cfa: sp 16 + .ra: .cfa -4 + ^ r11: .cfa -8 + ^ r4: .cfa -16 + ^ r5: .cfa -12 + ^
STACK CFI 250c0 .cfa: r11 8 +
STACK CFI INIT 2518c ac .cfa: sp 0 + .ra: lr
STACK CFI 25190 .cfa: sp 8 + .ra: .cfa -4 + ^ r11: .cfa -8 + ^
STACK CFI 25194 .cfa: r11 8 +
STACK CFI INIT 25238 70 .cfa: sp 0 + .ra: lr
STACK CFI 2523c .cfa: sp 8 + .ra: .cfa -4 + ^ r11: .cfa -8 + ^
STACK CFI 25240 .cfa: r11 8 +
STACK CFI INIT 252a8 8c .cfa: sp 0 + .ra: lr
STACK CFI 252ac .cfa: sp 8 + .ra: .cfa -4 + ^ r11: .cfa -8 + ^
STACK CFI 252b0 .cfa: r11 8 +
STACK CFI INIT 0 38 .cfa: sp 0 + .ra: lr
STACK CFI 4 .cfa: sp 4 +
STACK CFI INIT 25334 6c .cfa: sp 0 + .ra: lr
STACK CFI 25338 .cfa: sp 8 + .ra: .cfa -4 + ^ r11: .cfa -8 + ^
STACK CFI 2533c .cfa: r11 8 +
STACK CFI INIT 253a0 6c .cfa: sp 0 + .ra: lr
STACK CFI 253a4 .cfa: sp 8 + .ra: .cfa -4 + ^ r11: .cfa -8 + ^
STACK CFI 253a8 .cfa: r11 8 +
STACK CFI INIT 2540c 38 .cfa: sp 0 + .ra: lr
STACK CFI 25410 .cfa: sp 8 + .ra: .cfa -4 + ^ r11: .cfa -8 + ^
STACK CFI 25414 .cfa: r11 8 +
STACK CFI INIT 25444 4c .cfa: sp 0 + .ra: lr
STACK CFI 25448 .cfa: sp 8 + .ra: .cfa -4 + ^ r11: .cfa -8 + ^
STACK CFI 2544c .cfa: r11 8 +
STACK CFI INIT 25490 1c .cfa: sp 0 + .ra: lr
STACK CFI 25494 .cfa: sp 4 +
STACK CFI INIT 254ac 38 .cfa: sp 0 + .ra: lr
STACK CFI 254b0 .cfa: sp 8 + .ra: .cfa -4 + ^ r11: .cfa -8 + ^
STACK CFI 254b4 .cfa: r11 8 +
STACK CFI INIT 254e4 14 .cfa: sp 0 + .ra: lr
STACK CFI 254e8 .cfa: sp 4 +
STACK CFI INIT 254f8 38 .cfa: sp 0 + .ra: lr
STACK CFI 254fc .cfa: sp 8 + .ra: .cfa -4 + ^ r11: .cfa -8 + ^
STACK CFI 25500 .cfa: r11 8 +
STACK CFI INIT 25530 4c .cfa: sp 0 + .ra: lr
STACK CFI 25534 .cfa: sp 8 + .ra: .cfa -4 + ^ r11: .cfa -8 + ^
STACK CFI 25538 .cfa: r11 8 +
STACK CFI INIT 2557c 1c .cfa: sp 0 + .ra: lr
STACK CFI 25580 .cfa: sp 4 +
STACK CFI INIT 25598 38 .cfa: sp 0 + .ra: lr
STACK CFI 2559c .cfa: sp 8 + .ra: .cfa -4 + ^ r11: .cfa -8 + ^
STACK CFI 255a0 .cfa: r11 8 +
STACK CFI INIT 255d0 14 .cfa: sp 0 + .ra: lr
STACK CFI 255d4 .cfa: sp 4 +
STACK CFI INIT 255e4 30 .cfa: sp 0 + .ra: lr
STACK CFI 255e8 .cfa: sp 8 + .ra: .cfa -4 + ^ r11: .cfa -8 + ^
STACK CFI 255ec .cfa: r11 8 +
STACK CFI INIT 25614 48 .cfa: sp 0 + .ra: lr
STACK CFI 25618 .cfa: sp 8 + .ra: .cfa -4 + ^ r11: .cfa -8 + ^
STACK CFI 2561c .cfa: r11 8 +
STACK CFI INIT 2565c 38 .cfa: sp 0 + .ra: lr
STACK CFI 25660 .cfa: sp 8 + .ra: .cfa -4 + ^ r11: .cfa -8 + ^
STACK CFI 25664 .cfa: r11 8 +
STACK CFI INIT 25694 14 .cfa: sp 0 + .ra: lr
STACK CFI 25698 .cfa: sp 4 +
STACK CFI INIT 256a8 9c .cfa: sp 0 + .ra: lr
STACK CFI 256ac .cfa: sp 8 + .ra: .cfa -4 + ^ r11: .cfa -8 + ^
STACK CFI 256b0 .cfa: r11 8 +
STACK CFI INIT 25744 14 .cfa: sp 0 + .ra: lr
STACK CFI 25748 .cfa: sp 4 +
STACK CFI INIT 25758 54 .cfa: sp 0 + .ra: lr
STACK CFI 2575c .cfa: sp 8 + .ra: .cfa -4 + ^ r11: .cfa -8 + ^
STACK CFI 25760 .cfa: r11 8 +
STACK CFI INIT 257ac 14 .cfa: sp 0 + .ra: lr
STACK CFI 257b0 .cfa: sp 4 +
STACK CFI INIT 257c0 184 .cfa: sp 0 + .ra: lr
STACK CFI 257c4 .cfa: sp 8 + .ra: .cfa -4 + ^ r11: .cfa -8 + ^
STACK CFI 257c8 .cfa: r11 8 +
STACK CFI INIT 25944 54 .cfa: sp 0 + .ra: lr
STACK CFI 25948 .cfa: sp 8 + .ra: .cfa -4 + ^ r11: .cfa -8 + ^
STACK CFI 2594c .cfa: r11 8 +
STACK CFI INIT 25998 40 .cfa: sp 0 + .ra: lr
STACK CFI 2599c .cfa: sp 8 + .ra: .cfa -4 + ^ r11: .cfa -8 + ^
STACK CFI 259a0 .cfa: r11 8 +
STACK CFI INIT 259d8 130 .cfa: sp 0 + .ra: lr
STACK CFI 259dc .cfa: sp 8 + .ra: .cfa -4 + ^ r11: .cfa -8 + ^
STACK CFI 259e0 .cfa: r11 8 +
STACK CFI INIT 25b08 54 .cfa: sp 0 + .ra: lr
STACK CFI 25b0c .cfa: sp 8 + .ra: .cfa -4 + ^ r11: .cfa -8 + ^
STACK CFI 25b10 .cfa: r11 8 +
STACK CFI INIT 25b5c 58 .cfa: sp 0 + .ra: lr
STACK CFI 25b60 .cfa: sp 8 + .ra: .cfa -4 + ^ r11: .cfa -8 + ^
STACK CFI 25b64 .cfa: r11 8 +
STACK CFI INIT 25bb4 14 .cfa: sp 0 + .ra: lr
STACK CFI 25bb8 .cfa: sp 4 +
STACK CFI INIT 25bc8 2c .cfa: sp 0 + .ra: lr
STACK CFI 25bcc .cfa: sp 8 + .ra: .cfa -4 + ^ r11: .cfa -8 + ^
STACK CFI 25bd0 .cfa: r11 8 +
STACK CFI INIT 25bf4 48 .cfa: sp 0 + .ra: lr
STACK CFI 25bf8 .cfa: sp 8 + .ra: .cfa -4 + ^ r11: .cfa -8 + ^
STACK CFI 25bfc .cfa: r11 8 +
STACK CFI INIT 25c3c 24 .cfa: sp 0 + .ra: lr
STACK CFI 25c40 .cfa: sp 8 + .ra: .cfa -4 + ^ r11: .cfa -8 + ^
STACK CFI 25c44 .cfa: r11 8 +
STACK CFI INIT 25c60 44 .cfa: sp 0 + .ra: lr
STACK CFI 25c64 .cfa: sp 12 +
STACK CFI INIT 25ca4 24 .cfa: sp 0 + .ra: lr
STACK CFI 25ca8 .cfa: sp 8 + .ra: .cfa -4 + ^ r11: .cfa -8 + ^
STACK CFI 25cac .cfa: r11 8 +
STACK CFI INIT 25cc8 14 .cfa: sp 0 + .ra: lr
STACK CFI 25ccc .cfa: sp 4 +
STACK CFI INIT 25cdc 24 .cfa: sp 0 + .ra: lr
STACK CFI 25ce0 .cfa: sp 8 + .ra: .cfa -4 + ^ r11: .cfa -8 + ^
STACK CFI 25ce4 .cfa: r11 8 +
STACK CFI INIT 25d00 1c .cfa: sp 0 + .ra: lr
STACK CFI 25d04 .cfa: sp 4 +
STACK CFI INIT 25d1c 2c .cfa: sp 0 + .ra: lr
STACK CFI 25d20 .cfa: sp 8 + .ra: .cfa -4 + ^ r11: .cfa -8 + ^
STACK CFI 25d24 .cfa: r11 8 +
STACK CFI INIT 25d48 58 .cfa: sp 0 + .ra: lr
STACK CFI 25d4c .cfa: sp 8 + .ra: .cfa -4 + ^ r11: .cfa -8 + ^
STACK CFI 25d50 .cfa: r11 8 +
STACK CFI INIT 25da0 88 .cfa: sp 0 + .ra: lr
STACK CFI 25da4 .cfa: sp 8 + .ra: .cfa -4 + ^ r11: .cfa -8 + ^
STACK CFI 25da8 .cfa: r11 8 +
STACK CFI INIT 25e28 74 .cfa: sp 0 + .ra: lr
STACK CFI 25e2c .cfa: sp 8 + .ra: .cfa -4 + ^ r11: .cfa -8 + ^
STACK CFI 25e30 .cfa: r11 8 +
STACK CFI INIT 25e9c 8c .cfa: sp 0 + .ra: lr
STACK CFI 25ea0 .cfa: sp 8 + .ra: .cfa -4 + ^ r11: .cfa -8 + ^
STACK CFI 25ea4 .cfa: r11 8 +
STACK CFI INIT 25f28 84 .cfa: sp 0 + .ra: lr
STACK CFI 25f2c .cfa: sp 8 + .ra: .cfa -4 + ^ r11: .cfa -8 + ^
STACK CFI 25f30 .cfa: r11 8 +
STACK CFI INIT 25fac 94 .cfa: sp 0 + .ra: lr
STACK CFI 25fb0 .cfa: sp 8 + .ra: .cfa -4 + ^ r11: .cfa -8 + ^
STACK CFI 25fb4 .cfa: r11 8 +
STACK CFI INIT 26040 60 .cfa: sp 0 + .ra: lr
STACK CFI 26044 .cfa: sp 8 + .ra: .cfa -4 + ^ r11: .cfa -8 + ^
STACK CFI 26048 .cfa: r11 8 +
STACK CFI INIT 260a0 5c .cfa: sp 0 + .ra: lr
STACK CFI 260a4 .cfa: sp 8 + .ra: .cfa -4 + ^ r11: .cfa -8 + ^
STACK CFI 260a8 .cfa: r11 8 +
STACK CFI INIT 260fc 38 .cfa: sp 0 + .ra: lr
STACK CFI 26100 .cfa: sp 8 + .ra: .cfa -4 + ^ r11: .cfa -8 + ^
STACK CFI 26104 .cfa: r11 8 +
STACK CFI INIT 26134 20 .cfa: sp 0 + .ra: lr
STACK CFI 26138 .cfa: sp 8 + .ra: .cfa -4 + ^ r11: .cfa -8 + ^
STACK CFI 2613c .cfa: r11 8 +
STACK CFI INIT 26154 90 .cfa: sp 0 + .ra: lr
STACK CFI 26158 .cfa: sp 8 + .ra: .cfa -4 + ^ r11: .cfa -8 + ^
STACK CFI 2615c .cfa: r11 8 +
STACK CFI INIT 261e4 14 .cfa: sp 0 + .ra: lr
STACK CFI 261e8 .cfa: sp 4 +
STACK CFI INIT 261f8 60 .cfa: sp 0 + .ra: lr
STACK CFI 261fc .cfa: sp 8 + .ra: .cfa -4 + ^ r11: .cfa -8 + ^
STACK CFI 26200 .cfa: r11 8 +
STACK CFI INIT 26258 18 .cfa: sp 0 + .ra: lr
STACK CFI 2625c .cfa: sp 4 +
STACK CFI INIT 26270 20 .cfa: sp 0 + .ra: lr
STACK CFI 26274 .cfa: sp 8 +
STACK CFI INIT 26290 28 .cfa: sp 0 + .ra: lr
STACK CFI 26294 .cfa: sp 8 + .ra: .cfa -4 + ^ r11: .cfa -8 + ^
STACK CFI 26298 .cfa: r11 8 +
STACK CFI INIT 262b8 14 .cfa: sp 0 + .ra: lr
STACK CFI 262bc .cfa: sp 8 +
STACK CFI INIT 262cc 30 .cfa: sp 0 + .ra: lr
STACK CFI 262d0 .cfa: sp 8 + .ra: .cfa -4 + ^ r11: .cfa -8 + ^
STACK CFI 262d4 .cfa: r11 8 +
STACK CFI INIT 262fc 28 .cfa: sp 0 + .ra: lr
STACK CFI 26300 .cfa: sp 8 + .ra: .cfa -4 + ^ r11: .cfa -8 + ^
STACK CFI 26304 .cfa: r11 8 +
STACK CFI INIT 26324 24 .cfa: sp 0 + .ra: lr
STACK CFI 26328 .cfa: sp 8 +
STACK CFI INIT 26348 94 .cfa: sp 0 + .ra: lr
STACK CFI 2634c .cfa: sp 8 + .ra: .cfa -4 + ^ r11: .cfa -8 + ^
STACK CFI 26350 .cfa: r11 8 +
STACK CFI INIT 263dc 74 .cfa: sp 0 + .ra: lr
STACK CFI 263e0 .cfa: sp 8 + .ra: .cfa -4 + ^ r11: .cfa -8 + ^
STACK CFI 263e4 .cfa: r11 8 +
STACK CFI INIT 26450 2a0 .cfa: sp 0 + .ra: lr
STACK CFI 26454 .cfa: sp 8 + .ra: .cfa -4 + ^ r11: .cfa -8 + ^
STACK CFI 26458 .cfa: r11 8 +
STACK CFI INIT 266f0 10 .cfa: sp 0 + .ra: lr
STACK CFI 266f4 .cfa: sp 8 +
STACK CFI INIT 26700 58 .cfa: sp 0 + .ra: lr
STACK CFI 26704 .cfa: sp 8 + .ra: .cfa -4 + ^ r11: .cfa -8 + ^
STACK CFI 26708 .cfa: r11 8 +
STACK CFI INIT 26758 8c .cfa: sp 0 + .ra: lr
STACK CFI 2675c .cfa: sp 8 + .ra: .cfa -4 + ^ r11: .cfa -8 + ^
STACK CFI 26760 .cfa: r11 8 +
STACK CFI INIT 267e4 20 .cfa: sp 0 + .ra: lr
STACK CFI 267e8 .cfa: sp 4 +
STACK CFI INIT 26804 14 .cfa: sp 0 + .ra: lr
STACK CFI 26808 .cfa: sp 4 +
STACK CFI INIT 26818 18 .cfa: sp 0 + .ra: lr
STACK CFI 2681c .cfa: sp 4 +
STACK CFI INIT 26830 20 .cfa: sp 0 + .ra: lr
STACK CFI 26834 .cfa: sp 8 +
STACK CFI INIT 26850 118 .cfa: sp 0 + .ra: lr
STACK CFI 26854 .cfa: sp 8 + .ra: .cfa -4 + ^ r11: .cfa -8 + ^
STACK CFI 26858 .cfa: r11 8 +
STACK CFI INIT 26968 94 .cfa: sp 0 + .ra: lr
STACK CFI 2696c .cfa: sp 8 + .ra: .cfa -4 + ^ r11: .cfa -8 + ^
STACK CFI 26970 .cfa: r11 8 +
STACK CFI INIT 269fc 58 .cfa: sp 0 + .ra: lr
STACK CFI 26a00 .cfa: sp 8 + .ra: .cfa -4 + ^ r11: .cfa -8 + ^
STACK CFI 26a04 .cfa: r11 8 +
STACK CFI INIT 26a54 7c .cfa: sp 0 + .ra: lr
STACK CFI 26a58 .cfa: sp 8 + .ra: .cfa -4 + ^ r11: .cfa -8 + ^
STACK CFI 26a5c .cfa: r11 8 +
STACK CFI INIT 26ad0 50 .cfa: sp 0 + .ra: lr
STACK CFI 26ad4 .cfa: sp 8 + .ra: .cfa -4 + ^ r11: .cfa -8 + ^
STACK CFI 26ad8 .cfa: r11 8 +
STACK CFI INIT 26b20 a8 .cfa: sp 0 + .ra: lr
STACK CFI 26b24 .cfa: sp 8 + .ra: .cfa -4 + ^ r11: .cfa -8 + ^
STACK CFI 26b28 .cfa: r11 8 +
STACK CFI INIT 26bc8 28 .cfa: sp 0 + .ra: lr
STACK CFI 26bcc .cfa: sp 8 + .ra: .cfa -4 + ^ r11: .cfa -8 + ^
STACK CFI 26bd0 .cfa: r11 8 +
STACK CFI INIT 26bf0 c8 .cfa: sp 0 + .ra: lr
STACK CFI 26bf4 .cfa: sp 8 + .ra: .cfa -4 + ^ r11: .cfa -8 + ^
STACK CFI 26bf8 .cfa: r11 8 +
STACK CFI INIT 26cb8 64 .cfa: sp 0 + .ra: lr
STACK CFI 26cbc .cfa: sp 8 + .ra: .cfa -4 + ^ r11: .cfa -8 + ^
STACK CFI 26cc0 .cfa: r11 8 +
STACK CFI INIT 26d1c 5c .cfa: sp 0 + .ra: lr
STACK CFI 26d20 .cfa: sp 8 + .ra: .cfa -4 + ^ r11: .cfa -8 + ^
STACK CFI 26d24 .cfa: r11 8 +
STACK CFI INIT 26d78 64 .cfa: sp 0 + .ra: lr
STACK CFI 26d7c .cfa: sp 8 + .ra: .cfa -4 + ^ r11: .cfa -8 + ^
STACK CFI 26d80 .cfa: r11 8 +
STACK CFI INIT 26ddc 60 .cfa: sp 0 + .ra: lr
STACK CFI 26de0 .cfa: sp 8 + .ra: .cfa -4 + ^ r11: .cfa -8 + ^
STACK CFI 26de4 .cfa: r11 8 +
STACK CFI INIT 26e3c 28 .cfa: sp 0 + .ra: lr
STACK CFI 26e40 .cfa: sp 8 + .ra: .cfa -4 + ^ r11: .cfa -8 + ^
STACK CFI 26e44 .cfa: r11 8 +
STACK CFI INIT 26e64 14 .cfa: sp 0 + .ra: lr
STACK CFI 26e68 .cfa: sp 8 +
STACK CFI INIT 26e78 14 .cfa: sp 0 + .ra: lr
STACK CFI 26e7c .cfa: sp 4 +
STACK CFI INIT 26e8c 24 .cfa: sp 0 + .ra: lr
STACK CFI 26e90 .cfa: sp 8 +
STACK CFI INIT 26eb0 50 .cfa: sp 0 + .ra: lr
STACK CFI 26eb4 .cfa: sp 8 + .ra: .cfa -4 + ^ r11: .cfa -8 + ^
STACK CFI 26eb8 .cfa: r11 8 +
STACK CFI INIT 26f00 7c .cfa: sp 0 + .ra: lr
STACK CFI 26f04 .cfa: sp 8 + .ra: .cfa -4 + ^ r11: .cfa -8 + ^
STACK CFI 26f08 .cfa: r11 8 +
STACK CFI INIT 26f7c 7c .cfa: sp 0 + .ra: lr
STACK CFI 26f80 .cfa: sp 8 + .ra: .cfa -4 + ^ r11: .cfa -8 + ^
STACK CFI 26f84 .cfa: r11 8 +
STACK CFI INIT 26ff8 78 .cfa: sp 0 + .ra: lr
STACK CFI 26ffc .cfa: sp 8 + .ra: .cfa -4 + ^ r11: .cfa -8 + ^
STACK CFI 27000 .cfa: r11 8 +
STACK CFI INIT 27070 38 .cfa: sp 0 + .ra: lr
STACK CFI 27074 .cfa: sp 8 + .ra: .cfa -4 + ^ r11: .cfa -8 + ^
STACK CFI 27078 .cfa: r11 8 +
STACK CFI INIT 270a8 38 .cfa: sp 0 + .ra: lr
STACK CFI 270ac .cfa: sp 8 + .ra: .cfa -4 + ^ r11: .cfa -8 + ^
STACK CFI 270b0 .cfa: r11 8 +
STACK CFI INIT 270e0 14 .cfa: sp 0 + .ra: lr
STACK CFI 270e4 .cfa: sp 4 +
STACK CFI INIT 270f4 58 .cfa: sp 0 + .ra: lr
STACK CFI 270f8 .cfa: sp 8 + .ra: .cfa -4 + ^ r11: .cfa -8 + ^
STACK CFI 270fc .cfa: r11 8 +
STACK CFI INIT 2714c 74 .cfa: sp 0 + .ra: lr
STACK CFI 27150 .cfa: sp 8 + .ra: .cfa -4 + ^ r11: .cfa -8 + ^
STACK CFI 27154 .cfa: r11 8 +
STACK CFI INIT 271c0 70 .cfa: sp 0 + .ra: lr
STACK CFI 271c4 .cfa: sp 8 + .ra: .cfa -4 + ^ r11: .cfa -8 + ^
STACK CFI 271c8 .cfa: r11 8 +
STACK CFI INIT 27230 14 .cfa: sp 0 + .ra: lr
STACK CFI 27234 .cfa: sp 4 +
STACK CFI INIT 27244 28 .cfa: sp 0 + .ra: lr
STACK CFI 27248 .cfa: sp 8 + .ra: .cfa -4 + ^ r11: .cfa -8 + ^
STACK CFI 2724c .cfa: r11 8 +
STACK CFI INIT 2726c 4c .cfa: sp 0 + .ra: lr
STACK CFI 27270 .cfa: sp 8 + .ra: .cfa -4 + ^ r11: .cfa -8 + ^
STACK CFI 27274 .cfa: r11 8 +
STACK CFI INIT 272b8 50 .cfa: sp 0 + .ra: lr
STACK CFI 272bc .cfa: sp 8 + .ra: .cfa -4 + ^ r11: .cfa -8 + ^
STACK CFI 272c0 .cfa: r11 8 +
STACK CFI INIT 27308 1c .cfa: sp 0 + .ra: lr
STACK CFI 2730c .cfa: sp 4 +
STACK CFI INIT 27324 70 .cfa: sp 0 + .ra: lr
STACK CFI 27328 .cfa: sp 8 + .ra: .cfa -4 + ^ r11: .cfa -8 + ^
STACK CFI 2732c .cfa: r11 8 +
STACK CFI INIT 27394 20 .cfa: sp 0 + .ra: lr
STACK CFI 27398 .cfa: sp 8 +
STACK CFI INIT 273b4 20 .cfa: sp 0 + .ra: lr
STACK CFI 273b8 .cfa: sp 8 +
STACK CFI INIT 273d4 94 .cfa: sp 0 + .ra: lr
STACK CFI 273d8 .cfa: sp 8 + .ra: .cfa -4 + ^ r11: .cfa -8 + ^
STACK CFI 273dc .cfa: r11 8 +
STACK CFI INIT 27468 74 .cfa: sp 0 + .ra: lr
STACK CFI 2746c .cfa: sp 8 + .ra: .cfa -4 + ^ r11: .cfa -8 + ^
STACK CFI 27470 .cfa: r11 8 +
STACK CFI INIT 274dc c8 .cfa: sp 0 + .ra: lr
STACK CFI 274e0 .cfa: sp 8 + .ra: .cfa -4 + ^ r11: .cfa -8 + ^
STACK CFI 274e4 .cfa: r11 8 +
STACK CFI INIT 275a4 10 .cfa: sp 0 + .ra: lr
STACK CFI 275a8 .cfa: sp 8 +
STACK CFI INIT 275b4 80 .cfa: sp 0 + .ra: lr
STACK CFI 275b8 .cfa: sp 8 + .ra: .cfa -4 + ^ r11: .cfa -8 + ^
STACK CFI 275bc .cfa: r11 8 +
STACK CFI INIT 27634 20 .cfa: sp 0 + .ra: lr
STACK CFI 27638 .cfa: sp 4 +
STACK CFI INIT 27654 1c .cfa: sp 0 + .ra: lr
STACK CFI 27658 .cfa: sp 4 +
STACK CFI INIT 27670 30 .cfa: sp 0 + .ra: lr
STACK CFI 27674 .cfa: sp 8 +
STACK CFI INIT 276a0 20 .cfa: sp 0 + .ra: lr
STACK CFI 276a4 .cfa: sp 8 +
STACK CFI INIT 276c0 58 .cfa: sp 0 + .ra: lr
STACK CFI 276c4 .cfa: sp 8 + .ra: .cfa -4 + ^ r11: .cfa -8 + ^
STACK CFI 276c8 .cfa: r11 8 +
STACK CFI INIT 27718 70 .cfa: sp 0 + .ra: lr
STACK CFI 2771c .cfa: sp 8 + .ra: .cfa -4 + ^ r11: .cfa -8 + ^
STACK CFI 27720 .cfa: r11 8 +
STACK CFI INIT 27788 14 .cfa: sp 0 + .ra: lr
STACK CFI 2778c .cfa: sp 4 +
STACK CFI INIT 2779c 28 .cfa: sp 0 + .ra: lr
STACK CFI 277a0 .cfa: sp 8 + .ra: .cfa -4 + ^ r11: .cfa -8 + ^
STACK CFI 277a4 .cfa: r11 8 +
STACK CFI INIT 277c4 4c .cfa: sp 0 + .ra: lr
STACK CFI 277c8 .cfa: sp 8 + .ra: .cfa -4 + ^ r11: .cfa -8 + ^
STACK CFI 277cc .cfa: r11 8 +
STACK CFI INIT 27810 58 .cfa: sp 0 + .ra: lr
STACK CFI 27814 .cfa: sp 8 + .ra: .cfa -4 + ^ r11: .cfa -8 + ^
STACK CFI 27818 .cfa: r11 8 +
STACK CFI INIT 27868 1c .cfa: sp 0 + .ra: lr
STACK CFI 2786c .cfa: sp 4 +
STACK CFI INIT 27884 60 .cfa: sp 0 + .ra: lr
STACK CFI 27888 .cfa: sp 8 + .ra: .cfa -4 + ^ r11: .cfa -8 + ^
STACK CFI 2788c .cfa: r11 8 +
STACK CFI INIT 278e4 54 .cfa: sp 0 + .ra: lr
STACK CFI 278e8 .cfa: sp 8 + .ra: .cfa -4 + ^ r11: .cfa -8 + ^
STACK CFI 278ec .cfa: r11 8 +
STACK CFI INIT 27938 78 .cfa: sp 0 + .ra: lr
STACK CFI 2793c .cfa: sp 8 + .ra: .cfa -4 + ^ r11: .cfa -8 + ^
STACK CFI 27940 .cfa: r11 8 +
STACK CFI INIT 279b0 ec .cfa: sp 0 + .ra: lr
STACK CFI 279b4 .cfa: sp 8 + .ra: .cfa -4 + ^ r11: .cfa -8 + ^
STACK CFI 279b8 .cfa: r11 8 +
STACK CFI INIT 27a9c 100 .cfa: sp 0 + .ra: lr
STACK CFI 27aa0 .cfa: sp 8 + .ra: .cfa -4 + ^ r11: .cfa -8 + ^
STACK CFI 27aa4 .cfa: r11 8 +
STACK CFI INIT 27b9c 1b0 .cfa: sp 0 + .ra: lr
STACK CFI 27ba0 .cfa: sp 8 + .ra: .cfa -4 + ^ r11: .cfa -8 + ^
STACK CFI 27ba4 .cfa: r11 8 +
STACK CFI INIT 27d4c 50 .cfa: sp 0 + .ra: lr
STACK CFI 27d50 .cfa: sp 8 + .ra: .cfa -4 + ^ r11: .cfa -8 + ^
STACK CFI 27d54 .cfa: r11 8 +
STACK CFI INIT 27d9c 70 .cfa: sp 0 + .ra: lr
STACK CFI 27da0 .cfa: sp 8 + .ra: .cfa -4 + ^ r11: .cfa -8 + ^
STACK CFI 27da4 .cfa: r11 8 +
STACK CFI INIT 27e0c 14 .cfa: sp 0 + .ra: lr
STACK CFI 27e10 .cfa: sp 4 +
STACK CFI INIT 27e20 60 .cfa: sp 0 + .ra: lr
STACK CFI 27e24 .cfa: sp 8 + .ra: .cfa -4 + ^ r11: .cfa -8 + ^
STACK CFI 27e28 .cfa: r11 8 +
STACK CFI INIT 27e80 94 .cfa: sp 0 + .ra: lr
STACK CFI 27e84 .cfa: sp 8 + .ra: .cfa -4 + ^ r11: .cfa -8 + ^
STACK CFI 27e88 .cfa: r11 8 +
STACK CFI INIT 27f14 44 .cfa: sp 0 + .ra: lr
STACK CFI 27f18 .cfa: sp 8 + .ra: .cfa -4 + ^ r11: .cfa -8 + ^
STACK CFI 27f1c .cfa: r11 8 +
STACK CFI INIT 27f58 188 .cfa: sp 0 + .ra: lr
STACK CFI 27f5c .cfa: sp 16 + .ra: .cfa -4 + ^ r10: .cfa -12 + ^ r11: .cfa -8 + ^ r4: .cfa -16 + ^
STACK CFI 27f60 .cfa: r11 8 +
STACK CFI INIT 280e0 20 .cfa: sp 0 + .ra: lr
STACK CFI 280e4 .cfa: sp 8 +
STACK CFI INIT 28100 20 .cfa: sp 0 + .ra: lr
STACK CFI 28104 .cfa: sp 8 +
STACK CFI INIT 28120 20 .cfa: sp 0 + .ra: lr
STACK CFI 28124 .cfa: sp 8 +
STACK CFI INIT 28140 fc .cfa: sp 0 + .ra: lr
STACK CFI 28144 .cfa: sp 8 + .ra: .cfa -4 + ^ r11: .cfa -8 + ^
STACK CFI 28148 .cfa: r11 8 +
STACK CFI INIT 2823c b8 .cfa: sp 0 + .ra: lr
STACK CFI 28240 .cfa: sp 8 + .ra: .cfa -4 + ^ r11: .cfa -8 + ^
STACK CFI 28244 .cfa: r11 8 +
STACK CFI INIT 282f4 c4 .cfa: sp 0 + .ra: lr
STACK CFI 282f8 .cfa: sp 8 + .ra: .cfa -4 + ^ r11: .cfa -8 + ^
STACK CFI 282fc .cfa: r11 8 +
STACK CFI INIT 283b8 40 .cfa: sp 0 + .ra: lr
STACK CFI 283bc .cfa: sp 8 + .ra: .cfa -4 + ^ r11: .cfa -8 + ^
STACK CFI 283c0 .cfa: r11 8 +
STACK CFI INIT 283f8 38 .cfa: sp 0 + .ra: lr
STACK CFI 283fc .cfa: sp 8 + .ra: .cfa -4 + ^ r11: .cfa -8 + ^
STACK CFI 28400 .cfa: r11 8 +
STACK CFI INIT 28430 30 .cfa: sp 0 + .ra: lr
STACK CFI 28434 .cfa: sp 8 + .ra: .cfa -4 + ^ r11: .cfa -8 + ^
STACK CFI 28438 .cfa: r11 8 +
STACK CFI INIT 28460 18 .cfa: sp 0 + .ra: lr
STACK CFI 28464 .cfa: sp 4 +
STACK CFI INIT 238a8 19c .cfa: sp 0 + .ra: lr
STACK CFI 238ac .cfa: sp 8 + .ra: .cfa -4 + ^ r11: .cfa -8 + ^
STACK CFI 238b0 .cfa: r11 8 +
STACK CFI INIT 24f10 e8 .cfa: sp 0 + .ra: lr
STACK CFI 24f14 .cfa: sp 24 + .ra: .cfa -4 + ^ r10: .cfa -12 + ^ r11: .cfa -8 + ^ r4: .cfa -24 + ^ r5: .cfa -20 + ^ r6: .cfa -16 + ^
STACK CFI 24f18 .cfa: r11 8 +
STACK CFI INIT 28478 c0 .cfa: sp 0 + .ra: lr
STACK CFI 2847c .cfa: sp 16 + .ra: .cfa -4 + ^ r11: .cfa -8 + ^ r4: .cfa -16 + ^ r5: .cfa -12 + ^
STACK CFI 28480 .cfa: r11 8 +
STACK CFI INIT 28538 d4 .cfa: sp 0 + .ra: lr
STACK CFI 2853c .cfa: sp 16 + .ra: .cfa -4 + ^ r11: .cfa -8 + ^ r4: .cfa -16 + ^ r5: .cfa -12 + ^
STACK CFI 28540 .cfa: r11 8 +
STACK CFI INIT 2860c 278 .cfa: sp 0 + .ra: lr
STACK CFI 28610 .cfa: sp 16 + .ra: .cfa -4 + ^ r11: .cfa -8 + ^ r4: .cfa -16 + ^ r5: .cfa -12 + ^
STACK CFI 28614 .cfa: r11 8 +
STACK CFI INIT 28884 28 .cfa: sp 0 + .ra: lr
STACK CFI 28888 .cfa: sp 8 + .ra: .cfa -4 + ^ r11: .cfa -8 + ^
STACK CFI 2888c .cfa: r11 8 +
STACK CFI INIT 288ac 70 .cfa: sp 0 + .ra: lr
STACK CFI 288b0 .cfa: sp 8 + .ra: .cfa -4 + ^ r11: .cfa -8 + ^
STACK CFI 288b4 .cfa: r11 8 +
STACK CFI INIT 2891c 1e4 .cfa: sp 0 + .ra: lr
STACK CFI 28920 .cfa: sp 16 + .ra: .cfa -4 + ^ r11: .cfa -8 + ^ r4: .cfa -16 + ^ r5: .cfa -12 + ^
STACK CFI 28924 .cfa: r11 8 +
STACK CFI INIT 28b00 70 .cfa: sp 0 + .ra: lr
STACK CFI 28b04 .cfa: sp 8 + .ra: .cfa -4 + ^ r11: .cfa -8 + ^
STACK CFI 28b08 .cfa: r11 8 +
STACK CFI INIT 28b70 70 .cfa: sp 0 + .ra: lr
STACK CFI 28b74 .cfa: sp 8 + .ra: .cfa -4 + ^ r11: .cfa -8 + ^
STACK CFI 28b78 .cfa: r11 8 +
STACK CFI INIT 28be0 4c4 .cfa: sp 0 + .ra: lr
STACK CFI 28be4 .cfa: sp 16 + .ra: .cfa -4 + ^ r11: .cfa -8 + ^ r4: .cfa -16 + ^ r5: .cfa -12 + ^
STACK CFI 28be8 .cfa: r11 8 +
STACK CFI INIT 290a4 170 .cfa: sp 0 + .ra: lr
STACK CFI 290a8 .cfa: sp 8 + .ra: .cfa -4 + ^ r11: .cfa -8 + ^
STACK CFI 290ac .cfa: r11 8 +
STACK CFI INIT 29214 b4 .cfa: sp 0 + .ra: lr
STACK CFI 29218 .cfa: sp 16 + .ra: .cfa -4 + ^ r11: .cfa -8 + ^ r4: .cfa -16 + ^ r5: .cfa -12 + ^
STACK CFI 2921c .cfa: r11 8 +
STACK CFI INIT 292c8 1cc .cfa: sp 0 + .ra: lr
STACK CFI 292cc .cfa: sp 16 + .ra: .cfa -4 + ^ r10: .cfa -12 + ^ r11: .cfa -8 + ^ r4: .cfa -16 + ^
STACK CFI 292d0 .cfa: r11 8 +
STACK CFI INIT 29494 18 .cfa: sp 0 + .ra: lr
STACK CFI 29498 .cfa: sp 4 +
STACK CFI INIT 294ac 34 .cfa: sp 0 + .ra: lr
STACK CFI 294b0 .cfa: sp 8 + .ra: .cfa -4 + ^ r11: .cfa -8 + ^
STACK CFI 294b4 .cfa: r11 8 +
STACK CFI INIT 294e0 38 .cfa: sp 0 + .ra: lr
STACK CFI 294e4 .cfa: sp 8 + .ra: .cfa -4 + ^ r11: .cfa -8 + ^
STACK CFI 294e8 .cfa: r11 8 +
STACK CFI INIT 29518 d4 .cfa: sp 0 + .ra: lr
STACK CFI 2951c .cfa: sp 8 + .ra: .cfa -4 + ^ r11: .cfa -8 + ^
STACK CFI 29520 .cfa: r11 8 +
STACK CFI INIT 295ec 28 .cfa: sp 0 + .ra: lr
STACK CFI 295f0 .cfa: sp 8 + .ra: .cfa -4 + ^ r11: .cfa -8 + ^
STACK CFI 295f4 .cfa: r11 8 +
STACK CFI INIT 29614 18 .cfa: sp 0 + .ra: lr
STACK CFI 29618 .cfa: sp 4 +
STACK CFI INIT 2962c 3c .cfa: sp 0 + .ra: lr
STACK CFI 29630 .cfa: sp 8 + .ra: .cfa -4 + ^ r11: .cfa -8 + ^
STACK CFI 29634 .cfa: r11 8 +
STACK CFI INIT 29668 30 .cfa: sp 0 + .ra: lr
STACK CFI 2966c .cfa: sp 16 +
STACK CFI INIT 29698 68 .cfa: sp 0 + .ra: lr
STACK CFI 2969c .cfa: sp 12 +
STACK CFI INIT 29700 f8 .cfa: sp 0 + .ra: lr
STACK CFI 29704 .cfa: sp 8 + .ra: .cfa -4 + ^ r11: .cfa -8 + ^
STACK CFI 29708 .cfa: r11 8 +
STACK CFI INIT 297f8 8 .cfa: sp 0 + .ra: lr
STACK CFI INIT 25c60 44 .cfa: sp 0 + .ra: lr
STACK CFI 25c64 .cfa: sp 12 +
STACK CFI INIT 29800 148 .cfa: sp 0 + .ra: lr
STACK CFI 29804 .cfa: sp 16 + .ra: .cfa -4 + ^ r10: .cfa -12 + ^ r11: .cfa -8 + ^ r4: .cfa -16 + ^
STACK CFI 29808 .cfa: r11 8 +
STACK CFI INIT 29948 d8 .cfa: sp 0 + .ra: lr
STACK CFI 2994c .cfa: sp 8 + .ra: .cfa -4 + ^ r11: .cfa -8 + ^
STACK CFI 29950 .cfa: r11 8 +
STACK CFI INIT 29a20 d8 .cfa: sp 0 + .ra: lr
STACK CFI 29a24 .cfa: sp 8 + .ra: .cfa -4 + ^ r11: .cfa -8 + ^
STACK CFI 29a28 .cfa: r11 8 +
STACK CFI INIT 29af8 74 .cfa: sp 0 + .ra: lr
STACK CFI 29afc .cfa: sp 8 + .ra: .cfa -4 + ^ r11: .cfa -8 + ^
STACK CFI 29b00 .cfa: r11 8 +
STACK CFI INIT 29b6c 74 .cfa: sp 0 + .ra: lr
STACK CFI 29b70 .cfa: sp 8 + .ra: .cfa -4 + ^ r11: .cfa -8 + ^
STACK CFI 29b74 .cfa: r11 8 +
STACK CFI INIT 29be0 4c .cfa: sp 0 + .ra: lr
STACK CFI 29be4 .cfa: sp 8 +
STACK CFI INIT 29c2c c .cfa: sp 0 + .ra: lr
STACK CFI INIT 29c38 c .cfa: sp 0 + .ra: lr
STACK CFI INIT 29c44 c .cfa: sp 0 + .ra: lr
STACK CFI INIT 29c50 c .cfa: sp 0 + .ra: lr
STACK CFI INIT 29c5c 80 .cfa: sp 0 + .ra: lr
STACK CFI 29c60 .cfa: sp 8 + .ra: .cfa -4 + ^ r11: .cfa -8 + ^
STACK CFI 29c64 .cfa: r11 8 +
STACK CFI INIT 29cdc 44 .cfa: sp 0 + .ra: lr
STACK CFI 29ce0 .cfa: sp 12 +
STACK CFI INIT 29d20 144 .cfa: sp 0 + .ra: lr
STACK CFI 29d24 .cfa: sp 8 + .ra: .cfa -4 + ^ r11: .cfa -8 + ^
STACK CFI 29d28 .cfa: r11 8 +
STACK CFI INIT 29e64 340 .cfa: sp 0 + .ra: lr
STACK CFI 29e68 .cfa: sp 16 + .ra: .cfa -4 + ^ r10: .cfa -12 + ^ r11: .cfa -8 + ^ r4: .cfa -16 + ^
STACK CFI 29e6c .cfa: r11 8 +
STACK CFI INIT 2a1a4 78 .cfa: sp 0 + .ra: lr
STACK CFI 2a1a8 .cfa: sp 8 + .ra: .cfa -4 + ^ r11: .cfa -8 + ^
STACK CFI 2a1ac .cfa: r11 8 +
STACK CFI INIT 2a21c 34 .cfa: sp 0 + .ra: lr
STACK CFI 2a220 .cfa: sp 8 +
STACK CFI INIT 2a250 74 .cfa: sp 0 + .ra: lr
STACK CFI 2a254 .cfa: sp 8 + .ra: .cfa -4 + ^ r11: .cfa -8 + ^
STACK CFI 2a258 .cfa: r11 8 +
STACK CFI INIT 2a2c4 28 .cfa: sp 0 + .ra: lr
STACK CFI 2a2c8 .cfa: sp 8 + .ra: .cfa -4 + ^ r11: .cfa -8 + ^
STACK CFI 2a2cc .cfa: r11 8 +
STACK CFI INIT 2a2ec 20 .cfa: sp 0 + .ra: lr
STACK CFI 2a2f0 .cfa: sp 4 +
STACK CFI INIT 2a30c bc .cfa: sp 0 + .ra: lr
STACK CFI 2a310 .cfa: sp 8 + .ra: .cfa -4 + ^ r11: .cfa -8 + ^
STACK CFI 2a314 .cfa: r11 8 +
STACK CFI INIT 2a3c8 e4 .cfa: sp 0 + .ra: lr
STACK CFI 2a3cc .cfa: sp 8 + .ra: .cfa -4 + ^ r11: .cfa -8 + ^
STACK CFI 2a3d0 .cfa: r11 8 +
STACK CFI INIT 2a4ac 78 .cfa: sp 0 + .ra: lr
STACK CFI 2a4b0 .cfa: sp 8 + .ra: .cfa -4 + ^ r11: .cfa -8 + ^
STACK CFI 2a4b4 .cfa: r11 8 +
STACK CFI INIT 2a524 40 .cfa: sp 0 + .ra: lr
STACK CFI 2a528 .cfa: sp 8 + .ra: .cfa -4 + ^ r11: .cfa -8 + ^
STACK CFI 2a52c .cfa: r11 8 +
STACK CFI INIT 2a564 24 .cfa: sp 0 + .ra: lr
STACK CFI 2a568 .cfa: sp 8 +
STACK CFI INIT 2a588 20 .cfa: sp 0 + .ra: lr
STACK CFI 2a58c .cfa: sp 4 +
STACK CFI INIT 2a5a8 38 .cfa: sp 0 + .ra: lr
STACK CFI 2a5ac .cfa: sp 8 + .ra: .cfa -4 + ^ r11: .cfa -8 + ^
STACK CFI 2a5b0 .cfa: r11 8 +
STACK CFI INIT 2a5e0 5c .cfa: sp 0 + .ra: lr
STACK CFI 2a5e4 .cfa: sp 8 + .ra: .cfa -4 + ^ r11: .cfa -8 + ^
STACK CFI 2a5e8 .cfa: r11 8 +
STACK CFI INIT 2a63c 38 .cfa: sp 0 + .ra: lr
STACK CFI 2a640 .cfa: sp 8 + .ra: .cfa -4 + ^ r11: .cfa -8 + ^
STACK CFI 2a644 .cfa: r11 8 +
STACK CFI INIT 2a674 38 .cfa: sp 0 + .ra: lr
STACK CFI 2a678 .cfa: sp 8 + .ra: .cfa -4 + ^ r11: .cfa -8 + ^
STACK CFI 2a67c .cfa: r11 8 +
STACK CFI INIT 2a6ac 13c .cfa: sp 0 + .ra: lr
STACK CFI 2a6b0 .cfa: sp 8 + .ra: .cfa -4 + ^ r11: .cfa -8 + ^
STACK CFI 2a6b4 .cfa: r11 8 +
STACK CFI INIT 2a7e8 38 .cfa: sp 0 + .ra: lr
STACK CFI 2a7ec .cfa: sp 8 + .ra: .cfa -4 + ^ r11: .cfa -8 + ^
STACK CFI 2a7f0 .cfa: r11 8 +
STACK CFI INIT 2a820 14 .cfa: sp 0 + .ra: lr
STACK CFI 2a824 .cfa: sp 4 +
STACK CFI INIT 2a834 44 .cfa: sp 0 + .ra: lr
STACK CFI 2a838 .cfa: sp 8 + .ra: .cfa -4 + ^ r11: .cfa -8 + ^
STACK CFI 2a83c .cfa: r11 8 +
STACK CFI INIT 2a878 38 .cfa: sp 0 + .ra: lr
STACK CFI 2a87c .cfa: sp 8 + .ra: .cfa -4 + ^ r11: .cfa -8 + ^
STACK CFI 2a880 .cfa: r11 8 +
STACK CFI INIT 2a8b0 54 .cfa: sp 0 + .ra: lr
STACK CFI 2a8b4 .cfa: sp 8 + .ra: .cfa -4 + ^ r11: .cfa -8 + ^
STACK CFI 2a8b8 .cfa: r11 8 +
STACK CFI INIT 2a904 60 .cfa: sp 0 + .ra: lr
STACK CFI 2a908 .cfa: sp 8 + .ra: .cfa -4 + ^ r11: .cfa -8 + ^
STACK CFI 2a90c .cfa: r11 8 +
STACK CFI INIT 2a964 44 .cfa: sp 0 + .ra: lr
STACK CFI 2a968 .cfa: sp 8 + .ra: .cfa -4 + ^ r11: .cfa -8 + ^
STACK CFI 2a96c .cfa: r11 8 +
STACK CFI INIT 2a9a8 18 .cfa: sp 0 + .ra: lr
STACK CFI 2a9ac .cfa: sp 8 +
STACK CFI INIT 2a9c0 38 .cfa: sp 0 + .ra: lr
STACK CFI 2a9c4 .cfa: sp 8 + .ra: .cfa -4 + ^ r11: .cfa -8 + ^
STACK CFI 2a9c8 .cfa: r11 8 +
STACK CFI INIT 2a9f8 14 .cfa: sp 0 + .ra: lr
STACK CFI 2a9fc .cfa: sp 4 +
STACK CFI INIT 2aa0c 24 .cfa: sp 0 + .ra: lr
STACK CFI 2aa10 .cfa: sp 8 + .ra: .cfa -4 + ^ r11: .cfa -8 + ^
STACK CFI 2aa14 .cfa: r11 8 +
STACK CFI INIT 2aa30 20 .cfa: sp 0 + .ra: lr
STACK CFI 2aa34 .cfa: sp 4 +
STACK CFI INIT 2aa50 b8 .cfa: sp 0 + .ra: lr
STACK CFI 2aa54 .cfa: sp 8 + .ra: .cfa -4 + ^ r11: .cfa -8 + ^
STACK CFI 2aa58 .cfa: r11 8 +
STACK CFI INIT 2ab08 74 .cfa: sp 0 + .ra: lr
STACK CFI 2ab0c .cfa: sp 8 + .ra: .cfa -4 + ^ r11: .cfa -8 + ^
STACK CFI 2ab10 .cfa: r11 8 +
STACK CFI INIT 2ab7c 68 .cfa: sp 0 + .ra: lr
STACK CFI 2ab80 .cfa: sp 8 + .ra: .cfa -4 + ^ r11: .cfa -8 + ^
STACK CFI 2ab84 .cfa: r11 8 +
STACK CFI INIT 2abe4 14 .cfa: sp 0 + .ra: lr
STACK CFI 2abe8 .cfa: sp 4 +
STACK CFI INIT 2abf8 48 .cfa: sp 0 + .ra: lr
STACK CFI 2abfc .cfa: sp 8 + .ra: .cfa -4 + ^ r11: .cfa -8 + ^
STACK CFI 2ac00 .cfa: r11 8 +
STACK CFI INIT 2ac40 24 .cfa: sp 0 + .ra: lr
STACK CFI 2ac44 .cfa: sp 8 + .ra: .cfa -4 + ^ r11: .cfa -8 + ^
STACK CFI 2ac48 .cfa: r11 8 +
STACK CFI INIT 2ac64 14 .cfa: sp 0 + .ra: lr
STACK CFI 2ac68 .cfa: sp 4 +
STACK CFI INIT 2ac78 24 .cfa: sp 0 + .ra: lr
STACK CFI 2ac7c .cfa: sp 8 + .ra: .cfa -4 + ^ r11: .cfa -8 + ^
STACK CFI 2ac80 .cfa: r11 8 +
STACK CFI INIT 2ac9c 18 .cfa: sp 0 + .ra: lr
STACK CFI 2aca0 .cfa: sp 4 +
STACK CFI INIT 2acb4 54 .cfa: sp 0 + .ra: lr
STACK CFI 2acb8 .cfa: sp 8 + .ra: .cfa -4 + ^ r11: .cfa -8 + ^
STACK CFI 2acbc .cfa: r11 8 +
STACK CFI INIT 2ad08 d8 .cfa: sp 0 + .ra: lr
STACK CFI 2ad0c .cfa: sp 8 + .ra: .cfa -4 + ^ r11: .cfa -8 + ^
STACK CFI 2ad10 .cfa: r11 8 +
STACK CFI INIT 2ade0 2c .cfa: sp 0 + .ra: lr
STACK CFI 2ade4 .cfa: sp 8 + .ra: .cfa -4 + ^ r11: .cfa -8 + ^
STACK CFI 2ade8 .cfa: r11 8 +
STACK CFI INIT 2ae0c 78 .cfa: sp 0 + .ra: lr
STACK CFI 2ae10 .cfa: sp 8 + .ra: .cfa -4 + ^ r11: .cfa -8 + ^
STACK CFI 2ae14 .cfa: r11 8 +
STACK CFI INIT 2ae84 34 .cfa: sp 0 + .ra: lr
STACK CFI 2ae88 .cfa: sp 8 + .ra: .cfa -4 + ^ r11: .cfa -8 + ^
STACK CFI 2ae8c .cfa: r11 8 +
STACK CFI INIT 2aeb8 54 .cfa: sp 0 + .ra: lr
STACK CFI 2aebc .cfa: sp 8 + .ra: .cfa -4 + ^ r11: .cfa -8 + ^
STACK CFI 2aec0 .cfa: r11 8 +
STACK CFI INIT 2af0c 14 .cfa: sp 0 + .ra: lr
STACK CFI 2af10 .cfa: sp 4 +
STACK CFI INIT 2af20 24 .cfa: sp 0 + .ra: lr
STACK CFI 2af24 .cfa: sp 8 + .ra: .cfa -4 + ^ r11: .cfa -8 + ^
STACK CFI 2af28 .cfa: r11 8 +
STACK CFI INIT 2af44 20 .cfa: sp 0 + .ra: lr
STACK CFI 2af48 .cfa: sp 4 +
STACK CFI INIT 2af64 48 .cfa: sp 0 + .ra: lr
STACK CFI 2af68 .cfa: sp 8 + .ra: .cfa -4 + ^ r11: .cfa -8 + ^
STACK CFI 2af6c .cfa: r11 8 +
STACK CFI INIT 2afac 18 .cfa: sp 0 + .ra: lr
STACK CFI 2afb0 .cfa: sp 4 +
STACK CFI INIT 2afc4 54 .cfa: sp 0 + .ra: lr
STACK CFI 2afc8 .cfa: sp 8 + .ra: .cfa -4 + ^ r11: .cfa -8 + ^
STACK CFI 2afcc .cfa: r11 8 +
STACK CFI INIT 2b018 14 .cfa: sp 0 + .ra: lr
STACK CFI 2b01c .cfa: sp 4 +
STACK CFI INIT 2b02c 40 .cfa: sp 0 + .ra: lr
STACK CFI 2b030 .cfa: sp 8 + .ra: .cfa -4 + ^ r11: .cfa -8 + ^
STACK CFI 2b034 .cfa: r11 8 +
STACK CFI INIT 2b06c 14 .cfa: sp 0 + .ra: lr
STACK CFI 2b070 .cfa: sp 4 +
STACK CFI INIT 2b080 20 .cfa: sp 0 + .ra: lr
STACK CFI 2b084 .cfa: sp 8 +
STACK CFI INIT 2b0a0 28 .cfa: sp 0 + .ra: lr
STACK CFI 2b0a4 .cfa: sp 8 + .ra: .cfa -4 + ^ r11: .cfa -8 + ^
STACK CFI 2b0a8 .cfa: r11 8 +
STACK CFI INIT 2b0c8 28 .cfa: sp 0 + .ra: lr
STACK CFI 2b0cc .cfa: sp 8 + .ra: .cfa -4 + ^ r11: .cfa -8 + ^
STACK CFI 2b0d0 .cfa: r11 8 +
STACK CFI INIT 2b0f0 14 .cfa: sp 0 + .ra: lr
STACK CFI 2b0f4 .cfa: sp 8 +
STACK CFI INIT 2b104 30 .cfa: sp 0 + .ra: lr
STACK CFI 2b108 .cfa: sp 8 + .ra: .cfa -4 + ^ r11: .cfa -8 + ^
STACK CFI 2b10c .cfa: r11 8 +
STACK CFI INIT 2b134 18 .cfa: sp 0 + .ra: lr
STACK CFI 2b138 .cfa: sp 12 +
STACK CFI INIT 2b14c 44 .cfa: sp 0 + .ra: lr
STACK CFI 2b150 .cfa: sp 8 + .ra: .cfa -4 + ^ r11: .cfa -8 + ^
STACK CFI 2b154 .cfa: r11 8 +
STACK CFI INIT 2b190 7c .cfa: sp 0 + .ra: lr
STACK CFI 2b194 .cfa: sp 8 + .ra: .cfa -4 + ^ r11: .cfa -8 + ^
STACK CFI 2b198 .cfa: r11 8 +
STACK CFI INIT 2b20c 70 .cfa: sp 0 + .ra: lr
STACK CFI 2b210 .cfa: sp 8 + .ra: .cfa -4 + ^ r11: .cfa -8 + ^
STACK CFI 2b214 .cfa: r11 8 +
STACK CFI INIT 2b27c 78 .cfa: sp 0 + .ra: lr
STACK CFI 2b280 .cfa: sp 8 + .ra: .cfa -4 + ^ r11: .cfa -8 + ^
STACK CFI 2b284 .cfa: r11 8 +
STACK CFI INIT 2b2f4 88 .cfa: sp 0 + .ra: lr
STACK CFI 2b2f8 .cfa: sp 8 + .ra: .cfa -4 + ^ r11: .cfa -8 + ^
STACK CFI 2b2fc .cfa: r11 8 +
STACK CFI INIT 2b37c 14 .cfa: sp 0 + .ra: lr
STACK CFI 2b380 .cfa: sp 4 +
STACK CFI INIT 2b390 24 .cfa: sp 0 + .ra: lr
STACK CFI 2b394 .cfa: sp 8 +
STACK CFI INIT 2b3b4 434 .cfa: sp 0 + .ra: lr
STACK CFI 2b3b8 .cfa: sp 8 + .ra: .cfa -4 + ^ r11: .cfa -8 + ^
STACK CFI 2b3bc .cfa: r11 8 +
STACK CFI INIT 2b7e8 80 .cfa: sp 0 + .ra: lr
STACK CFI 2b7ec .cfa: sp 8 + .ra: .cfa -4 + ^ r11: .cfa -8 + ^
STACK CFI 2b7f0 .cfa: r11 8 +
STACK CFI INIT 2b868 44 .cfa: sp 0 + .ra: lr
STACK CFI 2b86c .cfa: sp 8 + .ra: .cfa -4 + ^ r11: .cfa -8 + ^
STACK CFI 2b870 .cfa: r11 8 +
STACK CFI INIT 2b8ac 58 .cfa: sp 0 + .ra: lr
STACK CFI 2b8b0 .cfa: sp 8 + .ra: .cfa -4 + ^ r11: .cfa -8 + ^
STACK CFI 2b8b4 .cfa: r11 8 +
STACK CFI INIT 2b904 50 .cfa: sp 0 + .ra: lr
STACK CFI 2b908 .cfa: sp 8 + .ra: .cfa -4 + ^ r11: .cfa -8 + ^
STACK CFI 2b90c .cfa: r11 8 +
STACK CFI INIT 2b954 14 .cfa: sp 0 + .ra: lr
STACK CFI 2b958 .cfa: sp 4 +
STACK CFI INIT 2b968 a4 .cfa: sp 0 + .ra: lr
STACK CFI 2b96c .cfa: sp 8 + .ra: .cfa -4 + ^ r11: .cfa -8 + ^
STACK CFI 2b970 .cfa: r11 8 +
STACK CFI INIT 2ba0c 4c .cfa: sp 0 + .ra: lr
STACK CFI 2ba10 .cfa: sp 8 + .ra: .cfa -4 + ^ r11: .cfa -8 + ^
STACK CFI 2ba14 .cfa: r11 8 +
STACK CFI INIT 2ba58 88 .cfa: sp 0 + .ra: lr
STACK CFI 2ba5c .cfa: sp 8 + .ra: .cfa -4 + ^ r11: .cfa -8 + ^
STACK CFI 2ba60 .cfa: r11 8 +
STACK CFI INIT 2bae0 130 .cfa: sp 0 + .ra: lr
STACK CFI 2bae4 .cfa: sp 8 + .ra: .cfa -4 + ^ r11: .cfa -8 + ^
STACK CFI 2bae8 .cfa: r11 8 +
STACK CFI INIT 2bc10 58 .cfa: sp 0 + .ra: lr
STACK CFI 2bc14 .cfa: sp 8 + .ra: .cfa -4 + ^ r11: .cfa -8 + ^
STACK CFI 2bc18 .cfa: r11 8 +
STACK CFI INIT 2bc68 20 .cfa: sp 0 + .ra: lr
STACK CFI 2bc6c .cfa: sp 12 +
STACK CFI INIT 2bc88 10 .cfa: sp 0 + .ra: lr
STACK CFI 2bc8c .cfa: sp 8 +
STACK CFI INIT 2bc98 74 .cfa: sp 0 + .ra: lr
STACK CFI 2bc9c .cfa: sp 8 + .ra: .cfa -4 + ^ r11: .cfa -8 + ^
STACK CFI 2bca0 .cfa: r11 8 +
STACK CFI INIT 2bd0c 60 .cfa: sp 0 + .ra: lr
STACK CFI 2bd10 .cfa: sp 8 + .ra: .cfa -4 + ^ r11: .cfa -8 + ^
STACK CFI 2bd14 .cfa: r11 8 +
STACK CFI INIT 2bd6c 20 .cfa: sp 0 + .ra: lr
STACK CFI 2bd70 .cfa: sp 8 + .ra: .cfa -4 + ^ r11: .cfa -8 + ^
STACK CFI 2bd74 .cfa: r11 8 +
STACK CFI INIT 2bd8c 38 .cfa: sp 0 + .ra: lr
STACK CFI 2bd90 .cfa: sp 8 + .ra: .cfa -4 + ^ r11: .cfa -8 + ^
STACK CFI 2bd94 .cfa: r11 8 +
STACK CFI INIT 2bdc4 20 .cfa: sp 0 + .ra: lr
STACK CFI 2bdc8 .cfa: sp 8 + .ra: .cfa -4 + ^ r11: .cfa -8 + ^
STACK CFI 2bdcc .cfa: r11 8 +
STACK CFI INIT 2bde4 7c .cfa: sp 0 + .ra: lr
STACK CFI 2bde8 .cfa: sp 8 + .ra: .cfa -4 + ^ r11: .cfa -8 + ^
STACK CFI 2bdec .cfa: r11 8 +
STACK CFI INIT 2be60 14 .cfa: sp 0 + .ra: lr
STACK CFI 2be64 .cfa: sp 4 +
STACK CFI INIT 2be74 c0 .cfa: sp 0 + .ra: lr
STACK CFI 2be78 .cfa: sp 8 + .ra: .cfa -4 + ^ r11: .cfa -8 + ^
STACK CFI 2be7c .cfa: r11 8 +
STACK CFI INIT 2bf34 20 .cfa: sp 0 + .ra: lr
STACK CFI 2bf38 .cfa: sp 8 + .ra: .cfa -4 + ^ r11: .cfa -8 + ^
STACK CFI 2bf3c .cfa: r11 8 +
STACK CFI INIT 2bf54 38 .cfa: sp 0 + .ra: lr
STACK CFI 2bf58 .cfa: sp 8 + .ra: .cfa -4 + ^ r11: .cfa -8 + ^
STACK CFI 2bf5c .cfa: r11 8 +
STACK CFI INIT 2bf8c 20 .cfa: sp 0 + .ra: lr
STACK CFI 2bf90 .cfa: sp 8 + .ra: .cfa -4 + ^ r11: .cfa -8 + ^
STACK CFI 2bf94 .cfa: r11 8 +
STACK CFI INIT 2bfac 5c .cfa: sp 0 + .ra: lr
STACK CFI 2bfb0 .cfa: sp 8 + .ra: .cfa -4 + ^ r11: .cfa -8 + ^
STACK CFI 2bfb4 .cfa: r11 8 +
STACK CFI INIT 2c008 24 .cfa: sp 0 + .ra: lr
STACK CFI 2c00c .cfa: sp 8 +
STACK CFI INIT 2c02c 74 .cfa: sp 0 + .ra: lr
STACK CFI 2c030 .cfa: sp 8 + .ra: .cfa -4 + ^ r11: .cfa -8 + ^
STACK CFI 2c034 .cfa: r11 8 +
STACK CFI INIT 2c0a0 14 .cfa: sp 0 + .ra: lr
STACK CFI 2c0a4 .cfa: sp 4 +
STACK CFI INIT 2c0b4 64 .cfa: sp 0 + .ra: lr
STACK CFI 2c0b8 .cfa: sp 8 + .ra: .cfa -4 + ^ r11: .cfa -8 + ^
STACK CFI 2c0bc .cfa: r11 8 +
STACK CFI INIT 2c118 28 .cfa: sp 0 + .ra: lr
STACK CFI 2c11c .cfa: sp 12 +
STACK CFI INIT 2c140 54 .cfa: sp 0 + .ra: lr
STACK CFI 2c144 .cfa: sp 8 + .ra: .cfa -4 + ^ r11: .cfa -8 + ^
STACK CFI 2c148 .cfa: r11 8 +
STACK CFI INIT 2c194 54 .cfa: sp 0 + .ra: lr
STACK CFI 2c198 .cfa: sp 8 + .ra: .cfa -4 + ^ r11: .cfa -8 + ^
STACK CFI 2c19c .cfa: r11 8 +
STACK CFI INIT 2c1e8 14 .cfa: sp 0 + .ra: lr
STACK CFI 2c1ec .cfa: sp 4 +
STACK CFI INIT 2c1fc 40 .cfa: sp 0 + .ra: lr
STACK CFI 2c200 .cfa: sp 8 + .ra: .cfa -4 + ^ r11: .cfa -8 + ^
STACK CFI 2c204 .cfa: r11 8 +
STACK CFI INIT 2c23c 38 .cfa: sp 0 + .ra: lr
STACK CFI 2c240 .cfa: sp 8 + .ra: .cfa -4 + ^ r11: .cfa -8 + ^
STACK CFI 2c244 .cfa: r11 8 +
STACK CFI INIT 2c274 68 .cfa: sp 0 + .ra: lr
STACK CFI 2c278 .cfa: sp 8 + .ra: .cfa -4 + ^ r11: .cfa -8 + ^
STACK CFI 2c27c .cfa: r11 8 +
STACK CFI INIT 2c2dc 48 .cfa: sp 0 + .ra: lr
STACK CFI 2c2e0 .cfa: sp 8 + .ra: .cfa -4 + ^ r11: .cfa -8 + ^
STACK CFI 2c2e4 .cfa: r11 8 +
STACK CFI INIT 2c324 38 .cfa: sp 0 + .ra: lr
STACK CFI 2c328 .cfa: sp 8 + .ra: .cfa -4 + ^ r11: .cfa -8 + ^
STACK CFI 2c32c .cfa: r11 8 +
STACK CFI INIT 2c35c 20 .cfa: sp 0 + .ra: lr
STACK CFI 2c360 .cfa: sp 8 +
STACK CFI INIT 2c37c 14 .cfa: sp 0 + .ra: lr
STACK CFI 2c380 .cfa: sp 4 +
STACK CFI INIT 2c390 138 .cfa: sp 0 + .ra: lr
STACK CFI 2c394 .cfa: sp 8 + .ra: .cfa -4 + ^ r11: .cfa -8 + ^
STACK CFI 2c398 .cfa: r11 8 +
STACK CFI INIT 23864 44 .cfa: sp 0 + .ra: lr
STACK CFI 23868 .cfa: sp 8 + .ra: .cfa -4 + ^ r11: .cfa -8 + ^
STACK CFI 2386c .cfa: r11 8 +
STACK CFI INIT 2c4c8 b8 .cfa: sp 0 + .ra: lr
STACK CFI 2c4cc .cfa: sp 8 + .ra: .cfa -4 + ^ r11: .cfa -8 + ^
STACK CFI 2c4d0 .cfa: r11 8 +
STACK CFI INIT 2c580 b8 .cfa: sp 0 + .ra: lr
STACK CFI 2c584 .cfa: sp 8 + .ra: .cfa -4 + ^ r11: .cfa -8 + ^
STACK CFI 2c588 .cfa: r11 8 +
STACK CFI INIT 2c638 b8 .cfa: sp 0 + .ra: lr
STACK CFI 2c63c .cfa: sp 8 + .ra: .cfa -4 + ^ r11: .cfa -8 + ^
STACK CFI 2c640 .cfa: r11 8 +
STACK CFI INIT 2c6f0 ac .cfa: sp 0 + .ra: lr
STACK CFI 2c6f4 .cfa: sp 8 + .ra: .cfa -4 + ^ r11: .cfa -8 + ^
STACK CFI 2c6f8 .cfa: r11 8 +
STACK CFI INIT 2c79c 88 .cfa: sp 0 + .ra: lr
STACK CFI 2c7a0 .cfa: sp 8 + .ra: .cfa -4 + ^ r11: .cfa -8 + ^
STACK CFI 2c7a4 .cfa: r11 8 +
STACK CFI INIT 2c824 38 .cfa: sp 0 + .ra: lr
STACK CFI 2c828 .cfa: sp 8 + .ra: .cfa -4 + ^ r11: .cfa -8 + ^
STACK CFI 2c82c .cfa: r11 8 +
STACK CFI INIT 2c85c 38 .cfa: sp 0 + .ra: lr
STACK CFI 2c860 .cfa: sp 8 + .ra: .cfa -4 + ^ r11: .cfa -8 + ^
STACK CFI 2c864 .cfa: r11 8 +
STACK CFI INIT 2c894 38 .cfa: sp 0 + .ra: lr
STACK CFI 2c898 .cfa: sp 8 + .ra: .cfa -4 + ^ r11: .cfa -8 + ^
STACK CFI 2c89c .cfa: r11 8 +
STACK CFI INIT 23d8c 28 .cfa: sp 0 + .ra: lr
STACK CFI 23d90 .cfa: sp 8 + .ra: .cfa -4 + ^ r11: .cfa -8 + ^
STACK CFI 23d94 .cfa: r11 8 +
STACK CFI INIT 2c8cc 34 .cfa: sp 0 + .ra: lr
STACK CFI 2c8d0 .cfa: sp 8 + .ra: .cfa -4 + ^ r11: .cfa -8 + ^
STACK CFI 2c8d4 .cfa: r11 8 +
STACK CFI INIT 2c900 70 .cfa: sp 0 + .ra: lr
STACK CFI 2c904 .cfa: sp 8 + .ra: .cfa -4 + ^ r11: .cfa -8 + ^
STACK CFI 2c908 .cfa: r11 8 +
STACK CFI INIT 2c970 18c .cfa: sp 0 + .ra: lr
STACK CFI 2c974 .cfa: sp 16 + .ra: .cfa -4 + ^ r11: .cfa -8 + ^ r4: .cfa -16 + ^ r5: .cfa -12 + ^
STACK CFI 2c978 .cfa: r11 8 +
STACK CFI INIT 2cafc 28 .cfa: sp 0 + .ra: lr
STACK CFI 2cb00 .cfa: sp 8 + .ra: .cfa -4 + ^ r11: .cfa -8 + ^
STACK CFI 2cb04 .cfa: r11 8 +
STACK CFI INIT 2cb24 148 .cfa: sp 0 + .ra: lr
STACK CFI 2cb28 .cfa: sp 8 + .ra: .cfa -4 + ^ r11: .cfa -8 + ^
STACK CFI 2cb2c .cfa: r11 8 +
STACK CFI INIT 2cc6c 30c .cfa: sp 0 + .ra: lr
STACK CFI 2cc70 .cfa: sp 16 + .ra: .cfa -4 + ^ r11: .cfa -8 + ^ r4: .cfa -16 + ^ r5: .cfa -12 + ^
STACK CFI 2cc74 .cfa: r11 8 +
STACK CFI INIT 2962c 3c .cfa: sp 0 + .ra: lr
STACK CFI 29630 .cfa: sp 8 + .ra: .cfa -4 + ^ r11: .cfa -8 + ^
STACK CFI 29634 .cfa: r11 8 +
STACK CFI INIT 2cf78 44 .cfa: sp 0 + .ra: lr
STACK CFI 2cf7c .cfa: sp 8 + .ra: .cfa -4 + ^ r11: .cfa -8 + ^
STACK CFI 2cf80 .cfa: r11 8 +
STACK CFI INIT 2cfbc 6c .cfa: sp 0 + .ra: lr
STACK CFI 2cfc0 .cfa: sp 8 + .ra: .cfa -4 + ^ r11: .cfa -8 + ^
STACK CFI 2cfc4 .cfa: r11 8 +
STACK CFI INIT 238a8 19c .cfa: sp 0 + .ra: lr
STACK CFI 238ac .cfa: sp 8 + .ra: .cfa -4 + ^ r11: .cfa -8 + ^
STACK CFI 238b0 .cfa: r11 8 +
STACK CFI INIT 2d028 80 .cfa: sp 0 + .ra: lr
STACK CFI 2d02c .cfa: sp 8 + .ra: .cfa -4 + ^ r11: .cfa -8 + ^
STACK CFI 2d030 .cfa: r11 8 +
STACK CFI INIT 2d0a8 254 .cfa: sp 0 + .ra: lr
STACK CFI 2d0ac .cfa: sp 16 + .ra: .cfa -4 + ^ r11: .cfa -8 + ^ r4: .cfa -16 + ^ r5: .cfa -12 + ^
STACK CFI 2d0b0 .cfa: r11 8 +
STACK CFI INIT 2d2fc 20 .cfa: sp 0 + .ra: lr
STACK CFI 2d300 .cfa: sp 8 + .ra: .cfa -4 + ^ r11: .cfa -8 + ^
STACK CFI 2d304 .cfa: r11 8 +
STACK CFI INIT 2d31c 20 .cfa: sp 0 + .ra: lr
STACK CFI 2d320 .cfa: sp 8 + .ra: .cfa -4 + ^ r11: .cfa -8 + ^
STACK CFI 2d324 .cfa: r11 8 +
STACK CFI INIT 2d33c 30 .cfa: sp 0 + .ra: lr
STACK CFI 2d340 .cfa: sp 16 +
STACK CFI INIT 2d36c 184 .cfa: sp 0 + .ra: lr
STACK CFI 2d370 .cfa: sp 8 + .ra: .cfa -4 + ^ r11: .cfa -8 + ^
STACK CFI 2d374 .cfa: r11 8 +
STACK CFI INIT 2d4f0 13c .cfa: sp 0 + .ra: lr
STACK CFI 2d4f4 .cfa: sp 16 + .ra: .cfa -4 + ^ r11: .cfa -8 + ^ r4: .cfa -16 + ^ r5: .cfa -12 + ^
STACK CFI 2d4f8 .cfa: r11 8 +
STACK CFI INIT 2d62c 9c .cfa: sp 0 + .ra: lr
STACK CFI 2d630 .cfa: sp 8 + .ra: .cfa -4 + ^ r11: .cfa -8 + ^
STACK CFI 2d634 .cfa: r11 8 +
STACK CFI INIT 2d6c8 9c .cfa: sp 0 + .ra: lr
STACK CFI 2d6cc .cfa: sp 8 + .ra: .cfa -4 + ^ r11: .cfa -8 + ^
STACK CFI 2d6d0 .cfa: r11 8 +
STACK CFI INIT 2d764 30 .cfa: sp 0 + .ra: lr
STACK CFI 2d768 .cfa: sp 16 +
STACK CFI INIT 2d794 7c .cfa: sp 0 + .ra: lr
STACK CFI 2d798 .cfa: sp 8 + .ra: .cfa -4 + ^ r11: .cfa -8 + ^
STACK CFI 2d79c .cfa: r11 8 +
STACK CFI INIT 2d810 578 .cfa: sp 0 + .ra: lr
STACK CFI 2d814 .cfa: sp 16 + .ra: .cfa -4 + ^ r11: .cfa -8 + ^ r4: .cfa -16 + ^ r5: .cfa -12 + ^
STACK CFI 2d818 .cfa: r11 8 +
STACK CFI INIT 2dd88 28 .cfa: sp 0 + .ra: lr
STACK CFI 2dd8c .cfa: sp 8 + .ra: .cfa -4 + ^ r11: .cfa -8 + ^
STACK CFI 2dd90 .cfa: r11 8 +
STACK CFI INIT 2ddb0 30 .cfa: sp 0 + .ra: lr
STACK CFI 2ddb4 .cfa: sp 8 +
STACK CFI INIT 2dde0 250 .cfa: sp 0 + .ra: lr
STACK CFI 2dde4 .cfa: sp 8 + .ra: .cfa -4 + ^ r11: .cfa -8 + ^
STACK CFI 2dde8 .cfa: r11 8 +
STACK CFI INIT 2e030 88 .cfa: sp 0 + .ra: lr
STACK CFI 2e034 .cfa: sp 8 + .ra: .cfa -4 + ^ r11: .cfa -8 + ^
STACK CFI 2e038 .cfa: r11 8 +
STACK CFI INIT 2e0b8 84 .cfa: sp 0 + .ra: lr
STACK CFI 2e0bc .cfa: sp 8 + .ra: .cfa -4 + ^ r11: .cfa -8 + ^
STACK CFI 2e0c0 .cfa: r11 8 +
STACK CFI INIT 2e13c a0 .cfa: sp 0 + .ra: lr
STACK CFI 2e140 .cfa: sp 8 + .ra: .cfa -4 + ^ r11: .cfa -8 + ^
STACK CFI 2e144 .cfa: r11 8 +
STACK CFI INIT 2e1dc ac .cfa: sp 0 + .ra: lr
STACK CFI 2e1e0 .cfa: sp 8 + .ra: .cfa -4 + ^ r11: .cfa -8 + ^
STACK CFI 2e1e4 .cfa: r11 8 +
STACK CFI INIT 2e288 68 .cfa: sp 0 + .ra: lr
STACK CFI 2e28c .cfa: sp 8 + .ra: .cfa -4 + ^ r11: .cfa -8 + ^
STACK CFI 2e290 .cfa: r11 8 +
STACK CFI INIT 2e2f0 94 .cfa: sp 0 + .ra: lr
STACK CFI 2e2f4 .cfa: sp 8 + .ra: .cfa -4 + ^ r11: .cfa -8 + ^
STACK CFI 2e2f8 .cfa: r11 8 +
STACK CFI INIT 2e384 18c .cfa: sp 0 + .ra: lr
STACK CFI 2e388 .cfa: sp 24 + .ra: .cfa -4 + ^ r10: .cfa -12 + ^ r11: .cfa -8 + ^ r4: .cfa -24 + ^ r5: .cfa -20 + ^ r6: .cfa -16 + ^
STACK CFI 2e38c .cfa: r11 8 +
STACK CFI INIT 2e510 134 .cfa: sp 0 + .ra: lr
STACK CFI 2e514 .cfa: sp 16 + .ra: .cfa -4 + ^ r10: .cfa -12 + ^ r11: .cfa -8 + ^ r4: .cfa -16 + ^
STACK CFI 2e518 .cfa: r11 8 +
STACK CFI INIT 2e644 e8 .cfa: sp 0 + .ra: lr
STACK CFI 2e648 .cfa: sp 16 + .ra: .cfa -4 + ^ r11: .cfa -8 + ^ r4: .cfa -16 + ^ r5: .cfa -12 + ^
STACK CFI 2e64c .cfa: r11 8 +
STACK CFI INIT 2e72c f4 .cfa: sp 0 + .ra: lr
STACK CFI 2e730 .cfa: sp 8 + .ra: .cfa -4 + ^ r11: .cfa -8 + ^
STACK CFI 2e734 .cfa: r11 8 +
STACK CFI INIT 2e820 8 .cfa: sp 0 + .ra: lr
STACK CFI INIT 2e828 108 .cfa: sp 0 + .ra: lr
STACK CFI 2e82c .cfa: sp 8 + .ra: .cfa -4 + ^ r11: .cfa -8 + ^
STACK CFI 2e830 .cfa: r11 8 +
STACK CFI INIT 29668 30 .cfa: sp 0 + .ra: lr
STACK CFI 2966c .cfa: sp 16 +
STACK CFI INIT 2e930 30 .cfa: sp 0 + .ra: lr
STACK CFI 2e934 .cfa: sp 8 + .ra: .cfa -4 + ^ r11: .cfa -8 + ^
STACK CFI 2e938 .cfa: r11 8 +
STACK CFI INIT 2e960 8c .cfa: sp 0 + .ra: lr
STACK CFI 2e964 .cfa: sp 8 + .ra: .cfa -4 + ^ r11: .cfa -8 + ^
STACK CFI 2e968 .cfa: r11 8 +
STACK CFI INIT 2e9ec 68 .cfa: sp 0 + .ra: lr
STACK CFI 2e9f0 .cfa: sp 8 + .ra: .cfa -4 + ^ r11: .cfa -8 + ^
STACK CFI 2e9f4 .cfa: r11 8 +
STACK CFI INIT 2ea54 68 .cfa: sp 0 + .ra: lr
STACK CFI 2ea58 .cfa: sp 8 + .ra: .cfa -4 + ^ r11: .cfa -8 + ^
STACK CFI 2ea5c .cfa: r11 8 +
STACK CFI INIT 2eabc 14 .cfa: sp 0 + .ra: lr
STACK CFI 2eac0 .cfa: sp 4 +
STACK CFI INIT 2ead0 78 .cfa: sp 0 + .ra: lr
STACK CFI 2ead4 .cfa: sp 8 + .ra: .cfa -4 + ^ r11: .cfa -8 + ^
STACK CFI 2ead8 .cfa: r11 8 +
STACK CFI INIT 2eb48 28 .cfa: sp 0 + .ra: lr
STACK CFI 2eb4c .cfa: sp 8 + .ra: .cfa -4 + ^ r11: .cfa -8 + ^
STACK CFI 2eb50 .cfa: r11 8 +
STACK CFI INIT 2eb70 14 .cfa: sp 0 + .ra: lr
STACK CFI 2eb74 .cfa: sp 4 +
STACK CFI INIT 2eb84 28 .cfa: sp 0 + .ra: lr
STACK CFI 2eb88 .cfa: sp 8 + .ra: .cfa -4 + ^ r11: .cfa -8 + ^
STACK CFI 2eb8c .cfa: r11 8 +
STACK CFI INIT 2ebac 14 .cfa: sp 0 + .ra: lr
STACK CFI 2ebb0 .cfa: sp 8 +
STACK CFI INIT 2ebc0 48 .cfa: sp 0 + .ra: lr
STACK CFI 2ebc4 .cfa: sp 8 + .ra: .cfa -4 + ^ r11: .cfa -8 + ^
STACK CFI 2ebc8 .cfa: r11 8 +
STACK CFI INIT 2ec08 38 .cfa: sp 0 + .ra: lr
STACK CFI 2ec0c .cfa: sp 8 + .ra: .cfa -4 + ^ r11: .cfa -8 + ^
STACK CFI 2ec10 .cfa: r11 8 +
STACK CFI INIT 2ec40 30 .cfa: sp 0 + .ra: lr
STACK CFI 2ec44 .cfa: sp 8 + .ra: .cfa -4 + ^ r11: .cfa -8 + ^
STACK CFI 2ec48 .cfa: r11 8 +
STACK CFI INIT 2ec70 18 .cfa: sp 0 + .ra: lr
STACK CFI 2ec74 .cfa: sp 12 +
STACK CFI INIT 2ec88 38 .cfa: sp 0 + .ra: lr
STACK CFI 2ec8c .cfa: sp 8 + .ra: .cfa -4 + ^ r11: .cfa -8 + ^
STACK CFI 2ec90 .cfa: r11 8 +
STACK CFI INIT 2ecc0 14 .cfa: sp 0 + .ra: lr
STACK CFI 2ecc4 .cfa: sp 4 +
STACK CFI INIT 2ecd4 68 .cfa: sp 0 + .ra: lr
STACK CFI 2ecd8 .cfa: sp 8 + .ra: .cfa -4 + ^ r11: .cfa -8 + ^
STACK CFI 2ecdc .cfa: r11 8 +
STACK CFI INIT 2ed3c 68 .cfa: sp 0 + .ra: lr
STACK CFI 2ed40 .cfa: sp 8 + .ra: .cfa -4 + ^ r11: .cfa -8 + ^
STACK CFI 2ed44 .cfa: r11 8 +
STACK CFI INIT 2eda4 14 .cfa: sp 0 + .ra: lr
STACK CFI 2eda8 .cfa: sp 4 +
STACK CFI INIT 2edb8 78 .cfa: sp 0 + .ra: lr
STACK CFI 2edbc .cfa: sp 8 + .ra: .cfa -4 + ^ r11: .cfa -8 + ^
STACK CFI 2edc0 .cfa: r11 8 +
STACK CFI INIT 2ee30 28 .cfa: sp 0 + .ra: lr
STACK CFI 2ee34 .cfa: sp 8 + .ra: .cfa -4 + ^ r11: .cfa -8 + ^
STACK CFI 2ee38 .cfa: r11 8 +
STACK CFI INIT 2ee58 14 .cfa: sp 0 + .ra: lr
STACK CFI 2ee5c .cfa: sp 4 +
STACK CFI INIT 2ee6c 28 .cfa: sp 0 + .ra: lr
STACK CFI 2ee70 .cfa: sp 8 + .ra: .cfa -4 + ^ r11: .cfa -8 + ^
STACK CFI 2ee74 .cfa: r11 8 +
STACK CFI INIT 2ee94 14 .cfa: sp 0 + .ra: lr
STACK CFI 2ee98 .cfa: sp 8 +
STACK CFI INIT 2eea8 48 .cfa: sp 0 + .ra: lr
STACK CFI 2eeac .cfa: sp 8 + .ra: .cfa -4 + ^ r11: .cfa -8 + ^
STACK CFI 2eeb0 .cfa: r11 8 +
STACK CFI INIT 2eef0 38 .cfa: sp 0 + .ra: lr
STACK CFI 2eef4 .cfa: sp 8 + .ra: .cfa -4 + ^ r11: .cfa -8 + ^
STACK CFI 2eef8 .cfa: r11 8 +
STACK CFI INIT 2ef28 30 .cfa: sp 0 + .ra: lr
STACK CFI 2ef2c .cfa: sp 8 + .ra: .cfa -4 + ^ r11: .cfa -8 + ^
STACK CFI 2ef30 .cfa: r11 8 +
STACK CFI INIT 2ef58 18 .cfa: sp 0 + .ra: lr
STACK CFI 2ef5c .cfa: sp 12 +
STACK CFI INIT 2ef70 38 .cfa: sp 0 + .ra: lr
STACK CFI 2ef74 .cfa: sp 8 + .ra: .cfa -4 + ^ r11: .cfa -8 + ^
STACK CFI 2ef78 .cfa: r11 8 +
STACK CFI INIT 2efa8 14 .cfa: sp 0 + .ra: lr
STACK CFI 2efac .cfa: sp 4 +
STACK CFI INIT 2efbc 68 .cfa: sp 0 + .ra: lr
STACK CFI 2efc0 .cfa: sp 8 + .ra: .cfa -4 + ^ r11: .cfa -8 + ^
STACK CFI 2efc4 .cfa: r11 8 +
STACK CFI INIT 2f024 68 .cfa: sp 0 + .ra: lr
STACK CFI 2f028 .cfa: sp 8 + .ra: .cfa -4 + ^ r11: .cfa -8 + ^
STACK CFI 2f02c .cfa: r11 8 +
STACK CFI INIT 2f08c 14 .cfa: sp 0 + .ra: lr
STACK CFI 2f090 .cfa: sp 4 +
STACK CFI INIT 2f0a0 78 .cfa: sp 0 + .ra: lr
STACK CFI 2f0a4 .cfa: sp 8 + .ra: .cfa -4 + ^ r11: .cfa -8 + ^
STACK CFI 2f0a8 .cfa: r11 8 +
STACK CFI INIT 2f118 28 .cfa: sp 0 + .ra: lr
STACK CFI 2f11c .cfa: sp 8 + .ra: .cfa -4 + ^ r11: .cfa -8 + ^
STACK CFI 2f120 .cfa: r11 8 +
STACK CFI INIT 2f140 14 .cfa: sp 0 + .ra: lr
STACK CFI 2f144 .cfa: sp 4 +
STACK CFI INIT 2f154 28 .cfa: sp 0 + .ra: lr
STACK CFI 2f158 .cfa: sp 8 + .ra: .cfa -4 + ^ r11: .cfa -8 + ^
STACK CFI 2f15c .cfa: r11 8 +
STACK CFI INIT 2f17c 14 .cfa: sp 0 + .ra: lr
STACK CFI 2f180 .cfa: sp 8 +
STACK CFI INIT 2f190 48 .cfa: sp 0 + .ra: lr
STACK CFI 2f194 .cfa: sp 8 + .ra: .cfa -4 + ^ r11: .cfa -8 + ^
STACK CFI 2f198 .cfa: r11 8 +
STACK CFI INIT 2f1d8 38 .cfa: sp 0 + .ra: lr
STACK CFI 2f1dc .cfa: sp 8 + .ra: .cfa -4 + ^ r11: .cfa -8 + ^
STACK CFI 2f1e0 .cfa: r11 8 +
STACK CFI INIT 2f210 30 .cfa: sp 0 + .ra: lr
STACK CFI 2f214 .cfa: sp 8 + .ra: .cfa -4 + ^ r11: .cfa -8 + ^
STACK CFI 2f218 .cfa: r11 8 +
STACK CFI INIT 2f240 18 .cfa: sp 0 + .ra: lr
STACK CFI 2f244 .cfa: sp 12 +
STACK CFI INIT 2f258 38 .cfa: sp 0 + .ra: lr
STACK CFI 2f25c .cfa: sp 8 + .ra: .cfa -4 + ^ r11: .cfa -8 + ^
STACK CFI 2f260 .cfa: r11 8 +
STACK CFI INIT 2f290 14 .cfa: sp 0 + .ra: lr
STACK CFI 2f294 .cfa: sp 4 +
STACK CFI INIT 25238 70 .cfa: sp 0 + .ra: lr
STACK CFI 2523c .cfa: sp 8 + .ra: .cfa -4 + ^ r11: .cfa -8 + ^
STACK CFI 25240 .cfa: r11 8 +
STACK CFI INIT 2f2a4 8c .cfa: sp 0 + .ra: lr
STACK CFI 2f2a8 .cfa: sp 8 + .ra: .cfa -4 + ^ r11: .cfa -8 + ^
STACK CFI 2f2ac .cfa: r11 8 +
STACK CFI INIT 24f10 e8 .cfa: sp 0 + .ra: lr
STACK CFI 24f14 .cfa: sp 24 + .ra: .cfa -4 + ^ r10: .cfa -12 + ^ r11: .cfa -8 + ^ r4: .cfa -24 + ^ r5: .cfa -20 + ^ r6: .cfa -16 + ^
STACK CFI 24f18 .cfa: r11 8 +
STACK CFI INIT 2f330 c0 .cfa: sp 0 + .ra: lr
STACK CFI 2f334 .cfa: sp 16 + .ra: .cfa -4 + ^ r11: .cfa -8 + ^ r4: .cfa -16 + ^ r5: .cfa -12 + ^
STACK CFI 2f338 .cfa: r11 8 +
STACK CFI INIT 2f3f0 d4 .cfa: sp 0 + .ra: lr
STACK CFI 2f3f4 .cfa: sp 16 + .ra: .cfa -4 + ^ r11: .cfa -8 + ^ r4: .cfa -16 + ^ r5: .cfa -12 + ^
STACK CFI 2f3f8 .cfa: r11 8 +
STACK CFI INIT 2f4c4 18 .cfa: sp 0 + .ra: lr
STACK CFI 2f4c8 .cfa: sp 4 +
STACK CFI INIT 2f4dc 18 .cfa: sp 0 + .ra: lr
STACK CFI 2f4e0 .cfa: sp 4 +
STACK CFI INIT 2f4f4 258 .cfa: sp 0 + .ra: lr
STACK CFI 2f4f8 .cfa: sp 8 + .ra: .cfa -4 + ^ r11: .cfa -8 + ^
STACK CFI 2f4fc .cfa: r11 8 +
STACK CFI INIT 2f74c 50 .cfa: sp 0 + .ra: lr
STACK CFI 2f750 .cfa: sp 8 + .ra: .cfa -4 + ^ r11: .cfa -8 + ^
STACK CFI 2f754 .cfa: r11 8 +
STACK CFI INIT 2f79c 44 .cfa: sp 0 + .ra: lr
STACK CFI 2f7a0 .cfa: sp 8 + .ra: .cfa -4 + ^ r11: .cfa -8 + ^
STACK CFI 2f7a4 .cfa: r11 8 +
STACK CFI INIT 2f7e0 38 .cfa: sp 0 + .ra: lr
STACK CFI 2f7e4 .cfa: sp 8 + .ra: .cfa -4 + ^ r11: .cfa -8 + ^
STACK CFI 2f7e8 .cfa: r11 8 +
STACK CFI INIT 2f818 140 .cfa: sp 0 + .ra: lr
STACK CFI 2f81c .cfa: sp 8 + .ra: .cfa -4 + ^ r11: .cfa -8 + ^
STACK CFI 2f820 .cfa: r11 8 +
STACK CFI INIT 2f958 38 .cfa: sp 0 + .ra: lr
STACK CFI 2f95c .cfa: sp 8 + .ra: .cfa -4 + ^ r11: .cfa -8 + ^
STACK CFI 2f960 .cfa: r11 8 +
STACK CFI INIT 2f990 14 .cfa: sp 0 + .ra: lr
STACK CFI 2f994 .cfa: sp 4 +
STACK CFI INIT 2f9a4 38 .cfa: sp 0 + .ra: lr
STACK CFI 2f9a8 .cfa: sp 8 + .ra: .cfa -4 + ^ r11: .cfa -8 + ^
STACK CFI 2f9ac .cfa: r11 8 +
STACK CFI INIT 2f9dc 54 .cfa: sp 0 + .ra: lr
STACK CFI 2f9e0 .cfa: sp 8 + .ra: .cfa -4 + ^ r11: .cfa -8 + ^
STACK CFI 2f9e4 .cfa: r11 8 +
STACK CFI INIT 2fa30 60 .cfa: sp 0 + .ra: lr
STACK CFI 2fa34 .cfa: sp 8 + .ra: .cfa -4 + ^ r11: .cfa -8 + ^
STACK CFI 2fa38 .cfa: r11 8 +
STACK CFI INIT 2fa90 44 .cfa: sp 0 + .ra: lr
STACK CFI 2fa94 .cfa: sp 8 + .ra: .cfa -4 + ^ r11: .cfa -8 + ^
STACK CFI 2fa98 .cfa: r11 8 +
STACK CFI INIT 2fad4 18 .cfa: sp 0 + .ra: lr
STACK CFI 2fad8 .cfa: sp 8 +
STACK CFI INIT 2faec 24 .cfa: sp 0 + .ra: lr
STACK CFI 2faf0 .cfa: sp 8 + .ra: .cfa -4 + ^ r11: .cfa -8 + ^
STACK CFI 2faf4 .cfa: r11 8 +
STACK CFI INIT 2fb10 3c .cfa: sp 0 + .ra: lr
STACK CFI 2fb14 .cfa: sp 8 + .ra: .cfa -4 + ^ r11: .cfa -8 + ^
STACK CFI 2fb18 .cfa: r11 8 +
STACK CFI INIT 2fb4c 3c .cfa: sp 0 + .ra: lr
STACK CFI 2fb50 .cfa: sp 8 + .ra: .cfa -4 + ^ r11: .cfa -8 + ^
STACK CFI 2fb54 .cfa: r11 8 +
STACK CFI INIT 2fb88 b8 .cfa: sp 0 + .ra: lr
STACK CFI 2fb8c .cfa: sp 8 + .ra: .cfa -4 + ^ r11: .cfa -8 + ^
STACK CFI 2fb90 .cfa: r11 8 +
STACK CFI INIT 2fc40 74 .cfa: sp 0 + .ra: lr
STACK CFI 2fc44 .cfa: sp 8 + .ra: .cfa -4 + ^ r11: .cfa -8 + ^
STACK CFI 2fc48 .cfa: r11 8 +
STACK CFI INIT 2fcb4 24 .cfa: sp 0 + .ra: lr
STACK CFI 2fcb8 .cfa: sp 8 + .ra: .cfa -4 + ^ r11: .cfa -8 + ^
STACK CFI 2fcbc .cfa: r11 8 +
STACK CFI INIT 2fcd8 14 .cfa: sp 0 + .ra: lr
STACK CFI 2fcdc .cfa: sp 4 +
STACK CFI INIT 2fcec 24 .cfa: sp 0 + .ra: lr
STACK CFI 2fcf0 .cfa: sp 8 + .ra: .cfa -4 + ^ r11: .cfa -8 + ^
STACK CFI 2fcf4 .cfa: r11 8 +
STACK CFI INIT 2fd10 1c .cfa: sp 0 + .ra: lr
STACK CFI 2fd14 .cfa: sp 4 +
STACK CFI INIT 2fd2c 54 .cfa: sp 0 + .ra: lr
STACK CFI 2fd30 .cfa: sp 8 + .ra: .cfa -4 + ^ r11: .cfa -8 + ^
STACK CFI 2fd34 .cfa: r11 8 +
STACK CFI INIT 2fd80 d8 .cfa: sp 0 + .ra: lr
STACK CFI 2fd84 .cfa: sp 8 + .ra: .cfa -4 + ^ r11: .cfa -8 + ^
STACK CFI 2fd88 .cfa: r11 8 +
STACK CFI INIT 2fe58 2c .cfa: sp 0 + .ra: lr
STACK CFI 2fe5c .cfa: sp 8 + .ra: .cfa -4 + ^ r11: .cfa -8 + ^
STACK CFI 2fe60 .cfa: r11 8 +
STACK CFI INIT 2fe84 74 .cfa: sp 0 + .ra: lr
STACK CFI 2fe88 .cfa: sp 8 + .ra: .cfa -4 + ^ r11: .cfa -8 + ^
STACK CFI 2fe8c .cfa: r11 8 +
STACK CFI INIT 2fef8 34 .cfa: sp 0 + .ra: lr
STACK CFI 2fefc .cfa: sp 8 + .ra: .cfa -4 + ^ r11: .cfa -8 + ^
STACK CFI 2ff00 .cfa: r11 8 +
STACK CFI INIT 2ff2c 54 .cfa: sp 0 + .ra: lr
STACK CFI 2ff30 .cfa: sp 8 + .ra: .cfa -4 + ^ r11: .cfa -8 + ^
STACK CFI 2ff34 .cfa: r11 8 +
STACK CFI INIT 2ff80 24 .cfa: sp 0 + .ra: lr
STACK CFI 2ff84 .cfa: sp 8 + .ra: .cfa -4 + ^ r11: .cfa -8 + ^
STACK CFI 2ff88 .cfa: r11 8 +
STACK CFI INIT 2ffa4 20 .cfa: sp 0 + .ra: lr
STACK CFI 2ffa8 .cfa: sp 4 +
STACK CFI INIT 2ffc4 48 .cfa: sp 0 + .ra: lr
STACK CFI 2ffc8 .cfa: sp 8 + .ra: .cfa -4 + ^ r11: .cfa -8 + ^
STACK CFI 2ffcc .cfa: r11 8 +
STACK CFI INIT 3000c 18 .cfa: sp 0 + .ra: lr
STACK CFI 30010 .cfa: sp 4 +
STACK CFI INIT 30024 54 .cfa: sp 0 + .ra: lr
STACK CFI 30028 .cfa: sp 8 + .ra: .cfa -4 + ^ r11: .cfa -8 + ^
STACK CFI 3002c .cfa: r11 8 +
STACK CFI INIT 30078 14 .cfa: sp 0 + .ra: lr
STACK CFI 3007c .cfa: sp 4 +
STACK CFI INIT 3008c 40 .cfa: sp 0 + .ra: lr
STACK CFI 30090 .cfa: sp 8 + .ra: .cfa -4 + ^ r11: .cfa -8 + ^
STACK CFI 30094 .cfa: r11 8 +
STACK CFI INIT 300cc 14 .cfa: sp 0 + .ra: lr
STACK CFI 300d0 .cfa: sp 4 +
STACK CFI INIT 300e0 20 .cfa: sp 0 + .ra: lr
STACK CFI 300e4 .cfa: sp 8 +
STACK CFI INIT 30100 50 .cfa: sp 0 + .ra: lr
STACK CFI 30104 .cfa: sp 8 + .ra: .cfa -4 + ^ r11: .cfa -8 + ^
STACK CFI 30108 .cfa: r11 8 +
STACK CFI INIT 30150 44 .cfa: sp 0 + .ra: lr
STACK CFI 30154 .cfa: sp 8 + .ra: .cfa -4 + ^ r11: .cfa -8 + ^
STACK CFI 30158 .cfa: r11 8 +
STACK CFI INIT 30194 38 .cfa: sp 0 + .ra: lr
STACK CFI 30198 .cfa: sp 8 + .ra: .cfa -4 + ^ r11: .cfa -8 + ^
STACK CFI 3019c .cfa: r11 8 +
STACK CFI INIT 301cc 140 .cfa: sp 0 + .ra: lr
STACK CFI 301d0 .cfa: sp 8 + .ra: .cfa -4 + ^ r11: .cfa -8 + ^
STACK CFI 301d4 .cfa: r11 8 +
STACK CFI INIT 3030c 38 .cfa: sp 0 + .ra: lr
STACK CFI 30310 .cfa: sp 8 + .ra: .cfa -4 + ^ r11: .cfa -8 + ^
STACK CFI 30314 .cfa: r11 8 +
STACK CFI INIT 30344 14 .cfa: sp 0 + .ra: lr
STACK CFI 30348 .cfa: sp 4 +
STACK CFI INIT 30358 38 .cfa: sp 0 + .ra: lr
STACK CFI 3035c .cfa: sp 8 + .ra: .cfa -4 + ^ r11: .cfa -8 + ^
STACK CFI 30360 .cfa: r11 8 +
STACK CFI INIT 30390 54 .cfa: sp 0 + .ra: lr
STACK CFI 30394 .cfa: sp 8 + .ra: .cfa -4 + ^ r11: .cfa -8 + ^
STACK CFI 30398 .cfa: r11 8 +
STACK CFI INIT 303e4 60 .cfa: sp 0 + .ra: lr
STACK CFI 303e8 .cfa: sp 8 + .ra: .cfa -4 + ^ r11: .cfa -8 + ^
STACK CFI 303ec .cfa: r11 8 +
STACK CFI INIT 30444 44 .cfa: sp 0 + .ra: lr
STACK CFI 30448 .cfa: sp 8 + .ra: .cfa -4 + ^ r11: .cfa -8 + ^
STACK CFI 3044c .cfa: r11 8 +
STACK CFI INIT 30488 18 .cfa: sp 0 + .ra: lr
STACK CFI 3048c .cfa: sp 8 +
STACK CFI INIT 304a0 24 .cfa: sp 0 + .ra: lr
STACK CFI 304a4 .cfa: sp 8 + .ra: .cfa -4 + ^ r11: .cfa -8 + ^
STACK CFI 304a8 .cfa: r11 8 +
STACK CFI INIT 304c4 3c .cfa: sp 0 + .ra: lr
STACK CFI 304c8 .cfa: sp 8 + .ra: .cfa -4 + ^ r11: .cfa -8 + ^
STACK CFI 304cc .cfa: r11 8 +
STACK CFI INIT 30500 b8 .cfa: sp 0 + .ra: lr
STACK CFI 30504 .cfa: sp 8 + .ra: .cfa -4 + ^ r11: .cfa -8 + ^
STACK CFI 30508 .cfa: r11 8 +
STACK CFI INIT 305b8 74 .cfa: sp 0 + .ra: lr
STACK CFI 305bc .cfa: sp 8 + .ra: .cfa -4 + ^ r11: .cfa -8 + ^
STACK CFI 305c0 .cfa: r11 8 +
STACK CFI INIT 3062c 24 .cfa: sp 0 + .ra: lr
STACK CFI 30630 .cfa: sp 8 + .ra: .cfa -4 + ^ r11: .cfa -8 + ^
STACK CFI 30634 .cfa: r11 8 +
STACK CFI INIT 30650 14 .cfa: sp 0 + .ra: lr
STACK CFI 30654 .cfa: sp 4 +
STACK CFI INIT 30664 24 .cfa: sp 0 + .ra: lr
STACK CFI 30668 .cfa: sp 8 + .ra: .cfa -4 + ^ r11: .cfa -8 + ^
STACK CFI 3066c .cfa: r11 8 +
STACK CFI INIT 30688 1c .cfa: sp 0 + .ra: lr
STACK CFI 3068c .cfa: sp 4 +
STACK CFI INIT 306a4 54 .cfa: sp 0 + .ra: lr
STACK CFI 306a8 .cfa: sp 8 + .ra: .cfa -4 + ^ r11: .cfa -8 + ^
STACK CFI 306ac .cfa: r11 8 +
STACK CFI INIT 306f8 d8 .cfa: sp 0 + .ra: lr
STACK CFI 306fc .cfa: sp 8 + .ra: .cfa -4 + ^ r11: .cfa -8 + ^
STACK CFI 30700 .cfa: r11 8 +
STACK CFI INIT 307d0 2c .cfa: sp 0 + .ra: lr
STACK CFI 307d4 .cfa: sp 8 + .ra: .cfa -4 + ^ r11: .cfa -8 + ^
STACK CFI 307d8 .cfa: r11 8 +
STACK CFI INIT 307fc 74 .cfa: sp 0 + .ra: lr
STACK CFI 30800 .cfa: sp 8 + .ra: .cfa -4 + ^ r11: .cfa -8 + ^
STACK CFI 30804 .cfa: r11 8 +
STACK CFI INIT 30870 34 .cfa: sp 0 + .ra: lr
STACK CFI 30874 .cfa: sp 8 + .ra: .cfa -4 + ^ r11: .cfa -8 + ^
STACK CFI 30878 .cfa: r11 8 +
STACK CFI INIT 308a4 54 .cfa: sp 0 + .ra: lr
STACK CFI 308a8 .cfa: sp 8 + .ra: .cfa -4 + ^ r11: .cfa -8 + ^
STACK CFI 308ac .cfa: r11 8 +
STACK CFI INIT 308f8 24 .cfa: sp 0 + .ra: lr
STACK CFI 308fc .cfa: sp 8 + .ra: .cfa -4 + ^ r11: .cfa -8 + ^
STACK CFI 30900 .cfa: r11 8 +
STACK CFI INIT 3091c 20 .cfa: sp 0 + .ra: lr
STACK CFI 30920 .cfa: sp 4 +
STACK CFI INIT 3093c 48 .cfa: sp 0 + .ra: lr
STACK CFI 30940 .cfa: sp 8 + .ra: .cfa -4 + ^ r11: .cfa -8 + ^
STACK CFI 30944 .cfa: r11 8 +
STACK CFI INIT 30984 18 .cfa: sp 0 + .ra: lr
STACK CFI 30988 .cfa: sp 4 +
STACK CFI INIT 3099c 54 .cfa: sp 0 + .ra: lr
STACK CFI 309a0 .cfa: sp 8 + .ra: .cfa -4 + ^ r11: .cfa -8 + ^
STACK CFI 309a4 .cfa: r11 8 +
STACK CFI INIT 309f0 14 .cfa: sp 0 + .ra: lr
STACK CFI 309f4 .cfa: sp 4 +
STACK CFI INIT 30a04 40 .cfa: sp 0 + .ra: lr
STACK CFI 30a08 .cfa: sp 8 + .ra: .cfa -4 + ^ r11: .cfa -8 + ^
STACK CFI 30a0c .cfa: r11 8 +
STACK CFI INIT 30a44 14 .cfa: sp 0 + .ra: lr
STACK CFI 30a48 .cfa: sp 4 +
STACK CFI INIT 30a58 20 .cfa: sp 0 + .ra: lr
STACK CFI 30a5c .cfa: sp 8 +
STACK CFI INIT 30a78 50 .cfa: sp 0 + .ra: lr
STACK CFI 30a7c .cfa: sp 8 + .ra: .cfa -4 + ^ r11: .cfa -8 + ^
STACK CFI 30a80 .cfa: r11 8 +
STACK CFI INIT 30ac8 44 .cfa: sp 0 + .ra: lr
STACK CFI 30acc .cfa: sp 8 + .ra: .cfa -4 + ^ r11: .cfa -8 + ^
STACK CFI 30ad0 .cfa: r11 8 +
STACK CFI INIT 30b0c 38 .cfa: sp 0 + .ra: lr
STACK CFI 30b10 .cfa: sp 8 + .ra: .cfa -4 + ^ r11: .cfa -8 + ^
STACK CFI 30b14 .cfa: r11 8 +
STACK CFI INIT 30b44 140 .cfa: sp 0 + .ra: lr
STACK CFI 30b48 .cfa: sp 8 + .ra: .cfa -4 + ^ r11: .cfa -8 + ^
STACK CFI 30b4c .cfa: r11 8 +
STACK CFI INIT 30c84 38 .cfa: sp 0 + .ra: lr
STACK CFI 30c88 .cfa: sp 8 + .ra: .cfa -4 + ^ r11: .cfa -8 + ^
STACK CFI 30c8c .cfa: r11 8 +
STACK CFI INIT 30cbc 14 .cfa: sp 0 + .ra: lr
STACK CFI 30cc0 .cfa: sp 4 +
STACK CFI INIT 30cd0 38 .cfa: sp 0 + .ra: lr
STACK CFI 30cd4 .cfa: sp 8 + .ra: .cfa -4 + ^ r11: .cfa -8 + ^
STACK CFI 30cd8 .cfa: r11 8 +
STACK CFI INIT 30d08 54 .cfa: sp 0 + .ra: lr
STACK CFI 30d0c .cfa: sp 8 + .ra: .cfa -4 + ^ r11: .cfa -8 + ^
STACK CFI 30d10 .cfa: r11 8 +
STACK CFI INIT 30d5c 60 .cfa: sp 0 + .ra: lr
STACK CFI 30d60 .cfa: sp 8 + .ra: .cfa -4 + ^ r11: .cfa -8 + ^
STACK CFI 30d64 .cfa: r11 8 +
STACK CFI INIT 30dbc 44 .cfa: sp 0 + .ra: lr
STACK CFI 30dc0 .cfa: sp 8 + .ra: .cfa -4 + ^ r11: .cfa -8 + ^
STACK CFI 30dc4 .cfa: r11 8 +
STACK CFI INIT 30e00 18 .cfa: sp 0 + .ra: lr
STACK CFI 30e04 .cfa: sp 8 +
STACK CFI INIT 30e18 24 .cfa: sp 0 + .ra: lr
STACK CFI 30e1c .cfa: sp 8 + .ra: .cfa -4 + ^ r11: .cfa -8 + ^
STACK CFI 30e20 .cfa: r11 8 +
STACK CFI INIT 30e3c 3c .cfa: sp 0 + .ra: lr
STACK CFI 30e40 .cfa: sp 8 + .ra: .cfa -4 + ^ r11: .cfa -8 + ^
STACK CFI 30e44 .cfa: r11 8 +
STACK CFI INIT 30e78 3c .cfa: sp 0 + .ra: lr
STACK CFI 30e7c .cfa: sp 8 + .ra: .cfa -4 + ^ r11: .cfa -8 + ^
STACK CFI 30e80 .cfa: r11 8 +
STACK CFI INIT 30eb4 b8 .cfa: sp 0 + .ra: lr
STACK CFI 30eb8 .cfa: sp 8 + .ra: .cfa -4 + ^ r11: .cfa -8 + ^
STACK CFI 30ebc .cfa: r11 8 +
STACK CFI INIT 30f6c 74 .cfa: sp 0 + .ra: lr
STACK CFI 30f70 .cfa: sp 8 + .ra: .cfa -4 + ^ r11: .cfa -8 + ^
STACK CFI 30f74 .cfa: r11 8 +
STACK CFI INIT 30fe0 24 .cfa: sp 0 + .ra: lr
STACK CFI 30fe4 .cfa: sp 8 + .ra: .cfa -4 + ^ r11: .cfa -8 + ^
STACK CFI 30fe8 .cfa: r11 8 +
STACK CFI INIT 31004 14 .cfa: sp 0 + .ra: lr
STACK CFI 31008 .cfa: sp 4 +
STACK CFI INIT 31018 24 .cfa: sp 0 + .ra: lr
STACK CFI 3101c .cfa: sp 8 + .ra: .cfa -4 + ^ r11: .cfa -8 + ^
STACK CFI 31020 .cfa: r11 8 +
STACK CFI INIT 3103c 1c .cfa: sp 0 + .ra: lr
STACK CFI 31040 .cfa: sp 4 +
STACK CFI INIT 31058 54 .cfa: sp 0 + .ra: lr
STACK CFI 3105c .cfa: sp 8 + .ra: .cfa -4 + ^ r11: .cfa -8 + ^
STACK CFI 31060 .cfa: r11 8 +
STACK CFI INIT 310ac d8 .cfa: sp 0 + .ra: lr
STACK CFI 310b0 .cfa: sp 8 + .ra: .cfa -4 + ^ r11: .cfa -8 + ^
STACK CFI 310b4 .cfa: r11 8 +
STACK CFI INIT 31184 2c .cfa: sp 0 + .ra: lr
STACK CFI 31188 .cfa: sp 8 + .ra: .cfa -4 + ^ r11: .cfa -8 + ^
STACK CFI 3118c .cfa: r11 8 +
STACK CFI INIT 311b0 74 .cfa: sp 0 + .ra: lr
STACK CFI 311b4 .cfa: sp 8 + .ra: .cfa -4 + ^ r11: .cfa -8 + ^
STACK CFI 311b8 .cfa: r11 8 +
STACK CFI INIT 31224 34 .cfa: sp 0 + .ra: lr
STACK CFI 31228 .cfa: sp 8 + .ra: .cfa -4 + ^ r11: .cfa -8 + ^
STACK CFI 3122c .cfa: r11 8 +
STACK CFI INIT 31258 54 .cfa: sp 0 + .ra: lr
STACK CFI 3125c .cfa: sp 8 + .ra: .cfa -4 + ^ r11: .cfa -8 + ^
STACK CFI 31260 .cfa: r11 8 +
STACK CFI INIT 312ac 24 .cfa: sp 0 + .ra: lr
STACK CFI 312b0 .cfa: sp 8 + .ra: .cfa -4 + ^ r11: .cfa -8 + ^
STACK CFI 312b4 .cfa: r11 8 +
STACK CFI INIT 312d0 20 .cfa: sp 0 + .ra: lr
STACK CFI 312d4 .cfa: sp 4 +
STACK CFI INIT 312f0 48 .cfa: sp 0 + .ra: lr
STACK CFI 312f4 .cfa: sp 8 + .ra: .cfa -4 + ^ r11: .cfa -8 + ^
STACK CFI 312f8 .cfa: r11 8 +
STACK CFI INIT 31338 18 .cfa: sp 0 + .ra: lr
STACK CFI 3133c .cfa: sp 4 +
STACK CFI INIT 31350 54 .cfa: sp 0 + .ra: lr
STACK CFI 31354 .cfa: sp 8 + .ra: .cfa -4 + ^ r11: .cfa -8 + ^
STACK CFI 31358 .cfa: r11 8 +
STACK CFI INIT 313a4 14 .cfa: sp 0 + .ra: lr
STACK CFI 313a8 .cfa: sp 4 +
STACK CFI INIT 313b8 40 .cfa: sp 0 + .ra: lr
STACK CFI 313bc .cfa: sp 8 + .ra: .cfa -4 + ^ r11: .cfa -8 + ^
STACK CFI 313c0 .cfa: r11 8 +
STACK CFI INIT 313f8 14 .cfa: sp 0 + .ra: lr
STACK CFI 313fc .cfa: sp 4 +
STACK CFI INIT 3140c 20 .cfa: sp 0 + .ra: lr
STACK CFI 31410 .cfa: sp 8 +
STACK CFI INIT 3142c 208 .cfa: sp 0 + .ra: lr
STACK CFI 31430 .cfa: sp 8 + .ra: .cfa -4 + ^ r11: .cfa -8 + ^
STACK CFI 31434 .cfa: r11 8 +
STACK CFI INIT 31634 70 .cfa: sp 0 + .ra: lr
STACK CFI 31638 .cfa: sp 8 + .ra: .cfa -4 + ^ r11: .cfa -8 + ^
STACK CFI 3163c .cfa: r11 8 +
STACK CFI INIT 316a4 7c .cfa: sp 0 + .ra: lr
STACK CFI 316a8 .cfa: sp 8 + .ra: .cfa -4 + ^ r11: .cfa -8 + ^
STACK CFI 316ac .cfa: r11 8 +
STACK CFI INIT 31720 130 .cfa: sp 0 + .ra: lr
STACK CFI 31724 .cfa: sp 8 + .ra: .cfa -4 + ^ r11: .cfa -8 + ^
STACK CFI 31728 .cfa: r11 8 +
STACK CFI INIT 31850 58 .cfa: sp 0 + .ra: lr
STACK CFI 31854 .cfa: sp 8 + .ra: .cfa -4 + ^ r11: .cfa -8 + ^
STACK CFI 31858 .cfa: r11 8 +
STACK CFI INIT 318a8 28 .cfa: sp 0 + .ra: lr
STACK CFI 318ac .cfa: sp 8 + .ra: .cfa -4 + ^ r11: .cfa -8 + ^
STACK CFI 318b0 .cfa: r11 8 +
STACK CFI INIT 318d0 28 .cfa: sp 0 + .ra: lr
STACK CFI 318d4 .cfa: sp 8 + .ra: .cfa -4 + ^ r11: .cfa -8 + ^
STACK CFI 318d8 .cfa: r11 8 +
STACK CFI INIT 318f8 20 .cfa: sp 0 + .ra: lr
STACK CFI 318fc .cfa: sp 8 +
STACK CFI INIT 25c60 44 .cfa: sp 0 + .ra: lr
STACK CFI 25c64 .cfa: sp 12 +
STACK CFI INIT 31918 50 .cfa: sp 0 + .ra: lr
STACK CFI 3191c .cfa: sp 8 + .ra: .cfa -4 + ^ r11: .cfa -8 + ^
STACK CFI 31920 .cfa: r11 8 +
STACK CFI INIT 31968 7c .cfa: sp 0 + .ra: lr
STACK CFI 3196c .cfa: sp 8 + .ra: .cfa -4 + ^ r11: .cfa -8 + ^
STACK CFI 31970 .cfa: r11 8 +
STACK CFI INIT 319e4 7c .cfa: sp 0 + .ra: lr
STACK CFI 319e8 .cfa: sp 8 + .ra: .cfa -4 + ^ r11: .cfa -8 + ^
STACK CFI 319ec .cfa: r11 8 +
STACK CFI INIT 31a60 14 .cfa: sp 0 + .ra: lr
STACK CFI 31a64 .cfa: sp 4 +
STACK CFI INIT 31a74 24 .cfa: sp 0 + .ra: lr
STACK CFI 31a78 .cfa: sp 8 +
STACK CFI INIT 31a98 78 .cfa: sp 0 + .ra: lr
STACK CFI 31a9c .cfa: sp 8 + .ra: .cfa -4 + ^ r11: .cfa -8 + ^
STACK CFI 31aa0 .cfa: r11 8 +
STACK CFI INIT 31b10 94 .cfa: sp 0 + .ra: lr
STACK CFI 31b14 .cfa: sp 8 + .ra: .cfa -4 + ^ r11: .cfa -8 + ^
STACK CFI 31b18 .cfa: r11 8 +
STACK CFI INIT 31ba4 18 .cfa: sp 0 + .ra: lr
STACK CFI 31ba8 .cfa: sp 4 +
STACK CFI INIT 31bbc 24 .cfa: sp 0 + .ra: lr
STACK CFI 31bc0 .cfa: sp 8 +
STACK CFI INIT 31be0 208 .cfa: sp 0 + .ra: lr
STACK CFI 31be4 .cfa: sp 8 + .ra: .cfa -4 + ^ r11: .cfa -8 + ^
STACK CFI 31be8 .cfa: r11 8 +
STACK CFI INIT 31de8 70 .cfa: sp 0 + .ra: lr
STACK CFI 31dec .cfa: sp 8 + .ra: .cfa -4 + ^ r11: .cfa -8 + ^
STACK CFI 31df0 .cfa: r11 8 +
STACK CFI INIT 31e58 7c .cfa: sp 0 + .ra: lr
STACK CFI 31e5c .cfa: sp 8 + .ra: .cfa -4 + ^ r11: .cfa -8 + ^
STACK CFI 31e60 .cfa: r11 8 +
STACK CFI INIT 31ed4 130 .cfa: sp 0 + .ra: lr
STACK CFI 31ed8 .cfa: sp 8 + .ra: .cfa -4 + ^ r11: .cfa -8 + ^
STACK CFI 31edc .cfa: r11 8 +
STACK CFI INIT 32004 58 .cfa: sp 0 + .ra: lr
STACK CFI 32008 .cfa: sp 8 + .ra: .cfa -4 + ^ r11: .cfa -8 + ^
STACK CFI 3200c .cfa: r11 8 +
STACK CFI INIT 3205c 28 .cfa: sp 0 + .ra: lr
STACK CFI 32060 .cfa: sp 8 + .ra: .cfa -4 + ^ r11: .cfa -8 + ^
STACK CFI 32064 .cfa: r11 8 +
STACK CFI INIT 32084 28 .cfa: sp 0 + .ra: lr
STACK CFI 32088 .cfa: sp 8 + .ra: .cfa -4 + ^ r11: .cfa -8 + ^
STACK CFI 3208c .cfa: r11 8 +
STACK CFI INIT 320ac 20 .cfa: sp 0 + .ra: lr
STACK CFI 320b0 .cfa: sp 8 +
STACK CFI INIT 320cc 54 .cfa: sp 0 + .ra: lr
STACK CFI 320d0 .cfa: sp 8 + .ra: .cfa -4 + ^ r11: .cfa -8 + ^
STACK CFI 320d4 .cfa: r11 8 +
STACK CFI INIT 32120 184 .cfa: sp 0 + .ra: lr
STACK CFI 32124 .cfa: sp 8 + .ra: .cfa -4 + ^ r11: .cfa -8 + ^
STACK CFI 32128 .cfa: r11 8 +
STACK CFI INIT 322a4 54 .cfa: sp 0 + .ra: lr
STACK CFI 322a8 .cfa: sp 8 + .ra: .cfa -4 + ^ r11: .cfa -8 + ^
STACK CFI 322ac .cfa: r11 8 +
STACK CFI INIT 322f8 14 .cfa: sp 0 + .ra: lr
STACK CFI 322fc .cfa: sp 4 +
STACK CFI INIT 3230c 40 .cfa: sp 0 + .ra: lr
STACK CFI 32310 .cfa: sp 8 + .ra: .cfa -4 + ^ r11: .cfa -8 + ^
STACK CFI 32314 .cfa: r11 8 +
STACK CFI INIT 3234c 6c .cfa: sp 0 + .ra: lr
STACK CFI 32350 .cfa: sp 8 + .ra: .cfa -4 + ^ r11: .cfa -8 + ^
STACK CFI 32354 .cfa: r11 8 +
STACK CFI INIT 323b8 198 .cfa: sp 0 + .ra: lr
STACK CFI 323bc .cfa: sp 8 + .ra: .cfa -4 + ^ r11: .cfa -8 + ^
STACK CFI 323c0 .cfa: r11 8 +
STACK CFI INIT 32550 14c .cfa: sp 0 + .ra: lr
STACK CFI 32554 .cfa: sp 16 + .ra: .cfa -4 + ^ r11: .cfa -8 + ^ r4: .cfa -16 + ^ r5: .cfa -12 + ^
STACK CFI 32558 .cfa: r11 8 +
STACK CFI INIT 3269c ac .cfa: sp 0 + .ra: lr
STACK CFI 326a0 .cfa: sp 8 + .ra: .cfa -4 + ^ r11: .cfa -8 + ^
STACK CFI 326a4 .cfa: r11 8 +
STACK CFI INIT 32748 2f0 .cfa: sp 0 + .ra: lr
STACK CFI 3274c .cfa: sp 16 + .ra: .cfa -4 + ^ r11: .cfa -8 + ^ r4: .cfa -16 + ^ r5: .cfa -12 + ^
STACK CFI 32750 .cfa: r11 8 +
STACK CFI INIT 2fb4c 3c .cfa: sp 0 + .ra: lr
STACK CFI 2fb50 .cfa: sp 8 + .ra: .cfa -4 + ^ r11: .cfa -8 + ^
STACK CFI 2fb54 .cfa: r11 8 +
STACK CFI INIT 32a38 30 .cfa: sp 0 + .ra: lr
STACK CFI 32a3c .cfa: sp 16 +
STACK CFI INIT 32a68 9c .cfa: sp 0 + .ra: lr
STACK CFI 32a6c .cfa: sp 8 + .ra: .cfa -4 + ^ r11: .cfa -8 + ^
STACK CFI 32a70 .cfa: r11 8 +
STACK CFI INIT 2dd88 28 .cfa: sp 0 + .ra: lr
STACK CFI 2dd8c .cfa: sp 8 + .ra: .cfa -4 + ^ r11: .cfa -8 + ^
STACK CFI 2dd90 .cfa: r11 8 +
STACK CFI INIT 2ddb0 30 .cfa: sp 0 + .ra: lr
STACK CFI 2ddb4 .cfa: sp 8 +
STACK CFI INIT 2dde0 250 .cfa: sp 0 + .ra: lr
STACK CFI 2dde4 .cfa: sp 8 + .ra: .cfa -4 + ^ r11: .cfa -8 + ^
STACK CFI 2dde8 .cfa: r11 8 +
STACK CFI INIT 2e13c a0 .cfa: sp 0 + .ra: lr
STACK CFI 2e140 .cfa: sp 8 + .ra: .cfa -4 + ^ r11: .cfa -8 + ^
STACK CFI 2e144 .cfa: r11 8 +
STACK CFI INIT 32b04 7c .cfa: sp 0 + .ra: lr
STACK CFI 32b08 .cfa: sp 8 + .ra: .cfa -4 + ^ r11: .cfa -8 + ^
STACK CFI 32b0c .cfa: r11 8 +
STACK CFI INIT 32b80 18 .cfa: sp 0 + .ra: lr
STACK CFI 32b84 .cfa: sp 4 +
STACK CFI INIT 32b98 190 .cfa: sp 0 + .ra: lr
STACK CFI 32b9c .cfa: sp 8 + .ra: .cfa -4 + ^ r11: .cfa -8 + ^
STACK CFI 32ba0 .cfa: r11 8 +
STACK CFI INIT 32d28 e8 .cfa: sp 0 + .ra: lr
STACK CFI 32d2c .cfa: sp 8 + .ra: .cfa -4 + ^ r11: .cfa -8 + ^
STACK CFI 32d30 .cfa: r11 8 +
STACK CFI INIT 32e10 ac .cfa: sp 0 + .ra: lr
STACK CFI 32e14 .cfa: sp 8 + .ra: .cfa -4 + ^ r11: .cfa -8 + ^
STACK CFI 32e18 .cfa: r11 8 +
STACK CFI INIT 32ebc dc .cfa: sp 0 + .ra: lr
STACK CFI 32ec0 .cfa: sp 8 + .ra: .cfa -4 + ^ r11: .cfa -8 + ^
STACK CFI 32ec4 .cfa: r11 8 +
STACK CFI INIT 32f98 4c .cfa: sp 0 + .ra: lr
STACK CFI 32f9c .cfa: sp 8 + .ra: .cfa -4 + ^ r11: .cfa -8 + ^
STACK CFI 32fa0 .cfa: r11 8 +
STACK CFI INIT 32fe4 1c0 .cfa: sp 0 + .ra: lr
STACK CFI 32fe8 .cfa: sp 16 + .ra: .cfa -4 + ^ r11: .cfa -8 + ^ r4: .cfa -16 + ^ r5: .cfa -12 + ^
STACK CFI 32fec .cfa: r11 8 +
STACK CFI INIT 331a4 28 .cfa: sp 0 + .ra: lr
STACK CFI 331a8 .cfa: sp 8 +
STACK CFI INIT 331cc 138 .cfa: sp 0 + .ra: lr
STACK CFI 331d0 .cfa: sp 8 + .ra: .cfa -4 + ^ r11: .cfa -8 + ^
STACK CFI 331d4 .cfa: r11 8 +
STACK CFI INIT 33304 68 .cfa: sp 0 + .ra: lr
STACK CFI 33308 .cfa: sp 8 + .ra: .cfa -4 + ^ r11: .cfa -8 + ^
STACK CFI 3330c .cfa: r11 8 +
STACK CFI INIT 3336c 74 .cfa: sp 0 + .ra: lr
STACK CFI 33370 .cfa: sp 8 + .ra: .cfa -4 + ^ r11: .cfa -8 + ^
STACK CFI 33374 .cfa: r11 8 +
STACK CFI INIT 283f8 38 .cfa: sp 0 + .ra: lr
STACK CFI 283fc .cfa: sp 8 + .ra: .cfa -4 + ^ r11: .cfa -8 + ^
STACK CFI 28400 .cfa: r11 8 +
STACK CFI INIT 333e0 34 .cfa: sp 0 + .ra: lr
STACK CFI 333e4 .cfa: sp 8 + .ra: .cfa -4 + ^ r11: .cfa -8 + ^
STACK CFI 333e8 .cfa: r11 8 +
STACK CFI INIT 238a8 19c .cfa: sp 0 + .ra: lr
STACK CFI 238ac .cfa: sp 8 + .ra: .cfa -4 + ^ r11: .cfa -8 + ^
STACK CFI 238b0 .cfa: r11 8 +
STACK CFI INIT 24f10 e8 .cfa: sp 0 + .ra: lr
STACK CFI 24f14 .cfa: sp 24 + .ra: .cfa -4 + ^ r10: .cfa -12 + ^ r11: .cfa -8 + ^ r4: .cfa -24 + ^ r5: .cfa -20 + ^ r6: .cfa -16 + ^
STACK CFI 24f18 .cfa: r11 8 +
STACK CFI INIT 33414 c0 .cfa: sp 0 + .ra: lr
STACK CFI 33418 .cfa: sp 16 + .ra: .cfa -4 + ^ r11: .cfa -8 + ^ r4: .cfa -16 + ^ r5: .cfa -12 + ^
STACK CFI 3341c .cfa: r11 8 +
STACK CFI INIT 334d4 d4 .cfa: sp 0 + .ra: lr
STACK CFI 334d8 .cfa: sp 16 + .ra: .cfa -4 + ^ r11: .cfa -8 + ^ r4: .cfa -16 + ^ r5: .cfa -12 + ^
STACK CFI 334dc .cfa: r11 8 +
STACK CFI INIT 335a8 9c .cfa: sp 0 + .ra: lr
STACK CFI 335ac .cfa: sp 8 + .ra: .cfa -4 + ^ r11: .cfa -8 + ^
STACK CFI 335b0 .cfa: r11 8 +
STACK CFI INIT 33644 34 .cfa: sp 0 + .ra: lr
STACK CFI 33648 .cfa: sp 8 + .ra: .cfa -4 + ^ r11: .cfa -8 + ^
STACK CFI 3364c .cfa: r11 8 +
STACK CFI INIT 33678 ac .cfa: sp 0 + .ra: lr
STACK CFI 3367c .cfa: sp 8 + .ra: .cfa -4 + ^ r11: .cfa -8 + ^
STACK CFI 33680 .cfa: r11 8 +
STACK CFI INIT 33724 9c .cfa: sp 0 + .ra: lr
STACK CFI 33728 .cfa: sp 8 + .ra: .cfa -4 + ^ r11: .cfa -8 + ^
STACK CFI 3372c .cfa: r11 8 +
STACK CFI INIT 337c0 208 .cfa: sp 0 + .ra: lr
STACK CFI 337c4 .cfa: sp 8 + .ra: .cfa -4 + ^ r11: .cfa -8 + ^
STACK CFI 337c8 .cfa: r11 8 +
STACK CFI INIT 339c8 70 .cfa: sp 0 + .ra: lr
STACK CFI 339cc .cfa: sp 8 + .ra: .cfa -4 + ^ r11: .cfa -8 + ^
STACK CFI 339d0 .cfa: r11 8 +
STACK CFI INIT 33a38 7c .cfa: sp 0 + .ra: lr
STACK CFI 33a3c .cfa: sp 8 + .ra: .cfa -4 + ^ r11: .cfa -8 + ^
STACK CFI 33a40 .cfa: r11 8 +
STACK CFI INIT 2f08c 14 .cfa: sp 0 + .ra: lr
STACK CFI 2f090 .cfa: sp 4 +
STACK CFI INIT 33ab4 130 .cfa: sp 0 + .ra: lr
STACK CFI 33ab8 .cfa: sp 8 + .ra: .cfa -4 + ^ r11: .cfa -8 + ^
STACK CFI 33abc .cfa: r11 8 +
STACK CFI INIT 2fd2c 54 .cfa: sp 0 + .ra: lr
STACK CFI 2fd30 .cfa: sp 8 + .ra: .cfa -4 + ^ r11: .cfa -8 + ^
STACK CFI 2fd34 .cfa: r11 8 +
STACK CFI INIT 33be4 58 .cfa: sp 0 + .ra: lr
STACK CFI 33be8 .cfa: sp 8 + .ra: .cfa -4 + ^ r11: .cfa -8 + ^
STACK CFI 33bec .cfa: r11 8 +
STACK CFI INIT 2f024 68 .cfa: sp 0 + .ra: lr
STACK CFI 2f028 .cfa: sp 8 + .ra: .cfa -4 + ^ r11: .cfa -8 + ^
STACK CFI 2f02c .cfa: r11 8 +
STACK CFI INIT 2f190 48 .cfa: sp 0 + .ra: lr
STACK CFI 2f194 .cfa: sp 8 + .ra: .cfa -4 + ^ r11: .cfa -8 + ^
STACK CFI 2f198 .cfa: r11 8 +
STACK CFI INIT 33c3c 28 .cfa: sp 0 + .ra: lr
STACK CFI 33c40 .cfa: sp 8 + .ra: .cfa -4 + ^ r11: .cfa -8 + ^
STACK CFI 33c44 .cfa: r11 8 +
STACK CFI INIT 2f140 14 .cfa: sp 0 + .ra: lr
STACK CFI 2f144 .cfa: sp 4 +
STACK CFI INIT 33c64 28 .cfa: sp 0 + .ra: lr
STACK CFI 33c68 .cfa: sp 8 + .ra: .cfa -4 + ^ r11: .cfa -8 + ^
STACK CFI 33c6c .cfa: r11 8 +
STACK CFI INIT 33c8c 20 .cfa: sp 0 + .ra: lr
STACK CFI 33c90 .cfa: sp 8 +
STACK CFI INIT 2faec 24 .cfa: sp 0 + .ra: lr
STACK CFI 2faf0 .cfa: sp 8 + .ra: .cfa -4 + ^ r11: .cfa -8 + ^
STACK CFI 2faf4 .cfa: r11 8 +
STACK CFI INIT 25c60 44 .cfa: sp 0 + .ra: lr
STACK CFI 25c64 .cfa: sp 12 +
STACK CFI INIT 2fcb4 24 .cfa: sp 0 + .ra: lr
STACK CFI 2fcb8 .cfa: sp 8 + .ra: .cfa -4 + ^ r11: .cfa -8 + ^
STACK CFI 2fcbc .cfa: r11 8 +
STACK CFI INIT 2fcd8 14 .cfa: sp 0 + .ra: lr
STACK CFI 2fcdc .cfa: sp 4 +
STACK CFI INIT 2fcec 24 .cfa: sp 0 + .ra: lr
STACK CFI 2fcf0 .cfa: sp 8 + .ra: .cfa -4 + ^ r11: .cfa -8 + ^
STACK CFI 2fcf4 .cfa: r11 8 +
STACK CFI INIT 2fd10 1c .cfa: sp 0 + .ra: lr
STACK CFI 2fd14 .cfa: sp 4 +
STACK CFI INIT 2fe58 2c .cfa: sp 0 + .ra: lr
STACK CFI 2fe5c .cfa: sp 8 + .ra: .cfa -4 + ^ r11: .cfa -8 + ^
STACK CFI 2fe60 .cfa: r11 8 +
STACK CFI INIT 2fe84 74 .cfa: sp 0 + .ra: lr
STACK CFI 2fe88 .cfa: sp 8 + .ra: .cfa -4 + ^ r11: .cfa -8 + ^
STACK CFI 2fe8c .cfa: r11 8 +
STACK CFI INIT 2fd80 d8 .cfa: sp 0 + .ra: lr
STACK CFI 2fd84 .cfa: sp 8 + .ra: .cfa -4 + ^ r11: .cfa -8 + ^
STACK CFI 2fd88 .cfa: r11 8 +
STACK CFI INIT 2fc40 74 .cfa: sp 0 + .ra: lr
STACK CFI 2fc44 .cfa: sp 8 + .ra: .cfa -4 + ^ r11: .cfa -8 + ^
STACK CFI 2fc48 .cfa: r11 8 +
STACK CFI INIT 2fef8 34 .cfa: sp 0 + .ra: lr
STACK CFI 2fefc .cfa: sp 8 + .ra: .cfa -4 + ^ r11: .cfa -8 + ^
STACK CFI 2ff00 .cfa: r11 8 +
STACK CFI INIT 2ff2c 54 .cfa: sp 0 + .ra: lr
STACK CFI 2ff30 .cfa: sp 8 + .ra: .cfa -4 + ^ r11: .cfa -8 + ^
STACK CFI 2ff34 .cfa: r11 8 +
STACK CFI INIT 2ff80 24 .cfa: sp 0 + .ra: lr
STACK CFI 2ff84 .cfa: sp 8 + .ra: .cfa -4 + ^ r11: .cfa -8 + ^
STACK CFI 2ff88 .cfa: r11 8 +
STACK CFI INIT 2ffa4 20 .cfa: sp 0 + .ra: lr
STACK CFI 2ffa8 .cfa: sp 4 +
STACK CFI INIT 2ffc4 48 .cfa: sp 0 + .ra: lr
STACK CFI 2ffc8 .cfa: sp 8 + .ra: .cfa -4 + ^ r11: .cfa -8 + ^
STACK CFI 2ffcc .cfa: r11 8 +
STACK CFI INIT 3000c 18 .cfa: sp 0 + .ra: lr
STACK CFI 30010 .cfa: sp 4 +
STACK CFI INIT 30024 54 .cfa: sp 0 + .ra: lr
STACK CFI 30028 .cfa: sp 8 + .ra: .cfa -4 + ^ r11: .cfa -8 + ^
STACK CFI 3002c .cfa: r11 8 +
STACK CFI INIT 30078 14 .cfa: sp 0 + .ra: lr
STACK CFI 3007c .cfa: sp 4 +
STACK CFI INIT 3008c 40 .cfa: sp 0 + .ra: lr
STACK CFI 30090 .cfa: sp 8 + .ra: .cfa -4 + ^ r11: .cfa -8 + ^
STACK CFI 30094 .cfa: r11 8 +
STACK CFI INIT 300cc 14 .cfa: sp 0 + .ra: lr
STACK CFI 300d0 .cfa: sp 4 +
STACK CFI INIT 300e0 20 .cfa: sp 0 + .ra: lr
STACK CFI 300e4 .cfa: sp 8 +
STACK CFI INIT 2f118 28 .cfa: sp 0 + .ra: lr
STACK CFI 2f11c .cfa: sp 8 + .ra: .cfa -4 + ^ r11: .cfa -8 + ^
STACK CFI 2f120 .cfa: r11 8 +
STACK CFI INIT 2f154 28 .cfa: sp 0 + .ra: lr
STACK CFI 2f158 .cfa: sp 8 + .ra: .cfa -4 + ^ r11: .cfa -8 + ^
STACK CFI 2f15c .cfa: r11 8 +
STACK CFI INIT 2f17c 14 .cfa: sp 0 + .ra: lr
STACK CFI 2f180 .cfa: sp 8 +
STACK CFI INIT 2f210 30 .cfa: sp 0 + .ra: lr
STACK CFI 2f214 .cfa: sp 8 + .ra: .cfa -4 + ^ r11: .cfa -8 + ^
STACK CFI 2f218 .cfa: r11 8 +
STACK CFI INIT 2f240 18 .cfa: sp 0 + .ra: lr
STACK CFI 2f244 .cfa: sp 12 +
STACK CFI INIT 33cac 54 .cfa: sp 0 + .ra: lr
STACK CFI 33cb0 .cfa: sp 8 + .ra: .cfa -4 + ^ r11: .cfa -8 + ^
STACK CFI 33cb4 .cfa: r11 8 +
STACK CFI INIT 33d00 184 .cfa: sp 0 + .ra: lr
STACK CFI 33d04 .cfa: sp 8 + .ra: .cfa -4 + ^ r11: .cfa -8 + ^
STACK CFI 33d08 .cfa: r11 8 +
STACK CFI INIT 33e84 54 .cfa: sp 0 + .ra: lr
STACK CFI 33e88 .cfa: sp 8 + .ra: .cfa -4 + ^ r11: .cfa -8 + ^
STACK CFI 33e8c .cfa: r11 8 +
STACK CFI INIT 33ed8 14 .cfa: sp 0 + .ra: lr
STACK CFI 33edc .cfa: sp 4 +
STACK CFI INIT 33eec 40 .cfa: sp 0 + .ra: lr
STACK CFI 33ef0 .cfa: sp 8 + .ra: .cfa -4 + ^ r11: .cfa -8 + ^
STACK CFI 33ef4 .cfa: r11 8 +
STACK CFI INIT 33f2c 118 .cfa: sp 0 + .ra: lr
STACK CFI 33f30 .cfa: sp 32 + .ra: .cfa -4 + ^ r10: .cfa -12 + ^ r11: .cfa -8 + ^ r4: .cfa -32 + ^ r5: .cfa -28 + ^ r6: .cfa -24 + ^ r7: .cfa -20 + ^ r8: .cfa -16 + ^
STACK CFI 33f34 .cfa: r11 8 +
STACK CFI INIT 34044 1bc .cfa: sp 0 + .ra: lr
STACK CFI 34048 .cfa: sp 32 + .ra: .cfa -4 + ^ r11: .cfa -8 + ^ r4: .cfa -32 + ^ r5: .cfa -28 + ^ r6: .cfa -24 + ^ r7: .cfa -20 + ^ r8: .cfa -16 + ^ r9: .cfa -12 + ^
STACK CFI 3404c .cfa: r11 8 +
STACK CFI INIT 21a24 38 .cfa: sp 0 + .ra: lr
STACK CFI 21a28 .cfa: sp 8 + .ra: .cfa -4 + ^ r11: .cfa -8 + ^
STACK CFI 21a2c .cfa: r11 8 +
STACK CFI INIT 21a5c 38 .cfa: sp 0 + .ra: lr
STACK CFI 21a60 .cfa: sp 8 + .ra: .cfa -4 + ^ r11: .cfa -8 + ^
STACK CFI 21a64 .cfa: r11 8 +
STACK CFI INIT 227b0 38 .cfa: sp 0 + .ra: lr
STACK CFI 227b4 .cfa: sp 8 + .ra: .cfa -4 + ^ r11: .cfa -8 + ^
STACK CFI 227b8 .cfa: r11 8 +
STACK CFI INIT 227e8 38 .cfa: sp 0 + .ra: lr
STACK CFI 227ec .cfa: sp 8 + .ra: .cfa -4 + ^ r11: .cfa -8 + ^
STACK CFI 227f0 .cfa: r11 8 +
STACK CFI INIT 34200 108 .cfa: sp 0 + .ra: lr
STACK CFI 34204 .cfa: sp 24 + .ra: .cfa -4 + ^ r10: .cfa -12 + ^ r11: .cfa -8 + ^ r4: .cfa -24 + ^ r5: .cfa -20 + ^ r6: .cfa -16 + ^
STACK CFI 34208 .cfa: r11 8 +
STACK CFI INIT 34308 16c .cfa: sp 0 + .ra: lr
STACK CFI 3430c .cfa: sp 16 + .ra: .cfa -4 + ^ r10: .cfa -12 + ^ r11: .cfa -8 + ^ r4: .cfa -16 + ^
STACK CFI 34310 .cfa: r11 8 +
STACK CFI INIT 28100 20 .cfa: sp 0 + .ra: lr
STACK CFI 28104 .cfa: sp 8 +
STACK CFI INIT 28120 20 .cfa: sp 0 + .ra: lr
STACK CFI 28124 .cfa: sp 8 +
STACK CFI INIT 34474 1a0 .cfa: sp 0 + .ra: lr
STACK CFI 34478 .cfa: sp 16 + .ra: .cfa -4 + ^ r11: .cfa -8 + ^ r4: .cfa -16 + ^ r5: .cfa -12 + ^
STACK CFI 3447c .cfa: r11 8 +
STACK CFI INIT 34614 fc .cfa: sp 0 + .ra: lr
STACK CFI 34618 .cfa: sp 8 + .ra: .cfa -4 + ^ r11: .cfa -8 + ^
STACK CFI 3461c .cfa: r11 8 +
STACK CFI INIT 34710 6fc .cfa: sp 0 + .ra: lr
STACK CFI 34714 .cfa: sp 16 + .ra: .cfa -4 + ^ r11: .cfa -8 + ^ r4: .cfa -16 + ^ r5: .cfa -12 + ^
STACK CFI 34718 .cfa: r11 8 +
STACK CFI INIT 34e0c 8c .cfa: sp 0 + .ra: lr
STACK CFI 34e10 .cfa: sp 8 + .ra: .cfa -4 + ^ r11: .cfa -8 + ^
STACK CFI 34e14 .cfa: r11 8 +
STACK CFI INIT 283f8 38 .cfa: sp 0 + .ra: lr
STACK CFI 283fc .cfa: sp 8 + .ra: .cfa -4 + ^ r11: .cfa -8 + ^
STACK CFI 28400 .cfa: r11 8 +
STACK CFI INIT 34e98 80 .cfa: sp 0 + .ra: lr
STACK CFI 34e9c .cfa: sp 16 + .ra: .cfa -4 + ^ r11: .cfa -8 + ^ r4: .cfa -16 + ^ r5: .cfa -12 + ^
STACK CFI 34ea0 .cfa: r11 8 +
STACK CFI INIT 34f18 84 .cfa: sp 0 + .ra: lr
STACK CFI 34f1c .cfa: sp 16 + .ra: .cfa -4 + ^ r11: .cfa -8 + ^ r4: .cfa -16 + ^ r5: .cfa -12 + ^
STACK CFI 34f20 .cfa: r11 8 +
STACK CFI INIT 34f9c 80 .cfa: sp 0 + .ra: lr
STACK CFI 34fa0 .cfa: sp 16 + .ra: .cfa -4 + ^ r11: .cfa -8 + ^ r4: .cfa -16 + ^ r5: .cfa -12 + ^
STACK CFI 34fa4 .cfa: r11 8 +
STACK CFI INIT 3501c 80 .cfa: sp 0 + .ra: lr
STACK CFI 35020 .cfa: sp 16 + .ra: .cfa -4 + ^ r11: .cfa -8 + ^ r4: .cfa -16 + ^ r5: .cfa -12 + ^
STACK CFI 35024 .cfa: r11 8 +
STACK CFI INIT 3509c 10c .cfa: sp 0 + .ra: lr
STACK CFI 350a0 .cfa: sp 16 + .ra: .cfa -4 + ^ r11: .cfa -8 + ^ r4: .cfa -16 + ^ r5: .cfa -12 + ^
STACK CFI 350a4 .cfa: r11 8 +
STACK CFI INIT 280e0 20 .cfa: sp 0 + .ra: lr
STACK CFI 280e4 .cfa: sp 8 +
STACK CFI INIT 351a8 20 .cfa: sp 0 + .ra: lr
STACK CFI 351ac .cfa: sp 8 +
STACK CFI INIT 24ad4 38 .cfa: sp 0 + .ra: lr
STACK CFI 24ad8 .cfa: sp 8 + .ra: .cfa -4 + ^ r11: .cfa -8 + ^
STACK CFI 24adc .cfa: r11 8 +
STACK CFI INIT 24b0c 6c .cfa: sp 0 + .ra: lr
STACK CFI 24b10 .cfa: sp 8 + .ra: .cfa -4 + ^ r11: .cfa -8 + ^
STACK CFI 24b14 .cfa: r11 8 +
STACK CFI INIT 24b78 38 .cfa: sp 0 + .ra: lr
STACK CFI 24b7c .cfa: sp 8 + .ra: .cfa -4 + ^ r11: .cfa -8 + ^
STACK CFI 24b80 .cfa: r11 8 +
STACK CFI INIT 24bb0 14 .cfa: sp 0 + .ra: lr
STACK CFI 24bb4 .cfa: sp 4 +
STACK CFI INIT 24bc4 14 .cfa: sp 0 + .ra: lr
STACK CFI 24bc8 .cfa: sp 8 +
STACK CFI INIT 24bd8 2c .cfa: sp 0 + .ra: lr
STACK CFI 24bdc .cfa: sp 8 + .ra: .cfa -4 + ^ r11: .cfa -8 + ^
STACK CFI 24be0 .cfa: r11 8 +
STACK CFI INIT 24c04 28 .cfa: sp 0 + .ra: lr
STACK CFI 24c08 .cfa: sp 8 + .ra: .cfa -4 + ^ r11: .cfa -8 + ^
STACK CFI 24c0c .cfa: r11 8 +
STACK CFI INIT 24c2c 38 .cfa: sp 0 + .ra: lr
STACK CFI 24c30 .cfa: sp 8 + .ra: .cfa -4 + ^ r11: .cfa -8 + ^
STACK CFI 24c34 .cfa: r11 8 +
STACK CFI INIT 24c64 14 .cfa: sp 0 + .ra: lr
STACK CFI 24c68 .cfa: sp 4 +
STACK CFI INIT 24c78 38 .cfa: sp 0 + .ra: lr
STACK CFI 24c7c .cfa: sp 8 + .ra: .cfa -4 + ^ r11: .cfa -8 + ^
STACK CFI 24c80 .cfa: r11 8 +
STACK CFI INIT 24cb0 6c .cfa: sp 0 + .ra: lr
STACK CFI 24cb4 .cfa: sp 8 + .ra: .cfa -4 + ^ r11: .cfa -8 + ^
STACK CFI 24cb8 .cfa: r11 8 +
STACK CFI INIT 24d1c 38 .cfa: sp 0 + .ra: lr
STACK CFI 24d20 .cfa: sp 8 + .ra: .cfa -4 + ^ r11: .cfa -8 + ^
STACK CFI 24d24 .cfa: r11 8 +
STACK CFI INIT 24d54 14 .cfa: sp 0 + .ra: lr
STACK CFI 24d58 .cfa: sp 4 +
STACK CFI INIT 24d68 14 .cfa: sp 0 + .ra: lr
STACK CFI 24d6c .cfa: sp 8 +
STACK CFI INIT 24d7c 2c .cfa: sp 0 + .ra: lr
STACK CFI 24d80 .cfa: sp 8 + .ra: .cfa -4 + ^ r11: .cfa -8 + ^
STACK CFI 24d84 .cfa: r11 8 +
STACK CFI INIT 24da8 28 .cfa: sp 0 + .ra: lr
STACK CFI 24dac .cfa: sp 8 + .ra: .cfa -4 + ^ r11: .cfa -8 + ^
STACK CFI 24db0 .cfa: r11 8 +
STACK CFI INIT 24dd0 38 .cfa: sp 0 + .ra: lr
STACK CFI 24dd4 .cfa: sp 8 + .ra: .cfa -4 + ^ r11: .cfa -8 + ^
STACK CFI 24dd8 .cfa: r11 8 +
STACK CFI INIT 24e08 14 .cfa: sp 0 + .ra: lr
STACK CFI 24e0c .cfa: sp 4 +
STACK CFI INIT 28460 18 .cfa: sp 0 + .ra: lr
STACK CFI 28464 .cfa: sp 4 +
STACK CFI INIT 351c8 b8 .cfa: sp 0 + .ra: lr
STACK CFI 351cc .cfa: sp 8 + .ra: .cfa -4 + ^ r11: .cfa -8 + ^
STACK CFI 351d0 .cfa: r11 8 +
STACK CFI INIT 35280 50 .cfa: sp 0 + .ra: lr
STACK CFI 35284 .cfa: sp 8 + .ra: .cfa -4 + ^ r11: .cfa -8 + ^
STACK CFI 35288 .cfa: r11 8 +
STACK CFI INIT 352d0 44 .cfa: sp 0 + .ra: lr
STACK CFI 352d4 .cfa: sp 8 + .ra: .cfa -4 + ^ r11: .cfa -8 + ^
STACK CFI 352d8 .cfa: r11 8 +
STACK CFI INIT 35314 38 .cfa: sp 0 + .ra: lr
STACK CFI 35318 .cfa: sp 8 + .ra: .cfa -4 + ^ r11: .cfa -8 + ^
STACK CFI 3531c .cfa: r11 8 +
STACK CFI INIT 3534c 140 .cfa: sp 0 + .ra: lr
STACK CFI 35350 .cfa: sp 8 + .ra: .cfa -4 + ^ r11: .cfa -8 + ^
STACK CFI 35354 .cfa: r11 8 +
STACK CFI INIT 3548c 38 .cfa: sp 0 + .ra: lr
STACK CFI 35490 .cfa: sp 8 + .ra: .cfa -4 + ^ r11: .cfa -8 + ^
STACK CFI 35494 .cfa: r11 8 +
STACK CFI INIT 354c4 14 .cfa: sp 0 + .ra: lr
STACK CFI 354c8 .cfa: sp 4 +
STACK CFI INIT 354d8 38 .cfa: sp 0 + .ra: lr
STACK CFI 354dc .cfa: sp 8 + .ra: .cfa -4 + ^ r11: .cfa -8 + ^
STACK CFI 354e0 .cfa: r11 8 +
STACK CFI INIT 35510 54 .cfa: sp 0 + .ra: lr
STACK CFI 35514 .cfa: sp 8 + .ra: .cfa -4 + ^ r11: .cfa -8 + ^
STACK CFI 35518 .cfa: r11 8 +
STACK CFI INIT 35564 60 .cfa: sp 0 + .ra: lr
STACK CFI 35568 .cfa: sp 8 + .ra: .cfa -4 + ^ r11: .cfa -8 + ^
STACK CFI 3556c .cfa: r11 8 +
STACK CFI INIT 355c4 44 .cfa: sp 0 + .ra: lr
STACK CFI 355c8 .cfa: sp 8 + .ra: .cfa -4 + ^ r11: .cfa -8 + ^
STACK CFI 355cc .cfa: r11 8 +
STACK CFI INIT 35608 18 .cfa: sp 0 + .ra: lr
STACK CFI 3560c .cfa: sp 8 +
STACK CFI INIT 35620 38 .cfa: sp 0 + .ra: lr
STACK CFI 35624 .cfa: sp 8 + .ra: .cfa -4 + ^ r11: .cfa -8 + ^
STACK CFI 35628 .cfa: r11 8 +
STACK CFI INIT 35658 14 .cfa: sp 0 + .ra: lr
STACK CFI 3565c .cfa: sp 4 +
STACK CFI INIT 3566c 24 .cfa: sp 0 + .ra: lr
STACK CFI 35670 .cfa: sp 8 + .ra: .cfa -4 + ^ r11: .cfa -8 + ^
STACK CFI 35674 .cfa: r11 8 +
STACK CFI INIT 35690 3c .cfa: sp 0 + .ra: lr
STACK CFI 35694 .cfa: sp 8 + .ra: .cfa -4 + ^ r11: .cfa -8 + ^
STACK CFI 35698 .cfa: r11 8 +
STACK CFI INIT 356cc 3c .cfa: sp 0 + .ra: lr
STACK CFI 356d0 .cfa: sp 8 + .ra: .cfa -4 + ^ r11: .cfa -8 + ^
STACK CFI 356d4 .cfa: r11 8 +
STACK CFI INIT 35708 b8 .cfa: sp 0 + .ra: lr
STACK CFI 3570c .cfa: sp 8 + .ra: .cfa -4 + ^ r11: .cfa -8 + ^
STACK CFI 35710 .cfa: r11 8 +
STACK CFI INIT 357c0 74 .cfa: sp 0 + .ra: lr
STACK CFI 357c4 .cfa: sp 8 + .ra: .cfa -4 + ^ r11: .cfa -8 + ^
STACK CFI 357c8 .cfa: r11 8 +
STACK CFI INIT 35834 68 .cfa: sp 0 + .ra: lr
STACK CFI 35838 .cfa: sp 8 + .ra: .cfa -4 + ^ r11: .cfa -8 + ^
STACK CFI 3583c .cfa: r11 8 +
STACK CFI INIT 3589c 14 .cfa: sp 0 + .ra: lr
STACK CFI 358a0 .cfa: sp 4 +
STACK CFI INIT 358b0 48 .cfa: sp 0 + .ra: lr
STACK CFI 358b4 .cfa: sp 8 + .ra: .cfa -4 + ^ r11: .cfa -8 + ^
STACK CFI 358b8 .cfa: r11 8 +
STACK CFI INIT 358f8 24 .cfa: sp 0 + .ra: lr
STACK CFI 358fc .cfa: sp 8 + .ra: .cfa -4 + ^ r11: .cfa -8 + ^
STACK CFI 35900 .cfa: r11 8 +
STACK CFI INIT 3591c 14 .cfa: sp 0 + .ra: lr
STACK CFI 35920 .cfa: sp 4 +
STACK CFI INIT 35930 24 .cfa: sp 0 + .ra: lr
STACK CFI 35934 .cfa: sp 8 + .ra: .cfa -4 + ^ r11: .cfa -8 + ^
STACK CFI 35938 .cfa: r11 8 +
STACK CFI INIT 35954 1c .cfa: sp 0 + .ra: lr
STACK CFI 35958 .cfa: sp 4 +
STACK CFI INIT 35970 54 .cfa: sp 0 + .ra: lr
STACK CFI 35974 .cfa: sp 8 + .ra: .cfa -4 + ^ r11: .cfa -8 + ^
STACK CFI 35978 .cfa: r11 8 +
STACK CFI INIT 359c4 d8 .cfa: sp 0 + .ra: lr
STACK CFI 359c8 .cfa: sp 8 + .ra: .cfa -4 + ^ r11: .cfa -8 + ^
STACK CFI 359cc .cfa: r11 8 +
STACK CFI INIT 35a9c 2c .cfa: sp 0 + .ra: lr
STACK CFI 35aa0 .cfa: sp 8 + .ra: .cfa -4 + ^ r11: .cfa -8 + ^
STACK CFI 35aa4 .cfa: r11 8 +
STACK CFI INIT 35ac8 74 .cfa: sp 0 + .ra: lr
STACK CFI 35acc .cfa: sp 8 + .ra: .cfa -4 + ^ r11: .cfa -8 + ^
STACK CFI 35ad0 .cfa: r11 8 +
STACK CFI INIT 238a8 19c .cfa: sp 0 + .ra: lr
STACK CFI 238ac .cfa: sp 8 + .ra: .cfa -4 + ^ r11: .cfa -8 + ^
STACK CFI 238b0 .cfa: r11 8 +
STACK CFI INIT 24f10 e8 .cfa: sp 0 + .ra: lr
STACK CFI 24f14 .cfa: sp 24 + .ra: .cfa -4 + ^ r10: .cfa -12 + ^ r11: .cfa -8 + ^ r4: .cfa -24 + ^ r5: .cfa -20 + ^ r6: .cfa -16 + ^
STACK CFI 24f18 .cfa: r11 8 +
STACK CFI INIT 35b3c c0 .cfa: sp 0 + .ra: lr
STACK CFI 35b40 .cfa: sp 16 + .ra: .cfa -4 + ^ r11: .cfa -8 + ^ r4: .cfa -16 + ^ r5: .cfa -12 + ^
STACK CFI 35b44 .cfa: r11 8 +
STACK CFI INIT 35bfc d4 .cfa: sp 0 + .ra: lr
STACK CFI 35c00 .cfa: sp 16 + .ra: .cfa -4 + ^ r11: .cfa -8 + ^ r4: .cfa -16 + ^ r5: .cfa -12 + ^
STACK CFI 35c04 .cfa: r11 8 +
STACK CFI INIT 35cd0 34 .cfa: sp 0 + .ra: lr
STACK CFI 35cd4 .cfa: sp 8 + .ra: .cfa -4 + ^ r11: .cfa -8 + ^
STACK CFI 35cd8 .cfa: r11 8 +
STACK CFI INIT 35d04 54 .cfa: sp 0 + .ra: lr
STACK CFI 35d08 .cfa: sp 8 + .ra: .cfa -4 + ^ r11: .cfa -8 + ^
STACK CFI 35d0c .cfa: r11 8 +
STACK CFI INIT 35d58 14 .cfa: sp 0 + .ra: lr
STACK CFI 35d5c .cfa: sp 4 +
STACK CFI INIT 35d6c 24 .cfa: sp 0 + .ra: lr
STACK CFI 35d70 .cfa: sp 8 + .ra: .cfa -4 + ^ r11: .cfa -8 + ^
STACK CFI 35d74 .cfa: r11 8 +
STACK CFI INIT 35d90 20 .cfa: sp 0 + .ra: lr
STACK CFI 35d94 .cfa: sp 4 +
STACK CFI INIT 35db0 48 .cfa: sp 0 + .ra: lr
STACK CFI 35db4 .cfa: sp 8 + .ra: .cfa -4 + ^ r11: .cfa -8 + ^
STACK CFI 35db8 .cfa: r11 8 +
STACK CFI INIT 35df8 18 .cfa: sp 0 + .ra: lr
STACK CFI 35dfc .cfa: sp 4 +
STACK CFI INIT 35e10 54 .cfa: sp 0 + .ra: lr
STACK CFI 35e14 .cfa: sp 8 + .ra: .cfa -4 + ^ r11: .cfa -8 + ^
STACK CFI 35e18 .cfa: r11 8 +
STACK CFI INIT 35e64 14 .cfa: sp 0 + .ra: lr
STACK CFI 35e68 .cfa: sp 4 +
STACK CFI INIT 35e78 58 .cfa: sp 0 + .ra: lr
STACK CFI 35e7c .cfa: sp 8 + .ra: .cfa -4 + ^ r11: .cfa -8 + ^
STACK CFI 35e80 .cfa: r11 8 +
STACK CFI INIT 35ed0 14 .cfa: sp 0 + .ra: lr
STACK CFI 35ed4 .cfa: sp 4 +
STACK CFI INIT 35ee4 20 .cfa: sp 0 + .ra: lr
STACK CFI 35ee8 .cfa: sp 8 +
STACK CFI INIT 35f04 28 .cfa: sp 0 + .ra: lr
STACK CFI 35f08 .cfa: sp 8 + .ra: .cfa -4 + ^ r11: .cfa -8 + ^
STACK CFI 35f0c .cfa: r11 8 +
STACK CFI INIT 35f2c 28 .cfa: sp 0 + .ra: lr
STACK CFI 35f30 .cfa: sp 8 + .ra: .cfa -4 + ^ r11: .cfa -8 + ^
STACK CFI 35f34 .cfa: r11 8 +
STACK CFI INIT 35f54 14 .cfa: sp 0 + .ra: lr
STACK CFI 35f58 .cfa: sp 8 +
STACK CFI INIT 35f68 30 .cfa: sp 0 + .ra: lr
STACK CFI 35f6c .cfa: sp 8 + .ra: .cfa -4 + ^ r11: .cfa -8 + ^
STACK CFI 35f70 .cfa: r11 8 +
STACK CFI INIT 35f98 18 .cfa: sp 0 + .ra: lr
STACK CFI 35f9c .cfa: sp 12 +
STACK CFI INIT 35fb0 78 .cfa: sp 0 + .ra: lr
STACK CFI 35fb4 .cfa: sp 8 + .ra: .cfa -4 + ^ r11: .cfa -8 + ^
STACK CFI 35fb8 .cfa: r11 8 +
STACK CFI INIT 36028 78 .cfa: sp 0 + .ra: lr
STACK CFI 3602c .cfa: sp 8 + .ra: .cfa -4 + ^ r11: .cfa -8 + ^
STACK CFI 36030 .cfa: r11 8 +
STACK CFI INIT 360a0 44 .cfa: sp 0 + .ra: lr
STACK CFI 360a4 .cfa: sp 8 + .ra: .cfa -4 + ^ r11: .cfa -8 + ^
STACK CFI 360a8 .cfa: r11 8 +
STACK CFI INIT 360e4 88 .cfa: sp 0 + .ra: lr
STACK CFI 360e8 .cfa: sp 8 + .ra: .cfa -4 + ^ r11: .cfa -8 + ^
STACK CFI 360ec .cfa: r11 8 +
STACK CFI INIT 3616c 18 .cfa: sp 0 + .ra: lr
STACK CFI 36170 .cfa: sp 4 +
STACK CFI INIT 36184 18 .cfa: sp 0 + .ra: lr
STACK CFI 36188 .cfa: sp 4 +
STACK CFI INIT 3619c 40 .cfa: sp 0 + .ra: lr
STACK CFI 361a0 .cfa: sp 8 + .ra: .cfa -4 + ^ r11: .cfa -8 + ^
STACK CFI 361a4 .cfa: r11 8 +
STACK CFI INIT 361dc 874 .cfa: sp 0 + .ra: lr
STACK CFI 361e0 .cfa: sp 16 + .ra: .cfa -4 + ^ r10: .cfa -12 + ^ r11: .cfa -8 + ^ r4: .cfa -16 + ^
STACK CFI 361e4 .cfa: r11 8 +
STACK CFI INIT 36a50 c8 .cfa: sp 0 + .ra: lr
STACK CFI 36a54 .cfa: sp 8 + .ra: .cfa -4 + ^ r11: .cfa -8 + ^
STACK CFI 36a58 .cfa: r11 8 +
STACK CFI INIT 36b18 420 .cfa: sp 0 + .ra: lr
STACK CFI 36b1c .cfa: sp 24 + .ra: .cfa -4 + ^ r10: .cfa -12 + ^ r11: .cfa -8 + ^ r4: .cfa -24 + ^ r5: .cfa -20 + ^ r6: .cfa -16 + ^
STACK CFI 36b20 .cfa: r11 8 +
STACK CFI INIT 36f38 22c .cfa: sp 0 + .ra: lr
STACK CFI 36f3c .cfa: sp 8 + .ra: .cfa -4 + ^ r11: .cfa -8 + ^
STACK CFI 36f40 .cfa: r11 8 +
STACK CFI INIT 37164 214 .cfa: sp 0 + .ra: lr
STACK CFI 37168 .cfa: sp 8 + .ra: .cfa -4 + ^ r11: .cfa -8 + ^
STACK CFI 3716c .cfa: r11 8 +
STACK CFI INIT 37378 1b4 .cfa: sp 0 + .ra: lr
STACK CFI 3737c .cfa: sp 16 + .ra: .cfa -4 + ^ r11: .cfa -8 + ^ r4: .cfa -16 + ^ r5: .cfa -12 + ^
STACK CFI 37380 .cfa: r11 8 +
STACK CFI INIT 3752c 168 .cfa: sp 0 + .ra: lr
STACK CFI 37530 .cfa: sp 8 + .ra: .cfa -4 + ^ r11: .cfa -8 + ^
STACK CFI 37534 .cfa: r11 8 +
STACK CFI INIT 37694 324 .cfa: sp 0 + .ra: lr
STACK CFI 37698 .cfa: sp 8 + .ra: .cfa -4 + ^ r11: .cfa -8 + ^
STACK CFI 3769c .cfa: r11 8 +
STACK CFI INIT 379b8 30 .cfa: sp 0 + .ra: lr
STACK CFI 379bc .cfa: sp 8 +
STACK CFI INIT 379e8 d4 .cfa: sp 0 + .ra: lr
STACK CFI 379ec .cfa: sp 16 + .ra: .cfa -4 + ^ r11: .cfa -8 + ^ r4: .cfa -16 + ^ r5: .cfa -12 + ^
STACK CFI 379f0 .cfa: r11 8 +
STACK CFI INIT 37abc 24 .cfa: sp 0 + .ra: lr
STACK CFI 37ac0 .cfa: sp 8 + .ra: .cfa -4 + ^ r11: .cfa -8 + ^
STACK CFI 37ac4 .cfa: r11 8 +
STACK CFI INIT 37ae0 914 .cfa: sp 0 + .ra: lr
STACK CFI 37ae4 .cfa: sp 24 + .ra: .cfa -4 + ^ r11: .cfa -8 + ^ r4: .cfa -24 + ^ r5: .cfa -20 + ^ r6: .cfa -16 + ^ r7: .cfa -12 + ^
STACK CFI 37ae8 .cfa: r11 8 +
STACK CFI INIT 383f4 40 .cfa: sp 0 + .ra: lr
STACK CFI 383f8 .cfa: sp 8 + .ra: .cfa -4 + ^ r11: .cfa -8 + ^
STACK CFI 383fc .cfa: r11 8 +
STACK CFI INIT 38434 18 .cfa: sp 0 + .ra: lr
STACK CFI 38438 .cfa: sp 4 +
STACK CFI INIT 3844c 8 .cfa: sp 0 + .ra: lr
STACK CFI INIT 38454 8 .cfa: sp 0 + .ra: lr
STACK CFI INIT 3845c 58 .cfa: sp 0 + .ra: lr
STACK CFI 38460 .cfa: sp 8 + .ra: .cfa -4 + ^ r11: .cfa -8 + ^
STACK CFI 38464 .cfa: r11 8 +
STACK CFI INIT 384b4 18 .cfa: sp 0 + .ra: lr
STACK CFI 384b8 .cfa: sp 4 +
STACK CFI INIT 2fb4c 3c .cfa: sp 0 + .ra: lr
STACK CFI 2fb50 .cfa: sp 8 + .ra: .cfa -4 + ^ r11: .cfa -8 + ^
STACK CFI 2fb54 .cfa: r11 8 +
STACK CFI INIT 384cc 50 .cfa: sp 0 + .ra: lr
STACK CFI 384d0 .cfa: sp 8 + .ra: .cfa -4 + ^ r11: .cfa -8 + ^
STACK CFI 384d4 .cfa: r11 8 +
STACK CFI INIT 3851c a0 .cfa: sp 0 + .ra: lr
STACK CFI 38520 .cfa: sp 8 + .ra: .cfa -4 + ^ r11: .cfa -8 + ^
STACK CFI 38524 .cfa: r11 8 +
STACK CFI INIT 385bc 24 .cfa: sp 0 + .ra: lr
STACK CFI 385c0 .cfa: sp 4 +
STACK CFI INIT 385e0 18 .cfa: sp 0 + .ra: lr
STACK CFI 385e4 .cfa: sp 4 +
STACK CFI INIT 385f8 30 .cfa: sp 0 + .ra: lr
STACK CFI 385fc .cfa: sp 16 +
STACK CFI INIT 38628 278 .cfa: sp 0 + .ra: lr
STACK CFI 3862c .cfa: sp 24 + .ra: .cfa -4 + ^ r10: .cfa -12 + ^ r11: .cfa -8 + ^ r4: .cfa -24 + ^ r5: .cfa -20 + ^ r6: .cfa -16 + ^
STACK CFI 38630 .cfa: r11 8 +
STACK CFI INIT 29614 18 .cfa: sp 0 + .ra: lr
STACK CFI 29618 .cfa: sp 4 +
STACK CFI INIT 2962c 3c .cfa: sp 0 + .ra: lr
STACK CFI 29630 .cfa: sp 8 + .ra: .cfa -4 + ^ r11: .cfa -8 + ^
STACK CFI 29634 .cfa: r11 8 +
STACK CFI INIT 29668 30 .cfa: sp 0 + .ra: lr
STACK CFI 2966c .cfa: sp 16 +
STACK CFI INIT 25c60 44 .cfa: sp 0 + .ra: lr
STACK CFI 25c64 .cfa: sp 12 +
STACK CFI INIT 29cdc 44 .cfa: sp 0 + .ra: lr
STACK CFI 29ce0 .cfa: sp 12 +
STACK CFI INIT 388a0 4c .cfa: sp 0 + .ra: lr
STACK CFI 388a4 .cfa: sp 8 + .ra: .cfa -4 + ^ r11: .cfa -8 + ^
STACK CFI 388a8 .cfa: r11 8 +
STACK CFI INIT 388ec 30 .cfa: sp 0 + .ra: lr
STACK CFI 388f0 .cfa: sp 8 + .ra: .cfa -4 + ^ r11: .cfa -8 + ^
STACK CFI 388f4 .cfa: r11 8 +
STACK CFI INIT 3891c 38 .cfa: sp 0 + .ra: lr
STACK CFI 38920 .cfa: sp 8 + .ra: .cfa -4 + ^ r11: .cfa -8 + ^
STACK CFI 38924 .cfa: r11 8 +
STACK CFI INIT 38954 68 .cfa: sp 0 + .ra: lr
STACK CFI 38958 .cfa: sp 8 + .ra: .cfa -4 + ^ r11: .cfa -8 + ^
STACK CFI 3895c .cfa: r11 8 +
STACK CFI INIT 389bc 78 .cfa: sp 0 + .ra: lr
STACK CFI 389c0 .cfa: sp 8 + .ra: .cfa -4 + ^ r11: .cfa -8 + ^
STACK CFI 389c4 .cfa: r11 8 +
STACK CFI INIT 38a34 44 .cfa: sp 0 + .ra: lr
STACK CFI 38a38 .cfa: sp 8 + .ra: .cfa -4 + ^ r11: .cfa -8 + ^
STACK CFI 38a3c .cfa: r11 8 +
STACK CFI INIT 38a78 18 .cfa: sp 0 + .ra: lr
STACK CFI 38a7c .cfa: sp 4 +
STACK CFI INIT 38a90 40 .cfa: sp 0 + .ra: lr
STACK CFI 38a94 .cfa: sp 8 + .ra: .cfa -4 + ^ r11: .cfa -8 + ^
STACK CFI 38a98 .cfa: r11 8 +
STACK CFI INIT 38ad0 b0 .cfa: sp 0 + .ra: lr
STACK CFI 38ad4 .cfa: sp 8 + .ra: .cfa -4 + ^ r11: .cfa -8 + ^
STACK CFI 38ad8 .cfa: r11 8 +
STACK CFI INIT 38b80 40 .cfa: sp 0 + .ra: lr
STACK CFI 38b84 .cfa: sp 8 + .ra: .cfa -4 + ^ r11: .cfa -8 + ^
STACK CFI 38b88 .cfa: r11 8 +
STACK CFI INIT 38bc0 8 .cfa: sp 0 + .ra: lr
STACK CFI INIT 38bc8 54 .cfa: sp 0 + .ra: lr
STACK CFI 38bcc .cfa: sp 8 + .ra: .cfa -4 + ^ r11: .cfa -8 + ^
STACK CFI 38bd0 .cfa: r11 8 +
STACK CFI INIT 38c1c 184 .cfa: sp 0 + .ra: lr
STACK CFI 38c20 .cfa: sp 8 + .ra: .cfa -4 + ^ r11: .cfa -8 + ^
STACK CFI 38c24 .cfa: r11 8 +
STACK CFI INIT 38da0 54 .cfa: sp 0 + .ra: lr
STACK CFI 38da4 .cfa: sp 8 + .ra: .cfa -4 + ^ r11: .cfa -8 + ^
STACK CFI 38da8 .cfa: r11 8 +
STACK CFI INIT 38df4 14 .cfa: sp 0 + .ra: lr
STACK CFI 38df8 .cfa: sp 4 +
STACK CFI INIT 38e08 58 .cfa: sp 0 + .ra: lr
STACK CFI 38e0c .cfa: sp 8 + .ra: .cfa -4 + ^ r11: .cfa -8 + ^
STACK CFI 38e10 .cfa: r11 8 +
STACK CFI INIT 38e60 130 .cfa: sp 0 + .ra: lr
STACK CFI 38e64 .cfa: sp 8 + .ra: .cfa -4 + ^ r11: .cfa -8 + ^
STACK CFI 38e68 .cfa: r11 8 +
STACK CFI INIT 38f90 58 .cfa: sp 0 + .ra: lr
STACK CFI 38f94 .cfa: sp 8 + .ra: .cfa -4 + ^ r11: .cfa -8 + ^
STACK CFI 38f98 .cfa: r11 8 +
STACK CFI INIT 38fe8 8 .cfa: sp 0 + .ra: lr
STACK CFI INIT 38ff0 58 .cfa: sp 0 + .ra: lr
STACK CFI 38ff4 .cfa: sp 8 + .ra: .cfa -4 + ^ r11: .cfa -8 + ^
STACK CFI 38ff8 .cfa: r11 8 +
STACK CFI INIT 39048 58 .cfa: sp 0 + .ra: lr
STACK CFI 3904c .cfa: sp 8 + .ra: .cfa -4 + ^ r11: .cfa -8 + ^
STACK CFI 39050 .cfa: r11 8 +
STACK CFI INIT 390a0 44 .cfa: sp 0 + .ra: lr
STACK CFI 390a4 .cfa: sp 8 + .ra: .cfa -4 + ^ r11: .cfa -8 + ^
STACK CFI 390a8 .cfa: r11 8 +
STACK CFI INIT 390e4 74 .cfa: sp 0 + .ra: lr
STACK CFI 390e8 .cfa: sp 8 +
STACK CFI INIT 39158 144 .cfa: sp 0 + .ra: lr
STACK CFI 3915c .cfa: sp 8 + .ra: .cfa -4 + ^ r11: .cfa -8 + ^
STACK CFI 39160 .cfa: r11 8 +
STACK CFI INIT 3929c 44 .cfa: sp 0 + .ra: lr
STACK CFI 392a0 .cfa: sp 8 + .ra: .cfa -4 + ^ r11: .cfa -8 + ^
STACK CFI 392a4 .cfa: r11 8 +
STACK CFI INIT 392e0 34c .cfa: sp 0 + .ra: lr
STACK CFI 392e4 .cfa: sp 16 + .ra: .cfa -4 + ^ r10: .cfa -12 + ^ r11: .cfa -8 + ^ r4: .cfa -16 + ^
STACK CFI 392e8 .cfa: r11 8 +
STACK CFI INIT 2a1a4 78 .cfa: sp 0 + .ra: lr
STACK CFI 2a1a8 .cfa: sp 8 + .ra: .cfa -4 + ^ r11: .cfa -8 + ^
STACK CFI 2a1ac .cfa: r11 8 +
STACK CFI INIT 2a21c 34 .cfa: sp 0 + .ra: lr
STACK CFI 2a220 .cfa: sp 8 +
STACK CFI INIT 2a250 74 .cfa: sp 0 + .ra: lr
STACK CFI 2a254 .cfa: sp 8 + .ra: .cfa -4 + ^ r11: .cfa -8 + ^
STACK CFI 2a258 .cfa: r11 8 +
STACK CFI INIT 2a2c4 28 .cfa: sp 0 + .ra: lr
STACK CFI 2a2c8 .cfa: sp 8 + .ra: .cfa -4 + ^ r11: .cfa -8 + ^
STACK CFI 2a2cc .cfa: r11 8 +
STACK CFI INIT 2a2ec 20 .cfa: sp 0 + .ra: lr
STACK CFI 2a2f0 .cfa: sp 4 +
STACK CFI INIT 3962c 7c .cfa: sp 0 + .ra: lr
STACK CFI 39630 .cfa: sp 8 + .ra: .cfa -4 + ^ r11: .cfa -8 + ^
STACK CFI 39634 .cfa: r11 8 +
STACK CFI INIT 396a8 94 .cfa: sp 0 + .ra: lr
STACK CFI 396ac .cfa: sp 8 + .ra: .cfa -4 + ^ r11: .cfa -8 + ^
STACK CFI 396b0 .cfa: r11 8 +
STACK CFI INIT 3973c 10 .cfa: sp 0 + .ra: lr
STACK CFI 39740 .cfa: sp 8 +
STACK CFI INIT 2a30c bc .cfa: sp 0 + .ra: lr
STACK CFI 2a310 .cfa: sp 8 + .ra: .cfa -4 + ^ r11: .cfa -8 + ^
STACK CFI 2a314 .cfa: r11 8 +
STACK CFI INIT 2a3c8 e4 .cfa: sp 0 + .ra: lr
STACK CFI 2a3cc .cfa: sp 8 + .ra: .cfa -4 + ^ r11: .cfa -8 + ^
STACK CFI 2a3d0 .cfa: r11 8 +
STACK CFI INIT 2a4ac 78 .cfa: sp 0 + .ra: lr
STACK CFI 2a4b0 .cfa: sp 8 + .ra: .cfa -4 + ^ r11: .cfa -8 + ^
STACK CFI 2a4b4 .cfa: r11 8 +
STACK CFI INIT 2a524 40 .cfa: sp 0 + .ra: lr
STACK CFI 2a528 .cfa: sp 8 + .ra: .cfa -4 + ^ r11: .cfa -8 + ^
STACK CFI 2a52c .cfa: r11 8 +
STACK CFI INIT 3974c 88 .cfa: sp 0 + .ra: lr
STACK CFI 39750 .cfa: sp 8 + .ra: .cfa -4 + ^ r11: .cfa -8 + ^
STACK CFI 39754 .cfa: r11 8 +
STACK CFI INIT 2a588 20 .cfa: sp 0 + .ra: lr
STACK CFI 2a58c .cfa: sp 4 +
STACK CFI INIT 2a564 24 .cfa: sp 0 + .ra: lr
STACK CFI 2a568 .cfa: sp 8 +
STACK CFI INIT 2a5a8 38 .cfa: sp 0 + .ra: lr
STACK CFI 2a5ac .cfa: sp 8 + .ra: .cfa -4 + ^ r11: .cfa -8 + ^
STACK CFI 2a5b0 .cfa: r11 8 +
STACK CFI INIT 2a5e0 5c .cfa: sp 0 + .ra: lr
STACK CFI 2a5e4 .cfa: sp 8 + .ra: .cfa -4 + ^ r11: .cfa -8 + ^
STACK CFI 2a5e8 .cfa: r11 8 +
STACK CFI INIT 2a63c 38 .cfa: sp 0 + .ra: lr
STACK CFI 2a640 .cfa: sp 8 + .ra: .cfa -4 + ^ r11: .cfa -8 + ^
STACK CFI 2a644 .cfa: r11 8 +
STACK CFI INIT 2a674 38 .cfa: sp 0 + .ra: lr
STACK CFI 2a678 .cfa: sp 8 + .ra: .cfa -4 + ^ r11: .cfa -8 + ^
STACK CFI 2a67c .cfa: r11 8 +
STACK CFI INIT 2a6ac 13c .cfa: sp 0 + .ra: lr
STACK CFI 2a6b0 .cfa: sp 8 + .ra: .cfa -4 + ^ r11: .cfa -8 + ^
STACK CFI 2a6b4 .cfa: r11 8 +
STACK CFI INIT 2a7e8 38 .cfa: sp 0 + .ra: lr
STACK CFI 2a7ec .cfa: sp 8 + .ra: .cfa -4 + ^ r11: .cfa -8 + ^
STACK CFI 2a7f0 .cfa: r11 8 +
STACK CFI INIT 2a820 14 .cfa: sp 0 + .ra: lr
STACK CFI 2a824 .cfa: sp 4 +
STACK CFI INIT 2a834 44 .cfa: sp 0 + .ra: lr
STACK CFI 2a838 .cfa: sp 8 + .ra: .cfa -4 + ^ r11: .cfa -8 + ^
STACK CFI 2a83c .cfa: r11 8 +
STACK CFI INIT 2a878 38 .cfa: sp 0 + .ra: lr
STACK CFI 2a87c .cfa: sp 8 + .ra: .cfa -4 + ^ r11: .cfa -8 + ^
STACK CFI 2a880 .cfa: r11 8 +
STACK CFI INIT 2a8b0 54 .cfa: sp 0 + .ra: lr
STACK CFI 2a8b4 .cfa: sp 8 + .ra: .cfa -4 + ^ r11: .cfa -8 + ^
STACK CFI 2a8b8 .cfa: r11 8 +
STACK CFI INIT 2a904 60 .cfa: sp 0 + .ra: lr
STACK CFI 2a908 .cfa: sp 8 + .ra: .cfa -4 + ^ r11: .cfa -8 + ^
STACK CFI 2a90c .cfa: r11 8 +
STACK CFI INIT 2a964 44 .cfa: sp 0 + .ra: lr
STACK CFI 2a968 .cfa: sp 8 + .ra: .cfa -4 + ^ r11: .cfa -8 + ^
STACK CFI 2a96c .cfa: r11 8 +
STACK CFI INIT 2a9a8 18 .cfa: sp 0 + .ra: lr
STACK CFI 2a9ac .cfa: sp 8 +
STACK CFI INIT 2a9c0 38 .cfa: sp 0 + .ra: lr
STACK CFI 2a9c4 .cfa: sp 8 + .ra: .cfa -4 + ^ r11: .cfa -8 + ^
STACK CFI 2a9c8 .cfa: r11 8 +
STACK CFI INIT 2a9f8 14 .cfa: sp 0 + .ra: lr
STACK CFI 2a9fc .cfa: sp 4 +
STACK CFI INIT 2aa0c 24 .cfa: sp 0 + .ra: lr
STACK CFI 2aa10 .cfa: sp 8 + .ra: .cfa -4 + ^ r11: .cfa -8 + ^
STACK CFI 2aa14 .cfa: r11 8 +
STACK CFI INIT 2aa30 20 .cfa: sp 0 + .ra: lr
STACK CFI 2aa34 .cfa: sp 4 +
STACK CFI INIT 2aa50 b8 .cfa: sp 0 + .ra: lr
STACK CFI 2aa54 .cfa: sp 8 + .ra: .cfa -4 + ^ r11: .cfa -8 + ^
STACK CFI 2aa58 .cfa: r11 8 +
STACK CFI INIT 2ab08 74 .cfa: sp 0 + .ra: lr
STACK CFI 2ab0c .cfa: sp 8 + .ra: .cfa -4 + ^ r11: .cfa -8 + ^
STACK CFI 2ab10 .cfa: r11 8 +
STACK CFI INIT 2ab7c 68 .cfa: sp 0 + .ra: lr
STACK CFI 2ab80 .cfa: sp 8 + .ra: .cfa -4 + ^ r11: .cfa -8 + ^
STACK CFI 2ab84 .cfa: r11 8 +
STACK CFI INIT 2abe4 14 .cfa: sp 0 + .ra: lr
STACK CFI 2abe8 .cfa: sp 4 +
STACK CFI INIT 2abf8 48 .cfa: sp 0 + .ra: lr
STACK CFI 2abfc .cfa: sp 8 + .ra: .cfa -4 + ^ r11: .cfa -8 + ^
STACK CFI 2ac00 .cfa: r11 8 +
STACK CFI INIT 2ac40 24 .cfa: sp 0 + .ra: lr
STACK CFI 2ac44 .cfa: sp 8 + .ra: .cfa -4 + ^ r11: .cfa -8 + ^
STACK CFI 2ac48 .cfa: r11 8 +
STACK CFI INIT 2ac64 14 .cfa: sp 0 + .ra: lr
STACK CFI 2ac68 .cfa: sp 4 +
STACK CFI INIT 2ac78 24 .cfa: sp 0 + .ra: lr
STACK CFI 2ac7c .cfa: sp 8 + .ra: .cfa -4 + ^ r11: .cfa -8 + ^
STACK CFI 2ac80 .cfa: r11 8 +
STACK CFI INIT 2ac9c 18 .cfa: sp 0 + .ra: lr
STACK CFI 2aca0 .cfa: sp 4 +
STACK CFI INIT 2acb4 54 .cfa: sp 0 + .ra: lr
STACK CFI 2acb8 .cfa: sp 8 + .ra: .cfa -4 + ^ r11: .cfa -8 + ^
STACK CFI 2acbc .cfa: r11 8 +
STACK CFI INIT 2ad08 d8 .cfa: sp 0 + .ra: lr
STACK CFI 2ad0c .cfa: sp 8 + .ra: .cfa -4 + ^ r11: .cfa -8 + ^
STACK CFI 2ad10 .cfa: r11 8 +
STACK CFI INIT 2ade0 2c .cfa: sp 0 + .ra: lr
STACK CFI 2ade4 .cfa: sp 8 + .ra: .cfa -4 + ^ r11: .cfa -8 + ^
STACK CFI 2ade8 .cfa: r11 8 +
STACK CFI INIT 2ae0c 78 .cfa: sp 0 + .ra: lr
STACK CFI 2ae10 .cfa: sp 8 + .ra: .cfa -4 + ^ r11: .cfa -8 + ^
STACK CFI 2ae14 .cfa: r11 8 +
STACK CFI INIT 2ae84 34 .cfa: sp 0 + .ra: lr
STACK CFI 2ae88 .cfa: sp 8 + .ra: .cfa -4 + ^ r11: .cfa -8 + ^
STACK CFI 2ae8c .cfa: r11 8 +
STACK CFI INIT 2aeb8 54 .cfa: sp 0 + .ra: lr
STACK CFI 2aebc .cfa: sp 8 + .ra: .cfa -4 + ^ r11: .cfa -8 + ^
STACK CFI 2aec0 .cfa: r11 8 +
STACK CFI INIT 2af0c 14 .cfa: sp 0 + .ra: lr
STACK CFI 2af10 .cfa: sp 4 +
STACK CFI INIT 2af20 24 .cfa: sp 0 + .ra: lr
STACK CFI 2af24 .cfa: sp 8 + .ra: .cfa -4 + ^ r11: .cfa -8 + ^
STACK CFI 2af28 .cfa: r11 8 +
STACK CFI INIT 2af44 20 .cfa: sp 0 + .ra: lr
STACK CFI 2af48 .cfa: sp 4 +
STACK CFI INIT 2af64 48 .cfa: sp 0 + .ra: lr
STACK CFI 2af68 .cfa: sp 8 + .ra: .cfa -4 + ^ r11: .cfa -8 + ^
STACK CFI 2af6c .cfa: r11 8 +
STACK CFI INIT 2afac 18 .cfa: sp 0 + .ra: lr
STACK CFI 2afb0 .cfa: sp 4 +
STACK CFI INIT 2afc4 54 .cfa: sp 0 + .ra: lr
STACK CFI 2afc8 .cfa: sp 8 + .ra: .cfa -4 + ^ r11: .cfa -8 + ^
STACK CFI 2afcc .cfa: r11 8 +
STACK CFI INIT 2b018 14 .cfa: sp 0 + .ra: lr
STACK CFI 2b01c .cfa: sp 4 +
STACK CFI INIT 2b02c 40 .cfa: sp 0 + .ra: lr
STACK CFI 2b030 .cfa: sp 8 + .ra: .cfa -4 + ^ r11: .cfa -8 + ^
STACK CFI 2b034 .cfa: r11 8 +
STACK CFI INIT 2b06c 14 .cfa: sp 0 + .ra: lr
STACK CFI 2b070 .cfa: sp 4 +
STACK CFI INIT 2b080 20 .cfa: sp 0 + .ra: lr
STACK CFI 2b084 .cfa: sp 8 +
STACK CFI INIT 2b0a0 28 .cfa: sp 0 + .ra: lr
STACK CFI 2b0a4 .cfa: sp 8 + .ra: .cfa -4 + ^ r11: .cfa -8 + ^
STACK CFI 2b0a8 .cfa: r11 8 +
STACK CFI INIT 2b0c8 28 .cfa: sp 0 + .ra: lr
STACK CFI 2b0cc .cfa: sp 8 + .ra: .cfa -4 + ^ r11: .cfa -8 + ^
STACK CFI 2b0d0 .cfa: r11 8 +
STACK CFI INIT 2b0f0 14 .cfa: sp 0 + .ra: lr
STACK CFI 2b0f4 .cfa: sp 8 +
STACK CFI INIT 2b104 30 .cfa: sp 0 + .ra: lr
STACK CFI 2b108 .cfa: sp 8 + .ra: .cfa -4 + ^ r11: .cfa -8 + ^
STACK CFI 2b10c .cfa: r11 8 +
STACK CFI INIT 2b134 18 .cfa: sp 0 + .ra: lr
STACK CFI 2b138 .cfa: sp 12 +
STACK CFI INIT 2b14c 44 .cfa: sp 0 + .ra: lr
STACK CFI 2b150 .cfa: sp 8 + .ra: .cfa -4 + ^ r11: .cfa -8 + ^
STACK CFI 2b154 .cfa: r11 8 +
STACK CFI INIT 2b190 7c .cfa: sp 0 + .ra: lr
STACK CFI 2b194 .cfa: sp 8 + .ra: .cfa -4 + ^ r11: .cfa -8 + ^
STACK CFI 2b198 .cfa: r11 8 +
STACK CFI INIT 2b20c 70 .cfa: sp 0 + .ra: lr
STACK CFI 2b210 .cfa: sp 8 + .ra: .cfa -4 + ^ r11: .cfa -8 + ^
STACK CFI 2b214 .cfa: r11 8 +
STACK CFI INIT 2b27c 78 .cfa: sp 0 + .ra: lr
STACK CFI 2b280 .cfa: sp 8 + .ra: .cfa -4 + ^ r11: .cfa -8 + ^
STACK CFI 2b284 .cfa: r11 8 +
STACK CFI INIT 2b2f4 88 .cfa: sp 0 + .ra: lr
STACK CFI 2b2f8 .cfa: sp 8 + .ra: .cfa -4 + ^ r11: .cfa -8 + ^
STACK CFI 2b2fc .cfa: r11 8 +
STACK CFI INIT 2b37c 14 .cfa: sp 0 + .ra: lr
STACK CFI 2b380 .cfa: sp 4 +
STACK CFI INIT 2b390 24 .cfa: sp 0 + .ra: lr
STACK CFI 2b394 .cfa: sp 8 +
STACK CFI INIT 2b3b4 434 .cfa: sp 0 + .ra: lr
STACK CFI 2b3b8 .cfa: sp 8 + .ra: .cfa -4 + ^ r11: .cfa -8 + ^
STACK CFI 2b3bc .cfa: r11 8 +
STACK CFI INIT 2b7e8 80 .cfa: sp 0 + .ra: lr
STACK CFI 2b7ec .cfa: sp 8 + .ra: .cfa -4 + ^ r11: .cfa -8 + ^
STACK CFI 2b7f0 .cfa: r11 8 +
STACK CFI INIT 2b868 44 .cfa: sp 0 + .ra: lr
STACK CFI 2b86c .cfa: sp 8 + .ra: .cfa -4 + ^ r11: .cfa -8 + ^
STACK CFI 2b870 .cfa: r11 8 +
STACK CFI INIT 2b8ac 58 .cfa: sp 0 + .ra: lr
STACK CFI 2b8b0 .cfa: sp 8 + .ra: .cfa -4 + ^ r11: .cfa -8 + ^
STACK CFI 2b8b4 .cfa: r11 8 +
STACK CFI INIT 2b904 50 .cfa: sp 0 + .ra: lr
STACK CFI 2b908 .cfa: sp 8 + .ra: .cfa -4 + ^ r11: .cfa -8 + ^
STACK CFI 2b90c .cfa: r11 8 +
STACK CFI INIT 2b954 14 .cfa: sp 0 + .ra: lr
STACK CFI 2b958 .cfa: sp 4 +
STACK CFI INIT 2b968 a4 .cfa: sp 0 + .ra: lr
STACK CFI 2b96c .cfa: sp 8 + .ra: .cfa -4 + ^ r11: .cfa -8 + ^
STACK CFI 2b970 .cfa: r11 8 +
STACK CFI INIT 2ba0c 4c .cfa: sp 0 + .ra: lr
STACK CFI 2ba10 .cfa: sp 8 + .ra: .cfa -4 + ^ r11: .cfa -8 + ^
STACK CFI 2ba14 .cfa: r11 8 +
STACK CFI INIT 2ba58 88 .cfa: sp 0 + .ra: lr
STACK CFI 2ba5c .cfa: sp 8 + .ra: .cfa -4 + ^ r11: .cfa -8 + ^
STACK CFI 2ba60 .cfa: r11 8 +
STACK CFI INIT 2bae0 130 .cfa: sp 0 + .ra: lr
STACK CFI 2bae4 .cfa: sp 8 + .ra: .cfa -4 + ^ r11: .cfa -8 + ^
STACK CFI 2bae8 .cfa: r11 8 +
STACK CFI INIT 2bc10 58 .cfa: sp 0 + .ra: lr
STACK CFI 2bc14 .cfa: sp 8 + .ra: .cfa -4 + ^ r11: .cfa -8 + ^
STACK CFI 2bc18 .cfa: r11 8 +
STACK CFI INIT 2bc68 20 .cfa: sp 0 + .ra: lr
STACK CFI 2bc6c .cfa: sp 12 +
STACK CFI INIT 2bc88 10 .cfa: sp 0 + .ra: lr
STACK CFI 2bc8c .cfa: sp 8 +
STACK CFI INIT 2bc98 74 .cfa: sp 0 + .ra: lr
STACK CFI 2bc9c .cfa: sp 8 + .ra: .cfa -4 + ^ r11: .cfa -8 + ^
STACK CFI 2bca0 .cfa: r11 8 +
STACK CFI INIT 2bd0c 60 .cfa: sp 0 + .ra: lr
STACK CFI 2bd10 .cfa: sp 8 + .ra: .cfa -4 + ^ r11: .cfa -8 + ^
STACK CFI 2bd14 .cfa: r11 8 +
STACK CFI INIT 2bd6c 20 .cfa: sp 0 + .ra: lr
STACK CFI 2bd70 .cfa: sp 8 + .ra: .cfa -4 + ^ r11: .cfa -8 + ^
STACK CFI 2bd74 .cfa: r11 8 +
STACK CFI INIT 2bd8c 38 .cfa: sp 0 + .ra: lr
STACK CFI 2bd90 .cfa: sp 8 + .ra: .cfa -4 + ^ r11: .cfa -8 + ^
STACK CFI 2bd94 .cfa: r11 8 +
STACK CFI INIT 2bdc4 20 .cfa: sp 0 + .ra: lr
STACK CFI 2bdc8 .cfa: sp 8 + .ra: .cfa -4 + ^ r11: .cfa -8 + ^
STACK CFI 2bdcc .cfa: r11 8 +
STACK CFI INIT 2bde4 7c .cfa: sp 0 + .ra: lr
STACK CFI 2bde8 .cfa: sp 8 + .ra: .cfa -4 + ^ r11: .cfa -8 + ^
STACK CFI 2bdec .cfa: r11 8 +
STACK CFI INIT 2be60 14 .cfa: sp 0 + .ra: lr
STACK CFI 2be64 .cfa: sp 4 +
STACK CFI INIT 2be74 c0 .cfa: sp 0 + .ra: lr
STACK CFI 2be78 .cfa: sp 8 + .ra: .cfa -4 + ^ r11: .cfa -8 + ^
STACK CFI 2be7c .cfa: r11 8 +
STACK CFI INIT 2bf34 20 .cfa: sp 0 + .ra: lr
STACK CFI 2bf38 .cfa: sp 8 + .ra: .cfa -4 + ^ r11: .cfa -8 + ^
STACK CFI 2bf3c .cfa: r11 8 +
STACK CFI INIT 2bf54 38 .cfa: sp 0 + .ra: lr
STACK CFI 2bf58 .cfa: sp 8 + .ra: .cfa -4 + ^ r11: .cfa -8 + ^
STACK CFI 2bf5c .cfa: r11 8 +
STACK CFI INIT 2bf8c 20 .cfa: sp 0 + .ra: lr
STACK CFI 2bf90 .cfa: sp 8 + .ra: .cfa -4 + ^ r11: .cfa -8 + ^
STACK CFI 2bf94 .cfa: r11 8 +
STACK CFI INIT 2bfac 5c .cfa: sp 0 + .ra: lr
STACK CFI 2bfb0 .cfa: sp 8 + .ra: .cfa -4 + ^ r11: .cfa -8 + ^
STACK CFI 2bfb4 .cfa: r11 8 +
STACK CFI INIT 2c008 24 .cfa: sp 0 + .ra: lr
STACK CFI 2c00c .cfa: sp 8 +
STACK CFI INIT 2c02c 74 .cfa: sp 0 + .ra: lr
STACK CFI 2c030 .cfa: sp 8 + .ra: .cfa -4 + ^ r11: .cfa -8 + ^
STACK CFI 2c034 .cfa: r11 8 +
STACK CFI INIT 2c0a0 14 .cfa: sp 0 + .ra: lr
STACK CFI 2c0a4 .cfa: sp 4 +
STACK CFI INIT 2c0b4 64 .cfa: sp 0 + .ra: lr
STACK CFI 2c0b8 .cfa: sp 8 + .ra: .cfa -4 + ^ r11: .cfa -8 + ^
STACK CFI 2c0bc .cfa: r11 8 +
STACK CFI INIT 2c118 28 .cfa: sp 0 + .ra: lr
STACK CFI 2c11c .cfa: sp 12 +
STACK CFI INIT 2c140 54 .cfa: sp 0 + .ra: lr
STACK CFI 2c144 .cfa: sp 8 + .ra: .cfa -4 + ^ r11: .cfa -8 + ^
STACK CFI 2c148 .cfa: r11 8 +
STACK CFI INIT 2c194 54 .cfa: sp 0 + .ra: lr
STACK CFI 2c198 .cfa: sp 8 + .ra: .cfa -4 + ^ r11: .cfa -8 + ^
STACK CFI 2c19c .cfa: r11 8 +
STACK CFI INIT 2c1e8 14 .cfa: sp 0 + .ra: lr
STACK CFI 2c1ec .cfa: sp 4 +
STACK CFI INIT 2c1fc 40 .cfa: sp 0 + .ra: lr
STACK CFI 2c200 .cfa: sp 8 + .ra: .cfa -4 + ^ r11: .cfa -8 + ^
STACK CFI 2c204 .cfa: r11 8 +
STACK CFI INIT 397d4 50 .cfa: sp 0 + .ra: lr
STACK CFI 397d8 .cfa: sp 8 + .ra: .cfa -4 + ^ r11: .cfa -8 + ^
STACK CFI 397dc .cfa: r11 8 +
STACK CFI INIT 39824 7c .cfa: sp 0 + .ra: lr
STACK CFI 39828 .cfa: sp 8 + .ra: .cfa -4 + ^ r11: .cfa -8 + ^
STACK CFI 3982c .cfa: r11 8 +
STACK CFI INIT 398a0 7c .cfa: sp 0 + .ra: lr
STACK CFI 398a4 .cfa: sp 8 + .ra: .cfa -4 + ^ r11: .cfa -8 + ^
STACK CFI 398a8 .cfa: r11 8 +
STACK CFI INIT 2c23c 38 .cfa: sp 0 + .ra: lr
STACK CFI 2c240 .cfa: sp 8 + .ra: .cfa -4 + ^ r11: .cfa -8 + ^
STACK CFI 2c244 .cfa: r11 8 +
STACK CFI INIT 2c274 68 .cfa: sp 0 + .ra: lr
STACK CFI 2c278 .cfa: sp 8 + .ra: .cfa -4 + ^ r11: .cfa -8 + ^
STACK CFI 2c27c .cfa: r11 8 +
STACK CFI INIT 2c2dc 48 .cfa: sp 0 + .ra: lr
STACK CFI 2c2e0 .cfa: sp 8 + .ra: .cfa -4 + ^ r11: .cfa -8 + ^
STACK CFI 2c2e4 .cfa: r11 8 +
STACK CFI INIT 2c324 38 .cfa: sp 0 + .ra: lr
STACK CFI 2c328 .cfa: sp 8 + .ra: .cfa -4 + ^ r11: .cfa -8 + ^
STACK CFI 2c32c .cfa: r11 8 +
STACK CFI INIT 2c35c 20 .cfa: sp 0 + .ra: lr
STACK CFI 2c360 .cfa: sp 8 +
STACK CFI INIT 2c37c 14 .cfa: sp 0 + .ra: lr
STACK CFI 2c380 .cfa: sp 4 +
STACK CFI INIT 3991c 78 .cfa: sp 0 + .ra: lr
STACK CFI 39920 .cfa: sp 8 + .ra: .cfa -4 + ^ r11: .cfa -8 + ^
STACK CFI 39924 .cfa: r11 8 +
STACK CFI INIT 39994 34 .cfa: sp 0 + .ra: lr
STACK CFI 39998 .cfa: sp 8 +
STACK CFI INIT 399c8 74 .cfa: sp 0 + .ra: lr
STACK CFI 399cc .cfa: sp 8 + .ra: .cfa -4 + ^ r11: .cfa -8 + ^
STACK CFI 399d0 .cfa: r11 8 +
STACK CFI INIT 39a3c 28 .cfa: sp 0 + .ra: lr
STACK CFI 39a40 .cfa: sp 8 + .ra: .cfa -4 + ^ r11: .cfa -8 + ^
STACK CFI 39a44 .cfa: r11 8 +
STACK CFI INIT 39a64 20 .cfa: sp 0 + .ra: lr
STACK CFI 39a68 .cfa: sp 4 +
STACK CFI INIT 39a84 20 .cfa: sp 0 + .ra: lr
STACK CFI 39a88 .cfa: sp 8 +
STACK CFI INIT 39aa4 14 .cfa: sp 0 + .ra: lr
STACK CFI 39aa8 .cfa: sp 4 +
STACK CFI INIT 39ab8 30 .cfa: sp 0 + .ra: lr
STACK CFI 39abc .cfa: sp 16 +
STACK CFI INIT 39ae8 78 .cfa: sp 0 + .ra: lr
STACK CFI 39aec .cfa: sp 8 + .ra: .cfa -4 + ^ r11: .cfa -8 + ^
STACK CFI 39af0 .cfa: r11 8 +
STACK CFI INIT 39b60 44 .cfa: sp 0 + .ra: lr
STACK CFI 39b64 .cfa: sp 8 + .ra: .cfa -4 + ^ r11: .cfa -8 + ^
STACK CFI 39b68 .cfa: r11 8 +
STACK CFI INIT 39ba4 18 .cfa: sp 0 + .ra: lr
STACK CFI 39ba8 .cfa: sp 4 +
STACK CFI INIT 39bbc 18 .cfa: sp 0 + .ra: lr
STACK CFI 39bc0 .cfa: sp 4 +
STACK CFI INIT 39bd4 18 .cfa: sp 0 + .ra: lr
STACK CFI 39bd8 .cfa: sp 4 +
STACK CFI INIT 39bec 40 .cfa: sp 0 + .ra: lr
STACK CFI 39bf0 .cfa: sp 8 + .ra: .cfa -4 + ^ r11: .cfa -8 + ^
STACK CFI 39bf4 .cfa: r11 8 +
STACK CFI INIT 39c2c 8 .cfa: sp 0 + .ra: lr
STACK CFI INIT 39c34 58 .cfa: sp 0 + .ra: lr
STACK CFI 39c38 .cfa: sp 8 + .ra: .cfa -4 + ^ r11: .cfa -8 + ^
STACK CFI 39c3c .cfa: r11 8 +
STACK CFI INIT 39c8c 78 .cfa: sp 0 + .ra: lr
STACK CFI 39c90 .cfa: sp 8 + .ra: .cfa -4 + ^ r11: .cfa -8 + ^
STACK CFI 39c94 .cfa: r11 8 +
STACK CFI INIT 39d04 44 .cfa: sp 0 + .ra: lr
STACK CFI 39d08 .cfa: sp 8 + .ra: .cfa -4 + ^ r11: .cfa -8 + ^
STACK CFI 39d0c .cfa: r11 8 +
STACK CFI INIT 39d48 18 .cfa: sp 0 + .ra: lr
STACK CFI 39d4c .cfa: sp 4 +
STACK CFI INIT 39d60 66c .cfa: sp 0 + .ra: lr
STACK CFI 39d64 .cfa: sp 24 + .ra: .cfa -4 + ^ r10: .cfa -12 + ^ r11: .cfa -8 + ^ r4: .cfa -24 + ^ r5: .cfa -20 + ^ r6: .cfa -16 + ^
STACK CFI 39d68 .cfa: r11 8 +
STACK CFI INIT 3a3cc 268 .cfa: sp 0 + .ra: lr
STACK CFI 3a3d0 .cfa: sp 24 + .ra: .cfa -4 + ^ r11: .cfa -8 + ^ r4: .cfa -24 + ^ r5: .cfa -20 + ^ r6: .cfa -16 + ^ r7: .cfa -12 + ^
STACK CFI 3a3d4 .cfa: r11 8 +
STACK CFI INIT 3a634 40 .cfa: sp 0 + .ra: lr
STACK CFI 3a638 .cfa: sp 8 + .ra: .cfa -4 + ^ r11: .cfa -8 + ^
STACK CFI 3a63c .cfa: r11 8 +
STACK CFI INIT 3a674 8 .cfa: sp 0 + .ra: lr
STACK CFI INIT 3a67c 3c .cfa: sp 0 + .ra: lr
STACK CFI 3a680 .cfa: sp 8 + .ra: .cfa -4 + ^ r11: .cfa -8 + ^
STACK CFI 3a684 .cfa: r11 8 +
STACK CFI INIT 3a6b8 9c .cfa: sp 0 + .ra: lr
STACK CFI 3a6bc .cfa: sp 8 + .ra: .cfa -4 + ^ r11: .cfa -8 + ^
STACK CFI 3a6c0 .cfa: r11 8 +
STACK CFI INIT 3a754 298 .cfa: sp 0 + .ra: lr
STACK CFI 3a758 .cfa: sp 16 + .ra: .cfa -4 + ^ r11: .cfa -8 + ^ r4: .cfa -16 + ^ r5: .cfa -12 + ^
STACK CFI 3a75c .cfa: r11 8 +
STACK CFI INIT 3a9ec 7c .cfa: sp 0 + .ra: lr
STACK CFI 3a9f0 .cfa: sp 8 + .ra: .cfa -4 + ^ r11: .cfa -8 + ^
STACK CFI 3a9f4 .cfa: r11 8 +
STACK CFI INIT 3aa68 74 .cfa: sp 0 + .ra: lr
STACK CFI 3aa6c .cfa: sp 8 + .ra: .cfa -4 + ^ r11: .cfa -8 + ^
STACK CFI 3aa70 .cfa: sp 32 +
STACK CFI INIT 3aadc b8 .cfa: sp 0 + .ra: lr
STACK CFI 3aae0 .cfa: sp 8 + .ra: .cfa -4 + ^ r11: .cfa -8 + ^
STACK CFI 3aae4 .cfa: sp 32 +
STACK CFI INIT 23864 44 .cfa: sp 0 + .ra: lr
STACK CFI 23868 .cfa: sp 8 + .ra: .cfa -4 + ^ r11: .cfa -8 + ^
STACK CFI 2386c .cfa: r11 8 +
STACK CFI INIT 2dd88 28 .cfa: sp 0 + .ra: lr
STACK CFI 2dd8c .cfa: sp 8 + .ra: .cfa -4 + ^ r11: .cfa -8 + ^
STACK CFI 2dd90 .cfa: r11 8 +
STACK CFI INIT 3ab94 40 .cfa: sp 0 + .ra: lr
STACK CFI 3ab98 .cfa: sp 8 + .ra: .cfa -4 + ^ r11: .cfa -8 + ^
STACK CFI 3ab9c .cfa: r11 8 +
STACK CFI INIT 3abd4 208 .cfa: sp 0 + .ra: lr
STACK CFI 3abd8 .cfa: sp 8 + .ra: .cfa -4 + ^ r11: .cfa -8 + ^
STACK CFI 3abdc .cfa: r11 8 +
STACK CFI INIT 3addc 68 .cfa: sp 0 + .ra: lr
STACK CFI 3ade0 .cfa: sp 8 + .ra: .cfa -4 + ^ r11: .cfa -8 + ^
STACK CFI 3ade4 .cfa: r11 8 +
STACK CFI INIT 3ae44 78 .cfa: sp 0 + .ra: lr
STACK CFI 3ae48 .cfa: sp 8 + .ra: .cfa -4 + ^ r11: .cfa -8 + ^
STACK CFI 3ae4c .cfa: r11 8 +
STACK CFI INIT 23d8c 28 .cfa: sp 0 + .ra: lr
STACK CFI 23d90 .cfa: sp 8 + .ra: .cfa -4 + ^ r11: .cfa -8 + ^
STACK CFI 23d94 .cfa: r11 8 +
STACK CFI INIT 3aebc 9c .cfa: sp 0 + .ra: lr
STACK CFI 3aec0 .cfa: sp 8 + .ra: .cfa -4 + ^ r11: .cfa -8 + ^
STACK CFI 3aec4 .cfa: r11 8 +
STACK CFI INIT 3af58 6c .cfa: sp 0 + .ra: lr
STACK CFI 3af5c .cfa: sp 8 + .ra: .cfa -4 + ^ r11: .cfa -8 + ^
STACK CFI 3af60 .cfa: sp 32 +
STACK CFI INIT 3afc4 8 .cfa: sp 0 + .ra: lr
STACK CFI INIT 2ddb0 30 .cfa: sp 0 + .ra: lr
STACK CFI 2ddb4 .cfa: sp 8 +
STACK CFI INIT 2e13c a0 .cfa: sp 0 + .ra: lr
STACK CFI 2e140 .cfa: sp 8 + .ra: .cfa -4 + ^ r11: .cfa -8 + ^
STACK CFI 2e144 .cfa: r11 8 +
STACK CFI INIT 2dde0 250 .cfa: sp 0 + .ra: lr
STACK CFI 2dde4 .cfa: sp 8 + .ra: .cfa -4 + ^ r11: .cfa -8 + ^
STACK CFI 2dde8 .cfa: r11 8 +
STACK CFI INIT 25238 70 .cfa: sp 0 + .ra: lr
STACK CFI 2523c .cfa: sp 8 + .ra: .cfa -4 + ^ r11: .cfa -8 + ^
STACK CFI 25240 .cfa: r11 8 +
STACK CFI INIT 3afcc 8c .cfa: sp 0 + .ra: lr
STACK CFI 3afd0 .cfa: sp 8 + .ra: .cfa -4 + ^ r11: .cfa -8 + ^
STACK CFI 3afd4 .cfa: r11 8 +
STACK CFI INIT 3b058 58 .cfa: sp 0 + .ra: lr
STACK CFI 3b05c .cfa: sp 8 + .ra: .cfa -4 + ^ r11: .cfa -8 + ^
STACK CFI 3b060 .cfa: r11 8 +
STACK CFI INIT 29494 18 .cfa: sp 0 + .ra: lr
STACK CFI 29498 .cfa: sp 4 +
STACK CFI INIT 3b0b0 18 .cfa: sp 0 + .ra: lr
STACK CFI 3b0b4 .cfa: sp 4 +
STACK CFI INIT 3b0c8 30 .cfa: sp 0 + .ra: lr
STACK CFI 3b0cc .cfa: sp 16 +
STACK CFI INIT 3b0f8 78 .cfa: sp 0 + .ra: lr
STACK CFI 3b0fc .cfa: sp 8 + .ra: .cfa -4 + ^ r11: .cfa -8 + ^
STACK CFI 3b100 .cfa: r11 8 +
STACK CFI INIT 3b170 88 .cfa: sp 0 + .ra: lr
STACK CFI 3b174 .cfa: sp 8 + .ra: .cfa -4 + ^ r11: .cfa -8 + ^
STACK CFI 3b178 .cfa: r11 8 +
STACK CFI INIT 3b1f8 c8 .cfa: sp 0 + .ra: lr
STACK CFI 3b1fc .cfa: sp 8 + .ra: .cfa -4 + ^ r11: .cfa -8 + ^
STACK CFI 3b200 .cfa: r11 8 +
STACK CFI INIT 3b2c0 40 .cfa: sp 0 + .ra: lr
STACK CFI 3b2c4 .cfa: sp 8 + .ra: .cfa -4 + ^ r11: .cfa -8 + ^
STACK CFI 3b2c8 .cfa: r11 8 +
STACK CFI INIT 3b300 78 .cfa: sp 0 + .ra: lr
STACK CFI 3b304 .cfa: sp 8 + .ra: .cfa -4 + ^ r11: .cfa -8 + ^
STACK CFI 3b308 .cfa: r11 8 +
STACK CFI INIT 3b378 a0 .cfa: sp 0 + .ra: lr
STACK CFI 3b37c .cfa: sp 8 + .ra: .cfa -4 + ^ r11: .cfa -8 + ^
STACK CFI 3b380 .cfa: r11 8 +
STACK CFI INIT 3b418 18 .cfa: sp 0 + .ra: lr
STACK CFI 3b41c .cfa: sp 4 +
STACK CFI INIT 3b430 b8 .cfa: sp 0 + .ra: lr
STACK CFI 3b434 .cfa: sp 8 + .ra: .cfa -4 + ^ r11: .cfa -8 + ^
STACK CFI 3b438 .cfa: r11 8 +
STACK CFI INIT 3b4e8 9c .cfa: sp 0 + .ra: lr
STACK CFI 3b4ec .cfa: sp 8 + .ra: .cfa -4 + ^ r11: .cfa -8 + ^
STACK CFI 3b4f0 .cfa: r11 8 +
STACK CFI INIT 3b584 24 .cfa: sp 0 + .ra: lr
STACK CFI 3b588 .cfa: sp 8 +
STACK CFI INIT 3b5a8 b0 .cfa: sp 0 + .ra: lr
STACK CFI 3b5ac .cfa: sp 8 + .ra: .cfa -4 + ^ r11: .cfa -8 + ^
STACK CFI 3b5b0 .cfa: r11 8 +
STACK CFI INIT 3b658 38 .cfa: sp 0 + .ra: lr
STACK CFI 3b65c .cfa: sp 8 + .ra: .cfa -4 + ^ r11: .cfa -8 + ^
STACK CFI 3b660 .cfa: r11 8 +
STACK CFI INIT 3b690 40 .cfa: sp 0 + .ra: lr
STACK CFI 3b694 .cfa: sp 8 + .ra: .cfa -4 + ^ r11: .cfa -8 + ^
STACK CFI 3b698 .cfa: r11 8 +
STACK CFI INIT 3b6d0 8 .cfa: sp 0 + .ra: lr
STACK CFI INIT 3b6d8 58 .cfa: sp 0 + .ra: lr
STACK CFI 3b6dc .cfa: sp 8 + .ra: .cfa -4 + ^ r11: .cfa -8 + ^
STACK CFI 3b6e0 .cfa: r11 8 +
STACK CFI INIT 3b730 8 .cfa: sp 0 + .ra: lr
STACK CFI INIT 3b738 50 .cfa: sp 0 + .ra: lr
STACK CFI 3b73c .cfa: sp 8 + .ra: .cfa -4 + ^ r11: .cfa -8 + ^
STACK CFI 3b740 .cfa: r11 8 +
STACK CFI INIT 3b788 44 .cfa: sp 0 + .ra: lr
STACK CFI 3b78c .cfa: sp 8 + .ra: .cfa -4 + ^ r11: .cfa -8 + ^
STACK CFI 3b790 .cfa: r11 8 +
STACK CFI INIT 3b7cc 38 .cfa: sp 0 + .ra: lr
STACK CFI 3b7d0 .cfa: sp 8 + .ra: .cfa -4 + ^ r11: .cfa -8 + ^
STACK CFI 3b7d4 .cfa: r11 8 +
STACK CFI INIT 3b804 13c .cfa: sp 0 + .ra: lr
STACK CFI 3b808 .cfa: sp 8 + .ra: .cfa -4 + ^ r11: .cfa -8 + ^
STACK CFI 3b80c .cfa: r11 8 +
STACK CFI INIT 3b940 38 .cfa: sp 0 + .ra: lr
STACK CFI 3b944 .cfa: sp 8 + .ra: .cfa -4 + ^ r11: .cfa -8 + ^
STACK CFI 3b948 .cfa: r11 8 +
STACK CFI INIT 3b978 54 .cfa: sp 0 + .ra: lr
STACK CFI 3b97c .cfa: sp 8 + .ra: .cfa -4 + ^ r11: .cfa -8 + ^
STACK CFI 3b980 .cfa: r11 8 +
STACK CFI INIT 3b9cc 60 .cfa: sp 0 + .ra: lr
STACK CFI 3b9d0 .cfa: sp 8 + .ra: .cfa -4 + ^ r11: .cfa -8 + ^
STACK CFI 3b9d4 .cfa: r11 8 +
STACK CFI INIT 3ba2c 24 .cfa: sp 0 + .ra: lr
STACK CFI 3ba30 .cfa: sp 8 + .ra: .cfa -4 + ^ r11: .cfa -8 + ^
STACK CFI 3ba34 .cfa: r11 8 +
STACK CFI INIT 3ba50 20 .cfa: sp 0 + .ra: lr
STACK CFI 3ba54 .cfa: sp 4 +
STACK CFI INIT 3ba70 20 .cfa: sp 0 + .ra: lr
STACK CFI 3ba74 .cfa: sp 4 +
STACK CFI INIT 3ba90 b8 .cfa: sp 0 + .ra: lr
STACK CFI 3ba94 .cfa: sp 8 + .ra: .cfa -4 + ^ r11: .cfa -8 + ^
STACK CFI 3ba98 .cfa: r11 8 +
STACK CFI INIT 3bb48 74 .cfa: sp 0 + .ra: lr
STACK CFI 3bb4c .cfa: sp 8 + .ra: .cfa -4 + ^ r11: .cfa -8 + ^
STACK CFI 3bb50 .cfa: r11 8 +
STACK CFI INIT 3bbbc 68 .cfa: sp 0 + .ra: lr
STACK CFI 3bbc0 .cfa: sp 8 + .ra: .cfa -4 + ^ r11: .cfa -8 + ^
STACK CFI 3bbc4 .cfa: r11 8 +
STACK CFI INIT 3bc24 14 .cfa: sp 0 + .ra: lr
STACK CFI 3bc28 .cfa: sp 4 +
STACK CFI INIT 3bc38 48 .cfa: sp 0 + .ra: lr
STACK CFI 3bc3c .cfa: sp 8 + .ra: .cfa -4 + ^ r11: .cfa -8 + ^
STACK CFI 3bc40 .cfa: r11 8 +
STACK CFI INIT 3bc80 24 .cfa: sp 0 + .ra: lr
STACK CFI 3bc84 .cfa: sp 8 + .ra: .cfa -4 + ^ r11: .cfa -8 + ^
STACK CFI 3bc88 .cfa: r11 8 +
STACK CFI INIT 3bca4 14 .cfa: sp 0 + .ra: lr
STACK CFI 3bca8 .cfa: sp 4 +
STACK CFI INIT 3bcb8 24 .cfa: sp 0 + .ra: lr
STACK CFI 3bcbc .cfa: sp 8 + .ra: .cfa -4 + ^ r11: .cfa -8 + ^
STACK CFI 3bcc0 .cfa: r11 8 +
STACK CFI INIT 3bcdc 18 .cfa: sp 0 + .ra: lr
STACK CFI 3bce0 .cfa: sp 4 +
STACK CFI INIT 3bcf4 54 .cfa: sp 0 + .ra: lr
STACK CFI 3bcf8 .cfa: sp 8 + .ra: .cfa -4 + ^ r11: .cfa -8 + ^
STACK CFI 3bcfc .cfa: r11 8 +
STACK CFI INIT 3bd48 d8 .cfa: sp 0 + .ra: lr
STACK CFI 3bd4c .cfa: sp 8 + .ra: .cfa -4 + ^ r11: .cfa -8 + ^
STACK CFI 3bd50 .cfa: r11 8 +
STACK CFI INIT 3be20 2c .cfa: sp 0 + .ra: lr
STACK CFI 3be24 .cfa: sp 8 + .ra: .cfa -4 + ^ r11: .cfa -8 + ^
STACK CFI 3be28 .cfa: r11 8 +
STACK CFI INIT 3be4c 78 .cfa: sp 0 + .ra: lr
STACK CFI 3be50 .cfa: sp 8 + .ra: .cfa -4 + ^ r11: .cfa -8 + ^
STACK CFI 3be54 .cfa: r11 8 +
STACK CFI INIT 3bec4 34 .cfa: sp 0 + .ra: lr
STACK CFI 3bec8 .cfa: sp 8 + .ra: .cfa -4 + ^ r11: .cfa -8 + ^
STACK CFI 3becc .cfa: r11 8 +
STACK CFI INIT 3bef8 54 .cfa: sp 0 + .ra: lr
STACK CFI 3befc .cfa: sp 8 + .ra: .cfa -4 + ^ r11: .cfa -8 + ^
STACK CFI 3bf00 .cfa: r11 8 +
STACK CFI INIT 3bf4c 14 .cfa: sp 0 + .ra: lr
STACK CFI 3bf50 .cfa: sp 4 +
STACK CFI INIT 3bf60 24 .cfa: sp 0 + .ra: lr
STACK CFI 3bf64 .cfa: sp 8 + .ra: .cfa -4 + ^ r11: .cfa -8 + ^
STACK CFI 3bf68 .cfa: r11 8 +
STACK CFI INIT 3bf84 20 .cfa: sp 0 + .ra: lr
STACK CFI 3bf88 .cfa: sp 4 +
STACK CFI INIT 3bfa4 48 .cfa: sp 0 + .ra: lr
STACK CFI 3bfa8 .cfa: sp 8 + .ra: .cfa -4 + ^ r11: .cfa -8 + ^
STACK CFI 3bfac .cfa: r11 8 +
STACK CFI INIT 3bfec 18 .cfa: sp 0 + .ra: lr
STACK CFI 3bff0 .cfa: sp 4 +
STACK CFI INIT 3c004 54 .cfa: sp 0 + .ra: lr
STACK CFI 3c008 .cfa: sp 8 + .ra: .cfa -4 + ^ r11: .cfa -8 + ^
STACK CFI 3c00c .cfa: r11 8 +
STACK CFI INIT 3c058 14 .cfa: sp 0 + .ra: lr
STACK CFI 3c05c .cfa: sp 4 +
STACK CFI INIT 3c06c 40 .cfa: sp 0 + .ra: lr
STACK CFI 3c070 .cfa: sp 8 + .ra: .cfa -4 + ^ r11: .cfa -8 + ^
STACK CFI 3c074 .cfa: r11 8 +
STACK CFI INIT 3c0ac 14 .cfa: sp 0 + .ra: lr
STACK CFI 3c0b0 .cfa: sp 4 +
STACK CFI INIT 3c0c0 20 .cfa: sp 0 + .ra: lr
STACK CFI 3c0c4 .cfa: sp 8 +
STACK CFI INIT 3c0e0 28 .cfa: sp 0 + .ra: lr
STACK CFI 3c0e4 .cfa: sp 8 + .ra: .cfa -4 + ^ r11: .cfa -8 + ^
STACK CFI 3c0e8 .cfa: r11 8 +
STACK CFI INIT 3c108 28 .cfa: sp 0 + .ra: lr
STACK CFI 3c10c .cfa: sp 8 + .ra: .cfa -4 + ^ r11: .cfa -8 + ^
STACK CFI 3c110 .cfa: r11 8 +
STACK CFI INIT 3c130 14 .cfa: sp 0 + .ra: lr
STACK CFI 3c134 .cfa: sp 8 +
STACK CFI INIT 3c144 30 .cfa: sp 0 + .ra: lr
STACK CFI 3c148 .cfa: sp 8 + .ra: .cfa -4 + ^ r11: .cfa -8 + ^
STACK CFI 3c14c .cfa: r11 8 +
STACK CFI INIT 3c174 18 .cfa: sp 0 + .ra: lr
STACK CFI 3c178 .cfa: sp 12 +
STACK CFI INIT 3c18c 1f0 .cfa: sp 0 + .ra: lr
STACK CFI 3c190 .cfa: sp 8 + .ra: .cfa -4 + ^ r11: .cfa -8 + ^
STACK CFI 3c194 .cfa: r11 8 +
STACK CFI INIT 3c37c 70 .cfa: sp 0 + .ra: lr
STACK CFI 3c380 .cfa: sp 8 + .ra: .cfa -4 + ^ r11: .cfa -8 + ^
STACK CFI 3c384 .cfa: r11 8 +
STACK CFI INIT 3c3ec 7c .cfa: sp 0 + .ra: lr
STACK CFI 3c3f0 .cfa: sp 8 + .ra: .cfa -4 + ^ r11: .cfa -8 + ^
STACK CFI 3c3f4 .cfa: r11 8 +
STACK CFI INIT 3c468 130 .cfa: sp 0 + .ra: lr
STACK CFI 3c46c .cfa: sp 8 + .ra: .cfa -4 + ^ r11: .cfa -8 + ^
STACK CFI 3c470 .cfa: r11 8 +
STACK CFI INIT 3c598 58 .cfa: sp 0 + .ra: lr
STACK CFI 3c59c .cfa: sp 8 + .ra: .cfa -4 + ^ r11: .cfa -8 + ^
STACK CFI 3c5a0 .cfa: r11 8 +
STACK CFI INIT 3c5f0 28 .cfa: sp 0 + .ra: lr
STACK CFI 3c5f4 .cfa: sp 8 + .ra: .cfa -4 + ^ r11: .cfa -8 + ^
STACK CFI 3c5f8 .cfa: r11 8 +
STACK CFI INIT 3c618 28 .cfa: sp 0 + .ra: lr
STACK CFI 3c61c .cfa: sp 8 + .ra: .cfa -4 + ^ r11: .cfa -8 + ^
STACK CFI 3c620 .cfa: r11 8 +
STACK CFI INIT 3c640 20 .cfa: sp 0 + .ra: lr
STACK CFI 3c644 .cfa: sp 8 +
STACK CFI INIT 3c660 68 .cfa: sp 0 + .ra: lr
STACK CFI 3c664 .cfa: sp 8 + .ra: .cfa -4 + ^ r11: .cfa -8 + ^
STACK CFI 3c668 .cfa: r11 8 +
STACK CFI INIT 3c6c8 48 .cfa: sp 0 + .ra: lr
STACK CFI 3c6cc .cfa: sp 8 + .ra: .cfa -4 + ^ r11: .cfa -8 + ^
STACK CFI 3c6d0 .cfa: r11 8 +
STACK CFI INIT 3c710 38 .cfa: sp 0 + .ra: lr
STACK CFI 3c714 .cfa: sp 8 + .ra: .cfa -4 + ^ r11: .cfa -8 + ^
STACK CFI 3c718 .cfa: r11 8 +
STACK CFI INIT 3c748 58 .cfa: sp 0 + .ra: lr
STACK CFI 3c74c .cfa: sp 8 + .ra: .cfa -4 + ^ r11: .cfa -8 + ^
STACK CFI 3c750 .cfa: r11 8 +
STACK CFI INIT 3c7a0 58 .cfa: sp 0 + .ra: lr
STACK CFI 3c7a4 .cfa: sp 8 + .ra: .cfa -4 + ^ r11: .cfa -8 + ^
STACK CFI 3c7a8 .cfa: r11 8 +
STACK CFI INIT 3c7f8 38 .cfa: sp 0 + .ra: lr
STACK CFI 3c7fc .cfa: sp 8 + .ra: .cfa -4 + ^ r11: .cfa -8 + ^
STACK CFI 3c800 .cfa: r11 8 +
STACK CFI INIT 3c830 68 .cfa: sp 0 + .ra: lr
STACK CFI 3c834 .cfa: sp 8 + .ra: .cfa -4 + ^ r11: .cfa -8 + ^
STACK CFI 3c838 .cfa: r11 8 +
STACK CFI INIT 3c898 78 .cfa: sp 0 + .ra: lr
STACK CFI 3c89c .cfa: sp 8 + .ra: .cfa -4 + ^ r11: .cfa -8 + ^
STACK CFI 3c8a0 .cfa: r11 8 +
STACK CFI INIT 3c910 38 .cfa: sp 0 + .ra: lr
STACK CFI 3c914 .cfa: sp 8 + .ra: .cfa -4 + ^ r11: .cfa -8 + ^
STACK CFI 3c918 .cfa: r11 8 +
STACK CFI INIT 2540c 38 .cfa: sp 0 + .ra: lr
STACK CFI 25410 .cfa: sp 8 + .ra: .cfa -4 + ^ r11: .cfa -8 + ^
STACK CFI 25414 .cfa: r11 8 +
STACK CFI INIT 25444 4c .cfa: sp 0 + .ra: lr
STACK CFI 25448 .cfa: sp 8 + .ra: .cfa -4 + ^ r11: .cfa -8 + ^
STACK CFI 2544c .cfa: r11 8 +
STACK CFI INIT 25490 1c .cfa: sp 0 + .ra: lr
STACK CFI 25494 .cfa: sp 4 +
STACK CFI INIT 254ac 38 .cfa: sp 0 + .ra: lr
STACK CFI 254b0 .cfa: sp 8 + .ra: .cfa -4 + ^ r11: .cfa -8 + ^
STACK CFI 254b4 .cfa: r11 8 +
STACK CFI INIT 254e4 14 .cfa: sp 0 + .ra: lr
STACK CFI 254e8 .cfa: sp 4 +
STACK CFI INIT 254f8 38 .cfa: sp 0 + .ra: lr
STACK CFI 254fc .cfa: sp 8 + .ra: .cfa -4 + ^ r11: .cfa -8 + ^
STACK CFI 25500 .cfa: r11 8 +
STACK CFI INIT 25530 4c .cfa: sp 0 + .ra: lr
STACK CFI 25534 .cfa: sp 8 + .ra: .cfa -4 + ^ r11: .cfa -8 + ^
STACK CFI 25538 .cfa: r11 8 +
STACK CFI INIT 2557c 1c .cfa: sp 0 + .ra: lr
STACK CFI 25580 .cfa: sp 4 +
STACK CFI INIT 25598 38 .cfa: sp 0 + .ra: lr
STACK CFI 2559c .cfa: sp 8 + .ra: .cfa -4 + ^ r11: .cfa -8 + ^
STACK CFI 255a0 .cfa: r11 8 +
STACK CFI INIT 255d0 14 .cfa: sp 0 + .ra: lr
STACK CFI 255d4 .cfa: sp 4 +
STACK CFI INIT 3c948 30 .cfa: sp 0 + .ra: lr
STACK CFI 3c94c .cfa: sp 4 +
STACK CFI INIT 3c978 40 .cfa: sp 0 + .ra: lr
STACK CFI 3c97c .cfa: sp 8 + .ra: .cfa -4 + ^ r11: .cfa -8 + ^
STACK CFI 3c980 .cfa: r11 8 +
STACK CFI INIT 3c9b8 ac .cfa: sp 0 + .ra: lr
STACK CFI 3c9bc .cfa: sp 8 + .ra: .cfa -4 + ^ r11: .cfa -8 + ^
STACK CFI 3c9c0 .cfa: r11 8 +
STACK CFI INIT 3ca64 8c .cfa: sp 0 + .ra: lr
STACK CFI 3ca68 .cfa: sp 8 + .ra: .cfa -4 + ^ r11: .cfa -8 + ^
STACK CFI 3ca6c .cfa: r11 8 +
STACK CFI INIT 3caf0 9c .cfa: sp 0 + .ra: lr
STACK CFI 3caf4 .cfa: sp 8 + .ra: .cfa -4 + ^ r11: .cfa -8 + ^
STACK CFI 3caf8 .cfa: r11 8 +
STACK CFI INIT 3cb8c 7c .cfa: sp 0 + .ra: lr
STACK CFI 3cb90 .cfa: sp 8 + .ra: .cfa -4 + ^ r11: .cfa -8 + ^
STACK CFI 3cb94 .cfa: r11 8 +
STACK CFI INIT 3cc08 ac .cfa: sp 0 + .ra: lr
STACK CFI 3cc0c .cfa: sp 8 + .ra: .cfa -4 + ^ r11: .cfa -8 + ^
STACK CFI 3cc10 .cfa: r11 8 +
STACK CFI INIT 3ccb4 18 .cfa: sp 0 + .ra: lr
STACK CFI INIT 3cccc 7c .cfa: sp 0 + .ra: lr
STACK CFI 3ccd0 .cfa: sp 8 + .ra: .cfa -4 + ^ r11: .cfa -8 + ^
STACK CFI 3ccd4 .cfa: r11 8 +
STACK CFI INIT 3cd48 158 .cfa: sp 0 + .ra: lr
STACK CFI 3cd4c .cfa: sp 16 + .ra: .cfa -4 + ^ r10: .cfa -12 + ^ r11: .cfa -8 + ^ r4: .cfa -16 + ^
STACK CFI 3cd50 .cfa: r11 8 +
STACK CFI INIT 3cea0 b0 .cfa: sp 0 + .ra: lr
STACK CFI 3cea4 .cfa: sp 8 + .ra: .cfa -4 + ^ r11: .cfa -8 + ^
STACK CFI 3cea8 .cfa: r11 8 +
STACK CFI INIT 3cf50 164 .cfa: sp 0 + .ra: lr
STACK CFI 3cf54 .cfa: sp 16 + .ra: .cfa -4 + ^ r10: .cfa -12 + ^ r11: .cfa -8 + ^ r4: .cfa -16 + ^
STACK CFI 3cf58 .cfa: r11 8 +
STACK CFI INIT 3d0b4 3c .cfa: sp 0 + .ra: lr
STACK CFI 3d0b8 .cfa: sp 8 + .ra: .cfa -4 + ^ r11: .cfa -8 + ^
STACK CFI 3d0bc .cfa: r11 8 +
STACK CFI INIT 3d0f0 2a4 .cfa: sp 0 + .ra: lr
STACK CFI 3d0f4 .cfa: sp 8 + .ra: .cfa -4 + ^ r11: .cfa -8 + ^
STACK CFI 3d0f8 .cfa: r11 8 +
STACK CFI INIT 3d394 3c .cfa: sp 0 + .ra: lr
STACK CFI 3d398 .cfa: sp 8 + .ra: .cfa -4 + ^ r11: .cfa -8 + ^
STACK CFI 3d39c .cfa: r11 8 +
STACK CFI INIT 3d3d0 29c .cfa: sp 0 + .ra: lr
STACK CFI 3d3d4 .cfa: sp 8 + .ra: .cfa -4 + ^ r11: .cfa -8 + ^
STACK CFI 3d3d8 .cfa: r11 8 +
STACK CFI INIT 3d66c 1bc .cfa: sp 0 + .ra: lr
STACK CFI 3d670 .cfa: sp 8 + .ra: .cfa -4 + ^ r11: .cfa -8 + ^
STACK CFI 3d674 .cfa: r11 8 +
STACK CFI INIT 388a0 4c .cfa: sp 0 + .ra: lr
STACK CFI 388a4 .cfa: sp 8 + .ra: .cfa -4 + ^ r11: .cfa -8 + ^
STACK CFI 388a8 .cfa: r11 8 +
STACK CFI INIT 3d828 94 .cfa: sp 0 + .ra: lr
STACK CFI 3d82c .cfa: sp 8 + .ra: .cfa -4 + ^ r11: .cfa -8 + ^
STACK CFI 3d830 .cfa: r11 8 +
STACK CFI INIT 3891c 38 .cfa: sp 0 + .ra: lr
STACK CFI 38920 .cfa: sp 8 + .ra: .cfa -4 + ^ r11: .cfa -8 + ^
STACK CFI 38924 .cfa: r11 8 +
STACK CFI INIT 3d8bc 18 .cfa: sp 0 + .ra: lr
STACK CFI 3d8c0 .cfa: sp 4 +
STACK CFI INIT 385bc 24 .cfa: sp 0 + .ra: lr
STACK CFI 385c0 .cfa: sp 4 +
STACK CFI INIT 3d8d4 1a4 .cfa: sp 0 + .ra: lr
STACK CFI 3d8d8 .cfa: sp 8 + .ra: .cfa -4 + ^ r11: .cfa -8 + ^
STACK CFI 3d8dc .cfa: r11 8 +
STACK CFI INIT 3da78 8 .cfa: sp 0 + .ra: lr
STACK CFI INIT 3da80 17c .cfa: sp 0 + .ra: lr
STACK CFI 3da84 .cfa: sp 8 + .ra: .cfa -4 + ^ r11: .cfa -8 + ^
STACK CFI 3da88 .cfa: r11 8 +
STACK CFI INIT 3dbfc 9c .cfa: sp 0 + .ra: lr
STACK CFI 3dc00 .cfa: sp 8 + .ra: .cfa -4 + ^ r11: .cfa -8 + ^
STACK CFI 3dc04 .cfa: r11 8 +
STACK CFI INIT 3dc98 9c .cfa: sp 0 + .ra: lr
STACK CFI 3dc9c .cfa: sp 8 + .ra: .cfa -4 + ^ r11: .cfa -8 + ^
STACK CFI 3dca0 .cfa: r11 8 +
STACK CFI INIT 3dd34 118 .cfa: sp 0 + .ra: lr
STACK CFI 3dd38 .cfa: sp 8 + .ra: .cfa -4 + ^ r11: .cfa -8 + ^
STACK CFI 3dd3c .cfa: r11 8 +
STACK CFI INIT 38434 18 .cfa: sp 0 + .ra: lr
STACK CFI 38438 .cfa: sp 4 +
STACK CFI INIT 3de4c 8 .cfa: sp 0 + .ra: lr
STACK CFI INIT 3de54 78 .cfa: sp 0 + .ra: lr
STACK CFI 3de58 .cfa: sp 8 + .ra: .cfa -4 + ^ r11: .cfa -8 + ^
STACK CFI 3de5c .cfa: r11 8 +
STACK CFI INIT 3decc a0 .cfa: sp 0 + .ra: lr
STACK CFI 3ded0 .cfa: sp 8 + .ra: .cfa -4 + ^ r11: .cfa -8 + ^
STACK CFI 3ded4 .cfa: r11 8 +
STACK CFI INIT 3df6c 18 .cfa: sp 0 + .ra: lr
STACK CFI 3df70 .cfa: sp 4 +
STACK CFI INIT 3df84 40 .cfa: sp 0 + .ra: lr
STACK CFI 3df88 .cfa: sp 8 + .ra: .cfa -4 + ^ r11: .cfa -8 + ^
STACK CFI 3df8c .cfa: r11 8 +
STACK CFI INIT 3dfc4 58 .cfa: sp 0 + .ra: lr
STACK CFI 3dfc8 .cfa: sp 8 + .ra: .cfa -4 + ^ r11: .cfa -8 + ^
STACK CFI 3dfcc .cfa: r11 8 +
STACK CFI INIT 3e058 1c0 .cfa: sp 0 + .ra: lr
STACK CFI 3e05c .cfa: sp 16 + .ra: .cfa -4 + ^ r10: .cfa -12 + ^ r11: .cfa -8 + ^ r4: .cfa -16 + ^
STACK CFI 3e060 .cfa: r11 8 +
STACK CFI INIT 3e218 24 .cfa: sp 0 + .ra: lr
STACK CFI 3e21c .cfa: sp 8 + .ra: .cfa -4 + ^ r11: .cfa -8 + ^
STACK CFI 3e220 .cfa: r11 8 +
STACK CFI INIT 3e23c e4 .cfa: sp 0 + .ra: lr
STACK CFI 3e240 .cfa: sp 8 + .ra: .cfa -4 + ^ r11: .cfa -8 + ^
STACK CFI 3e244 .cfa: r11 8 +
STACK CFI INIT 3e320 74 .cfa: sp 0 + .ra: lr
STACK CFI 3e324 .cfa: sp 8 + .ra: .cfa -4 + ^ r11: .cfa -8 + ^
STACK CFI 3e328 .cfa: r11 8 +
STACK CFI INIT 3e394 40 .cfa: sp 0 + .ra: lr
STACK CFI 3e398 .cfa: sp 8 + .ra: .cfa -4 + ^ r11: .cfa -8 + ^
STACK CFI 3e39c .cfa: r11 8 +
STACK CFI INIT 3e3d4 30 .cfa: sp 0 + .ra: lr
STACK CFI 3e3d8 .cfa: sp 16 +
STACK CFI INIT 3e404 3c .cfa: sp 0 + .ra: lr
STACK CFI 3e408 .cfa: sp 8 + .ra: .cfa -4 + ^ r11: .cfa -8 + ^
STACK CFI 3e40c .cfa: r11 8 +
STACK CFI INIT 3e440 ac .cfa: sp 0 + .ra: lr
STACK CFI 3e444 .cfa: sp 8 + .ra: .cfa -4 + ^ r11: .cfa -8 + ^
STACK CFI 3e448 .cfa: r11 8 +
STACK CFI INIT 3e4ec 128 .cfa: sp 0 + .ra: lr
STACK CFI 3e4f0 .cfa: sp 8 + .ra: .cfa -4 + ^ r11: .cfa -8 + ^
STACK CFI 3e4f4 .cfa: r11 8 +
STACK CFI INIT 3e614 1c0 .cfa: sp 0 + .ra: lr
STACK CFI 3e618 .cfa: sp 16 + .ra: .cfa -4 + ^ r10: .cfa -12 + ^ r11: .cfa -8 + ^ r4: .cfa -16 + ^
STACK CFI 3e61c .cfa: r11 8 +
STACK CFI INIT 3e7d4 dc .cfa: sp 0 + .ra: lr
STACK CFI 3e7d8 .cfa: sp 16 + .ra: .cfa -4 + ^ r11: .cfa -8 + ^ r4: .cfa -16 + ^ r5: .cfa -12 + ^
STACK CFI 3e7dc .cfa: r11 8 +
STACK CFI INIT 3e8b0 2ec .cfa: sp 0 + .ra: lr
STACK CFI 3e8b4 .cfa: sp 8 + .ra: .cfa -4 + ^ r11: .cfa -8 + ^
STACK CFI 3e8b8 .cfa: r11 8 +
STACK CFI INIT 3eb9c 30 .cfa: sp 0 + .ra: lr
STACK CFI 3eba0 .cfa: sp 16 +
STACK CFI INIT 3ebcc 20 .cfa: sp 0 + .ra: lr
STACK CFI 3ebd0 .cfa: sp 8 +
STACK CFI INIT 3ebec 60 .cfa: sp 0 + .ra: lr
STACK CFI 3ebf0 .cfa: sp 8 + .ra: .cfa -4 + ^ r11: .cfa -8 + ^
STACK CFI 3ebf4 .cfa: r11 8 +
STACK CFI INIT 3ec4c 3c .cfa: sp 0 + .ra: lr
